 main

 Timestamp is 61a35c86 (Sun Nov 28 12:40:06 2021)

 Preferred load address is 0000000140000000

 Start         Length     Name                   Class
 0001:00000000 00000730H .text$di                CODE
 0001:00000730 00062650H .text$mn                CODE
 0001:00062d80 00000040H .text$mn$00             CODE
 0001:00062dc0 00001010H .text$x                 CODE
 0001:00063dd0 00000155H .text$yd                CODE
 0002:00000000 000002b8H .idata$5                DATA
 0002:000002b8 00000028H .00cfg                  DATA
 0002:000002e0 00000008H .CRT$XCA                DATA
 0002:000002e8 00000008H .CRT$XCAA               DATA
 0002:000002f0 00000158H .CRT$XCC                DATA
 0002:00000448 00000038H .CRT$XCL                DATA
 0002:00000480 00000010H .CRT$XCU                DATA
 0002:00000490 00000008H .CRT$XCZ                DATA
 0002:00000498 00000008H .CRT$XIA                DATA
 0002:000004a0 00000008H .CRT$XIAA               DATA
 0002:000004a8 00000008H .CRT$XIAC               DATA
 0002:000004b0 00000028H .CRT$XIC                DATA
 0002:000004d8 00000008H .CRT$XIZ                DATA
 0002:000004e0 00000008H .CRT$XPA                DATA
 0002:000004e8 00000010H .CRT$XPX                DATA
 0002:000004f8 00000008H .CRT$XPXA               DATA
 0002:00000500 00000008H .CRT$XPZ                DATA
 0002:00000508 00000008H .CRT$XTA                DATA
 0002:00000510 00000010H .CRT$XTZ                DATA
 0002:00000518 00000000H .gehcont$y              DATA
 0002:00000518 00000000H .gfids$y                DATA
 0002:00000520 0001c360H .rdata                  DATA
 0002:0001c880 00000000H .rdata$CastGuardVftablesA DATA
 0002:0001c880 00000000H .rdata$CastGuardVftablesC DATA
 0002:0001c880 00000fecH .rdata$r                DATA
 0002:0001d86c 0000004cH .rdata$voltmd           DATA
 0002:0001d8b8 000003c0H .rdata$zzzdbg           DATA
 0002:0001dc78 00000008H .rtc$IAA                DATA
 0002:0001dc80 00000008H .rtc$IZZ                DATA
 0002:0001dc88 00000008H .rtc$TAA                DATA
 0002:0001dc90 00000010H .rtc$TZZ                DATA
 0002:0001dca0 00001d28H .xdata                  DATA
 0002:0001f9c8 000003ccH .xdata$x                DATA
 0002:0001fd94 00000000H .edata                  DATA
 0002:0001fd94 00000014H .idata$2                DATA
 0002:0001fda8 00000018H .idata$3                DATA
 0002:0001fdc0 000002b8H .idata$4                DATA
 0002:00020078 00000652H .idata$6                DATA
 0003:00000000 00000c98H .data                   DATA
 0003:00000c98 000001f8H .data$r                 DATA
 0003:00000e90 000003c0H .data$rs                DATA
 0003:00001250 00002878H .bss                    DATA
 0004:00000000 00005184H .pdata                  DATA
 0005:00000000 000000f4H _RDATA                  DATA

  Address         Publics by Value              Rva+Base               Lib:Object

 0000:00000000       __x64_code_ranges_to_entry_points_count 0000000000000000     <absolute>
 0000:00000000       __arm64x_redirection_metadata 0000000000000000     <absolute>
 0000:00000000       __guard_iat_table          0000000000000000     <absolute>
 0000:00000000       __guard_iat_count          0000000000000000     <absolute>
 0000:00000000       __guard_longjmp_table      0000000000000000     <absolute>
 0000:00000000       __guard_longjmp_count      0000000000000000     <absolute>
 0000:00000000       __x64_code_ranges_to_entry_points 0000000000000000     <absolute>
 0000:00000000       __dynamic_value_reloc_table 0000000000000000     <absolute>
 0000:00000000       __hybrid_auxiliary_iat     0000000000000000     <absolute>
 0000:00000000       __guard_fids_count         0000000000000000     <absolute>
 0000:00000000       __hybrid_auxiliary_iat_copy 0000000000000000     <absolute>
 0000:00000000       ___safe_se_handler_table   0000000000000000     <absolute>
 0000:00000000       __arm64x_extra_rfe_table   0000000000000000     <absolute>
 0000:00000000       __hybrid_code_map          0000000000000000     <absolute>
 0000:00000000       __AbsoluteZero             0000000000000000     <absolute>
 0000:00000000       __arm64x_extra_rfe_table_size 0000000000000000     <absolute>
 0000:00000000       ___safe_se_handler_count   0000000000000000     <absolute>
 0000:00000000       __guard_check_icall_a64n_fptr 0000000000000000     <absolute>
 0000:00000000       __guard_fids_table         0000000000000000     <absolute>
 0000:00000000       __guard_eh_cont_count      0000000000000000     <absolute>
 0000:00000000       __arm64x_redirection_metadata_count 0000000000000000     <absolute>
 0000:00000000       __enclave_config           0000000000000000     <absolute>
 0000:00000000       __guard_eh_cont_table      0000000000000000     <absolute>
 0000:00000000       __arm64x_native_entrypoint 0000000000000000     <absolute>
 0000:00000000       __hybrid_code_map_count    0000000000000000     <absolute>
 0000:00000100       __guard_flags              0000000000000100     <absolute>
 0000:00000000       __ImageBase                0000000140000000     <linker-defined>
 0001:00000a20       ?vkGetInstanceProcAddrStub@@YAP6AXXZPEAUVkInstance_T@@PEBD@Z 0000000140001a20 f   main.obj
 0001:00004410       main                       0000000140005410 f   main.obj
 0001:000045c0       ??$?0$$V@?$_Compressed_pair@V?$allocator@D@std@@V?$_String_val@U?$_Simple_types@D@std@@@2@$00@std@@QEAA@U_Zero_then_variadic_args_t@1@@Z 00000001400055c0 f i main.obj
 0001:000045f0       ??$?0AEAPEAV_Facet_base@std@@@?$_Compressed_pair@U?$default_delete@V_Facet_base@std@@@std@@PEAV_Facet_base@2@$00@std@@QEAA@U_Zero_then_variadic_args_t@1@AEAPEAV_Facet_base@1@@Z 00000001400055f0 f i main.obj
 0001:00004630       ??$?0D@?$allocator@U_Container_proxy@std@@@std@@QEAA@AEBV?$allocator@D@1@@Z 0000000140005630 f i main.obj
 0001:00004630       ?select_on_container_copy_construction@?$_Default_allocator_traits@V?$allocator@D@std@@@std@@SA?AV?$allocator@D@2@AEBV32@@Z 0000000140005630 f i main.obj
 0001:00004640       ??$?0U?$default_delete@V_Facet_base@std@@@std@@$0A@@?$unique_ptr@V_Facet_base@std@@U?$default_delete@V_Facet_base@std@@@2@@std@@QEAA@PEAV_Facet_base@1@@Z 0000000140005640 f i main.obj
 0001:00004670       ??$?0V?$allocator@D@std@@$$V@?$_Compressed_pair@V?$allocator@D@std@@V?$_String_val@U?$_Simple_types@D@std@@@2@$00@std@@QEAA@U_One_then_variadic_args_t@1@$$QEAV?$allocator@D@1@@Z 0000000140005670 f i main.obj
 0001:000046b0       ??$?5DU?$char_traits@D@std@@@std@@YAAEAV?$basic_istream@DU?$char_traits@D@std@@@0@AEAV10@AEAD@Z 00000001400056b0 f i main.obj
 0001:000047b0       ??$?5U?$char_traits@D@std@@@std@@YAAEAV?$basic_istream@DU?$char_traits@D@std@@@0@AEAV10@AEAE@Z 00000001400057b0 f i main.obj
 0001:000047e0       ??$?6U?$char_traits@D@std@@@std@@YAAEAV?$basic_ostream@DU?$char_traits@D@std@@@0@AEAV10@D@Z 00000001400057e0 f i main.obj
 0001:00004b50       ??$?6U?$char_traits@D@std@@@std@@YAAEAV?$basic_ostream@DU?$char_traits@D@std@@@0@AEAV10@PEBD@Z 0000000140005b50 f i main.obj
 0001:00004ef0       ??$_Adl_verify_range@PEADPEBD@std@@YAXAEBQEADAEBQEBD@Z 0000000140005ef0 f i main.obj
 0001:00004ef0       ??$_Adl_verify_range@PEBDPEBD@std@@YAXAEBQEBD0@Z 0000000140005ef0 f i main.obj
 0001:00004f20       ??$_Alloc_proxy@V?$allocator@U_Container_proxy@std@@@std@@@_Container_base12@std@@QEAAX$$QEAV?$allocator@U_Container_proxy@std@@@1@@Z 0000000140005f20 f i main.obj
 0001:00004f90       ??$_Allocate@$0BA@U_Default_allocate_traits@std@@$0A@@std@@YAPEAX_K@Z 0000000140005f90 f i main.obj
 0001:00004fd0       ??$_Allocate_manually_vector_aligned@U_Default_allocate_traits@std@@@std@@YAPEAX_K@Z 0000000140005fd0 f i main.obj
 0001:000050d0       ??$_Construct_in_place@PEADAEBQEAD@std@@YAXAEAPEADAEBQEAD@Z 00000001400060d0 f i main.obj
 0001:000050d0       ??$_Construct_in_place@PEADAEAPEAD@std@@YAXAEAPEAD0@Z 00000001400060d0 f i main.obj
 0001:00005120       ??$_Construct_in_place@U_Container_proxy@std@@PEAU_Container_base12@2@@std@@YAXAEAU_Container_proxy@0@$$QEAPEAU_Container_base12@0@@Z 0000000140006120 f i main.obj
 0001:00005170       ?_Get_first@?$_Compressed_pair@U?$default_delete@V_Facet_base@std@@@std@@PEAV_Facet_base@2@$00@std@@QEAAAEAU?$default_delete@V_Facet_base@std@@@2@XZ 0000000140006170 f i main.obj
 0001:00005170       ??$forward@AEAPEAD@std@@YAAEAPEADAEAPEAD@Z 0000000140006170 f i main.obj
 0001:00005170       ?dangerous_get_state_array@?$dual_state_global@P6AXPEB_W00I_K@Z@__crt_state_management@@QEAAPEAP6AXPEB_W00I_K@ZXZ 0000000140006170 f i libucrtd:invalid_parameter.obj
 0001:00005170       ??$forward@PEAU_Container_base12@std@@@std@@YA$$QEAPEAU_Container_base12@0@AEAPEAU10@@Z 0000000140006170 f i main.obj
 0001:00005170       ?debug_info@?$__crt_win32_buffer@DU__crt_win32_buffer_no_resizing@@@@QEBAAEBV__crt_win32_buffer_empty_debug_info@@XZ 0000000140006170 f i libucrtd:strftime.obj
 0001:00005170       ?get_address_of@?$__crt_unique_heap_ptr@PEADU__crt_internal_free_policy@@@@QEAAPEAPEAPEADXZ 0000000140006170 f i libucrtd:argv_parsing.obj
 0001:00005170       ??0?$allocator@D@std@@QEAA@XZ 0000000140006170 f i main.obj
 0001:00005170       ??$addressof@U_Container_proxy@std@@@std@@YAPEAU_Container_proxy@0@AEAU10@@Z 0000000140006170 f i main.obj
 0001:00005170       ??$addressof@PEAD@std@@YAPEAPEADAEAPEAD@Z 0000000140006170 f i main.obj
 0001:00005170       ??$forward@AEAViterator@TryBlockMap4@FH4@@@std@@YAAEAViterator@TryBlockMap4@FH4@@AEAV123@@Z 0000000140006170 f i libvcruntimed:risctrnsctrl.obj
 0001:00005170       ??$addressof@$$CBV?$_String_val@U?$_Simple_types@D@std@@@std@@@std@@YAPEBV?$_String_val@U?$_Simple_types@D@std@@@0@AEBV10@@Z 0000000140006170 f i main.obj
 0001:00005170       ??$forward@AEAViterator@TryBlockMap@__FrameHandler3@@@std@@YAAEAViterator@TryBlockMap@__FrameHandler3@@AEAV123@@Z 0000000140006170 f i libvcruntimed:risctrnsctrl.obj
 0001:00005170       ?dangerous_get_state_array@?$dual_state_global@PEAPEAD@__crt_state_management@@QEAAPEAPEAPEADXZ 0000000140006170 f i libucrtd:timeset.obj
 0001:00005170       ?dangerous_get_state_array@?$dual_state_global@PEAE@__crt_state_management@@QEAAPEAPEAEXZ 0000000140006170 f i libucrtd:mbctype.obj
 0001:00005170       ?debug_info@?$__crt_win32_buffer@_WU__crt_win32_buffer_internal_dynamic_resizing@@@@QEBAAEBV__crt_win32_buffer_empty_debug_info@@XZ 0000000140006170 f i libucrtd:strftime.obj
 0001:00005170       ??$move@AEAV?$allocator@D@std@@@std@@YA$$QEAV?$allocator@D@0@AEAV10@@Z 0000000140006170 f i main.obj
 0001:00005170       ?dangerous_get_state_array@?$dual_state_global@PEAU__crt_locale_data@@@__crt_state_management@@QEAAPEAPEAU__crt_locale_data@@XZ 0000000140006170 f i libucrtd:per_thread_data.obj
 0001:00005170       ??$forward@AEAPEAV_Facet_base@std@@@std@@YAAEAPEAV_Facet_base@0@AEAPEAV10@@Z 0000000140006170 f i main.obj
 0001:00005170       ?_Get_first@?$_Compressed_pair@V?$allocator@D@std@@V?$_String_val@U?$_Simple_types@D@std@@@2@$00@std@@QEBAAEBV?$allocator@D@2@XZ 0000000140006170 f i main.obj
 0001:00005170       ??$forward@V?$allocator@D@std@@@std@@YA$$QEAV?$allocator@D@0@AEAV10@@Z 0000000140006170 f i main.obj
 0001:00005170       ?dangerous_get_state_array@?$dual_state_global@PEAPEA_W@__crt_state_management@@QEAAPEAPEAPEA_WXZ 0000000140006170 f i libucrtd:timeset.obj
 0001:00005170       ??$_Unfancy@D@std@@YAPEADPEAD@Z 0000000140006170 f i main.obj
 0001:00005170       ??$forward@AEBD@std@@YAAEBDAEBD@Z 0000000140006170 f i libcpmtd:cin.obj
 0001:00005170       ?get_address_of@?$__crt_unique_handle_t@U__crt_hmodule_traits@@@@QEAAPEAPEAUHINSTANCE__@@XZ 0000000140006170 f i libucrtd:exit.obj
 0001:00005170       ??$_Voidify_iter@PEAPEAD@std@@YAPEAXPEAPEAD@Z 0000000140006170 f i main.obj
 0001:00005170       ?dangerous_get_state_array@?$dual_state_global@H@__crt_state_management@@QEAAPEAHXZ 0000000140006170 f i libucrtd:txtmode.obj
 0001:00005170       ??$_Unfancy@U_Container_proxy@std@@@std@@YAPEAU_Container_proxy@0@PEAU10@@Z 0000000140006170 f i main.obj
 0001:00005170       ?dangerous_get_state_array@?$dual_state_global@PEAU__crt_multibyte_data@@@__crt_state_management@@QEAAPEAPEAU__crt_multibyte_data@@XZ 0000000140006170 f i libucrtd:mbctype.obj
 0001:00005170       ?_Get_first@?$_Compressed_pair@V?$allocator@D@std@@V?$_String_val@U?$_Simple_types@D@std@@@2@$00@std@@QEAAAEAV?$allocator@D@2@XZ 0000000140006170 f i main.obj
 0001:00005170       ?debug_info@?$__crt_win32_buffer@DU__crt_win32_buffer_internal_dynamic_resizing@@@@QEBAAEBV__crt_win32_buffer_empty_debug_info@@XZ 0000000140006170 f i libucrtd:argv_wildcards.obj
 0001:00005170       ??$_Convert_size@_K@std@@YA_K_K@Z 0000000140006170 f i main.obj
 0001:00005170       ??$addressof@V?$_String_val@U?$_Simple_types@D@std@@@std@@@std@@YAPEAV?$_String_val@U?$_Simple_types@D@std@@@0@AEAV10@@Z 0000000140006170 f i main.obj
 0001:00005170       ??$forward@AEBQEAD@std@@YAAEBQEADAEBQEAD@Z 0000000140006170 f i main.obj
 0001:00005170       ??$_Voidify_iter@PEAD@std@@YAPEAXPEAD@Z 0000000140006170 f i libcpmtd:cin.obj
 0001:00005170       ??$_Voidify_iter@PEAU_Container_proxy@std@@@std@@YAPEAXPEAU_Container_proxy@0@@Z 0000000140006170 f i main.obj
 0001:00005170       ??$addressof@U_Container_base12@std@@@std@@YAPEAU_Container_base12@0@AEAU10@@Z 0000000140006170 f i main.obj
 0001:00005170       ??$addressof@$$CBV?$codecvt@DDU_Mbstatet@@@std@@@std@@YAPEBV?$codecvt@DDU_Mbstatet@@@0@AEBV10@@Z 0000000140006170 f i libcpmtd:cin.obj
 0001:00005180       ??$_Deallocate@$0BA@$0A@@std@@YAXPEAX_K@Z 0000000140006180 f i main.obj
 0001:000051c0       ??$_Deallocate_plain@V?$allocator@U_Container_proxy@std@@@std@@@std@@YAXAEAV?$allocator@U_Container_proxy@std@@@0@QEAU_Container_proxy@0@@Z 00000001400061c0 f i main.obj
 0001:000051f0       ??$_Delete_plain_internal@V?$allocator@U_Container_proxy@std@@@std@@@std@@YAXAEAV?$allocator@U_Container_proxy@std@@@0@QEAU_Container_proxy@0@@Z 00000001400061f0 f i main.obj
 0001:00005220       ??1_Bxty@?$_String_val@U?$_Simple_types@D@std@@@std@@QEAA@XZ 0000000140006220 f i main.obj
 0001:00005220       ??1scoped_global_state_reset@__crt_state_management@@QEAA@XZ 0000000140006220 f i libucrtd:onexit.obj
 0001:00005220       ??1error_category@std@@UEAA@XZ 0000000140006220 f i main.obj
 0001:00005220       _guard_check_icall_nop     0000000140006220 f i LIBCMTD:guard_support.obj
 0001:00005220       ?_Lock@?$basic_streambuf@DU?$char_traits@D@std@@@std@@UEAAXXZ 0000000140006220 f i libcpmtd:cin.obj
 0001:00005220       ??1?$__crt_simd_cleanup_guard@$0A@@@QEAA@XZ 0000000140006220 f i libucrtd:strnlen.obj
 0001:00005220       ?_Unlock@?$basic_streambuf@DU?$char_traits@D@std@@@std@@UEAAXXZ 0000000140006220 f i libcpmtd:cin.obj
 0001:00005220       ??$_Destroy_in_place@PEAD@std@@YAXAEAPEAD@Z 0000000140006220 f i main.obj
 0001:00005230       ??$_Get_size_of_n@$00@std@@YA_K_K@Z 0000000140006230 f i main.obj
 0001:00005250       ??$_Get_size_of_n@$0BA@@std@@YA_K_K@Z 0000000140006250 f i main.obj
 0001:00005290       ??$_Immortalize_memcpy_image@V_Iostream_error_category2@std@@@std@@YAAEBV_Iostream_error_category2@0@XZ 0000000140006290 f i main.obj
 0001:000052a0       ??$_Reallocate_for@V<lambda_66f57f934f28d61049862f64df852ff0>@@PEBD@?$basic_string@DU?$char_traits@D@std@@V?$allocator@D@2@@std@@AEAAAEAV01@_KV<lambda_66f57f934f28d61049862f64df852ff0>@@PEBD@Z 00000001400062a0 f i main.obj
 0001:000053c0       ??$_Reallocate_grow_by@V<lambda_65e615be2a453ca0576c979606f46740>@@PEBD_K@?$basic_string@DU?$char_traits@D@std@@V?$allocator@D@2@@std@@AEAAAEAV01@_KV<lambda_65e615be2a453ca0576c979606f46740>@@PEBD_K@Z 00000001400063c0 f i main.obj
 0001:000055a0       ??$_Verify_range@D@std@@YAXQEBD0@Z 00000001400065a0 f i main.obj
 0001:00005630       ??$exchange@PEAV_Facet_base@std@@$$T@std@@YAPEAV_Facet_base@0@AEAPEAV10@$$QEA$$T@Z 0000000140006630 f i main.obj
 0001:00005670       ??$max@_K@std@@YAAEB_KAEB_K0@Z 0000000140006670 f i main.obj
 0001:000056c0       ??$min@_K@std@@YAAEB_KAEB_K0@Z 00000001400066c0 f i main.obj
 0001:00005710       ??$use_facet@V?$ctype@D@std@@@std@@YAAEBV?$ctype@D@0@AEBVlocale@0@@Z 0000000140006710 f i main.obj
 0001:00005820       ??0?$_Container_proxy_ptr12@V?$allocator@U_Container_proxy@std@@@std@@@std@@QEAA@AEAV?$allocator@U_Container_proxy@std@@@1@AEAU_Container_base12@1@@Z 0000000140006820 f i main.obj
 0001:000058b0       ??0?$_String_val@U?$_Simple_types@D@std@@@std@@QEAA@XZ 00000001400068b0 f i main.obj
 0001:00005900       ??0?$_Yarn@D@std@@QEAA@XZ  0000000140006900 f i main.obj
 0001:00005920       ??0?$_Yarn@_W@std@@QEAA@XZ 0000000140006920 f i main.obj
 0001:00005950       ??0?$basic_string@DU?$char_traits@D@std@@V?$allocator@D@2@@std@@QEAA@$$QEAV01@@Z 0000000140006950 f i main.obj
 0001:000059c0       ??0?$basic_string@DU?$char_traits@D@std@@V?$allocator@D@2@@std@@QEAA@AEBV01@@Z 00000001400069c0 f i main.obj
 0001:00005a60       ??0?$basic_string@DU?$char_traits@D@std@@V?$allocator@D@2@@std@@QEAA@QEBD@Z 0000000140006a60 f i main.obj
 0001:00005b00       ??0?$basic_string@DU?$char_traits@D@std@@V?$allocator@D@2@@std@@QEAA@QEBD_K@Z 0000000140006b00 f i main.obj
 0001:00005ba0       ??0?$ctype@D@std@@QEAA@AEBV_Locinfo@1@_K@Z 0000000140006ba0 f i main.obj
 0001:00005bf0       ??0_Basic_container_proxy_ptr12@std@@IEAA@XZ 0000000140006bf0 f i main.obj
 0001:00005bf0       ??0_Container_base12@std@@QEAA@XZ 0000000140006bf0 f i main.obj
 0001:00005bf0       ??0__crt_deferred_errno_cache@@QEAA@XZ 0000000140006bf0 f i libucrtd:output.obj
 0001:00005bf0       ??0__crt_stdio_stream@@QEAA@XZ 0000000140006bf0 f i libucrtd:stream.obj
 0001:00005bf0       ??0_Bxty@?$_String_val@U?$_Simple_types@D@std@@@std@@QEAA@XZ 0000000140006bf0 f i main.obj
 0001:00005c10       ??0_Container_proxy@std@@QEAA@PEAU_Container_base12@1@@Z 0000000140006c10 f i main.obj
 0001:00005c40       ??0_Facet_base@std@@QEAA@XZ 0000000140006c40 f i main.obj
 0001:00005c60       ??0_Locinfo@std@@QEAA@PEBD@Z 0000000140006c60 f i main.obj
 0001:00005d20       ??0_Sentry_base@?$basic_ostream@DU?$char_traits@D@std@@@std@@QEAA@AEAV12@@Z 0000000140006d20 f i main.obj
 0001:00005d20       ??0_Sentry_base@?$basic_istream@DU?$char_traits@D@std@@@std@@QEAA@AEAV12@@Z 0000000140006d20 f i main.obj
 0001:00005d90       ??0_System_error@std@@IEAA@Verror_code@1@AEBV?$basic_string@DU?$char_traits@D@std@@V?$allocator@D@2@@1@@Z 0000000140006d90 f i main.obj
 0001:00005e60       ??0_System_error@std@@QEAA@AEBV01@@Z 0000000140006e60 f i main.obj
 0001:00005ec0       ??0bad_alloc@std@@AEAA@QEBD@Z 0000000140006ec0 f i main.obj
 0001:00005f00       ??0bad_alloc@std@@QEAA@AEBV01@@Z 0000000140006f00 f i main.obj
 0001:00005f40       ??0bad_array_new_length@std@@QEAA@AEBV01@@Z 0000000140006f40 f i main.obj
 0001:00005f80       ??0bad_array_new_length@std@@QEAA@XZ 0000000140006f80 f i main.obj
 0001:00005fc0       ??0bad_cast@std@@QEAA@AEBV01@@Z 0000000140006fc0 f i main.obj
 0001:00006000       ??0bad_cast@std@@QEAA@XZ   0000000140007000 f i main.obj
 0001:00006040       ??0ctype_base@std@@QEAA@_K@Z 0000000140007040 f i main.obj
 0001:00006080       ??0error_code@std@@QEAA@HAEBVerror_category@1@@Z 0000000140007080 f i main.obj
 0001:00006080       ??0error_condition@std@@QEAA@HAEBVerror_category@1@@Z 0000000140007080 f i main.obj
 0001:000060b0       ??0exception@std@@QEAA@AEBV01@@Z 00000001400070b0 f i main.obj
 0001:00006110       ??0exception@std@@QEAA@QEBD@Z 0000000140007110 f i main.obj
 0001:00006180       ??0exception@std@@QEAA@QEBDH@Z 0000000140007180 f i main.obj
 0001:000061d0       ??0facet@locale@std@@IEAA@_K@Z 00000001400071d0 f i main.obj
 0001:00006210       ??0failure@ios_base@std@@QEAA@AEBV012@@Z 0000000140007210 f i main.obj
 0001:00006250       ??0failure@ios_base@std@@QEAA@PEBDAEBVerror_code@2@@Z 0000000140007250 f i main.obj
 0001:000062b0       ??0?$__crt_unique_heap_ptr@U__crt_multibyte_data@@U__crt_internal_free_policy@@@@QEAA@QEAU__crt_multibyte_data@@@Z 00000001400072b0 f i libucrtd:wsetlocale.obj
 0001:000062b0       ??0?$__crt_unique_heap_ptr@U__crt_locale_data@@U__crt_internal_free_policy@@@@QEAA@QEAU__crt_locale_data@@@Z 00000001400072b0 f i libucrtd:wsetlocale.obj
 0001:000062b0       ??0__crt_stdio_stream@@QEAA@QEAU_iobuf@@@Z 00000001400072b0 f i libucrtd:fclose.obj
 0001:000062b0       ??0?$__crt_unique_heap_ptr@U__vcrt_ptd@@U__crt_internal_free_policy@@@@QEAA@QEAU__vcrt_ptd@@@Z 00000001400072b0 f i libvcruntimed:per_thread_data.obj
 0001:000062b0       ??0?$__crt_unique_heap_ptr@PEAU__crt_stdio_stream_data@@U__crt_internal_free_policy@@@@QEAA@QEAPEAU__crt_stdio_stream_data@@@Z 00000001400072b0 f i libucrtd:_file.obj
 0001:000062b0       ??0?$__crt_unique_heap_ptr@EU__crt_internal_free_policy@@@@QEAA@QEAE@Z 00000001400072b0 f i libcpmtd:xwcsxfrm.obj
 0001:000062b0       ??0?$__crt_unique_heap_ptr@P6AXXZU__crt_internal_free_policy@@@@QEAA@QEAP6AXXZ@Z 00000001400072b0 f i libucrtd:onexit.obj
 0001:000062b0       ??0?$__crt_unique_heap_ptr@U__acrt_ptd@@U__crt_internal_free_policy@@@@QEAA@QEAU__acrt_ptd@@@Z 00000001400072b0 f i libucrtd:per_thread_data.obj
 0001:000062b0       ??0?$__crt_unique_handle_t@U__crt_hmodule_traits@@@@QEAA@QEAUHINSTANCE__@@@Z 00000001400072b0 f i libucrtd:exit.obj
 0001:000062b0       ??0?$__crt_unique_heap_ptr@GU__crt_internal_free_policy@@@@QEAA@QEAG@Z 00000001400072b0 f i libucrtd:initctype.obj
 0001:000062b0       ??0?$__crt_unique_heap_ptr@Ulconv@@U__crt_internal_free_policy@@@@QEAA@QEAUlconv@@@Z 00000001400072b0 f i libucrtd:initmon.obj
 0001:000062b0       ??0?$__crt_unique_heap_ptr@DU__crt_internal_free_policy@@@@QEAA@QEAD@Z 00000001400072b0 f i libvcruntimed:std_type_info.obj
 0001:000062b0       ??0?$string_output_adapter@_W@__crt_stdio_output@@QEAA@QEAU?$string_output_adapter_context@_W@1@@Z 00000001400072b0 f i libucrtd:output.obj
 0001:000062b0       ??0?$__crt_unique_heap_ptr@U__crt_lc_time_data@@U__crt_internal_free_policy@@@@QEAA@QEAU__crt_lc_time_data@@@Z 00000001400072b0 f i libucrtd:inittime.obj
 0001:000062b0       ??0?$__crt_unique_heap_ptr@PEADU__crt_internal_free_policy@@@@QEAA@QEAPEAD@Z 00000001400072b0 f i libucrtd:argv_parsing.obj
 0001:000062b0       ??0?$__crt_scoped_stack_ptr@_W@@QEAA@U?$__crt_scoped_stack_ptr_tag@_W@@@Z 00000001400072b0 f i libcpmtd:StlLCMapStringA.obj
 0001:000062b0       ??0?$__crt_unique_heap_ptr@U__crt_stdio_stream_data@@U__crt_internal_free_policy@@@@QEAA@QEAU__crt_stdio_stream_data@@@Z 00000001400072b0 f i libucrtd:stream.obj
 0001:000062b0       ??0?$__crt_unique_heap_ptr@DU__crt_public_free_policy@@@@QEAA@QEAD@Z 00000001400072b0 f i libvcruntimed:std_exception.obj
 0001:000062b0       ??0__crt_stdio_stream@@QEAA@QEAU__crt_stdio_stream_data@@@Z 00000001400072b0 f i libucrtd:fflush.obj
 0001:000062b0       ??0?$string_output_adapter@D@__crt_stdio_output@@QEAA@QEAU?$string_output_adapter_context@D@1@@Z 00000001400072b0 f i libucrtd:output.obj
 0001:000062b0       ??0?$__crt_unique_heap_ptr@U__crt_lowio_handle_data@@U__crt_internal_free_policy@@@@QEAA@QEAU__crt_lowio_handle_data@@@Z 00000001400072b0 f i libucrtd:osfinfo.obj
 0001:000062b0       ??0id@locale@std@@QEAA@_K@Z 00000001400072b0 f i main.obj
 0001:000062b0       ??0?$__crt_unique_heap_ptr@JU__crt_internal_free_policy@@@@QEAA@QEAJ@Z 00000001400072b0 f i libucrtd:initctype.obj
 0001:000062b0       ??0?$__crt_unique_handle_t@U__crt_findfile_traits@@@@QEAA@QEAX@Z 00000001400072b0 f i libucrtd:argv_wildcards.obj
 0001:000062b0       ??0?$__crt_scoped_stack_ptr_tag@_W@@QEAA@QEA_W@Z 00000001400072b0 f i libcpmtd:StlLCMapStringA.obj
 0001:000062b0       ??0?$__crt_unique_heap_ptr@_WU__crt_internal_free_policy@@@@QEAA@QEA_W@Z 00000001400072b0 f i libucrtd:setlocale.obj
 0001:000062d0       ??0locale@std@@QEAA@AEBV01@@Z 00000001400072d0 f i main.obj
 0001:00006320       ??0runtime_error@std@@QEAA@AEBV01@@Z 0000000140007320 f i main.obj
 0001:00006360       ??0runtime_error@std@@QEAA@AEBV?$basic_string@DU?$char_traits@D@std@@V?$allocator@D@2@@1@@Z 0000000140007360 f i main.obj
 0001:000063a0       ??0sentry@?$basic_istream@DU?$char_traits@D@std@@@std@@QEAA@AEAV12@_N@Z 00000001400073a0 f i main.obj
 0001:000063f0       ??0sentry@?$basic_ostream@DU?$char_traits@D@std@@@std@@QEAA@AEAV12@@Z 00000001400073f0 f i main.obj
 0001:000064c0       ??0system_error@std@@QEAA@AEBV01@@Z 00000001400074c0 f i main.obj
 0001:00006500       ??0system_error@std@@QEAA@Verror_code@1@PEBD@Z 0000000140007500 f i main.obj
 0001:00006590       ??1?$_Compressed_pair@V?$allocator@D@std@@V?$_String_val@U?$_Simple_types@D@std@@@2@$00@std@@QEAA@XZ 0000000140007590 f i main.obj
 0001:000065b0       ??1?$_Container_proxy_ptr12@V?$allocator@U_Container_proxy@std@@@std@@@std@@QEAA@XZ 00000001400075b0 f i main.obj
 0001:000065e0       ??1?$_String_val@U?$_Simple_types@D@std@@@std@@QEAA@XZ 00000001400075e0 f i main.obj
 0001:00006600       ??1?$_Yarn@D@std@@QEAA@XZ  0000000140007600 f i main.obj
 0001:00006600       ??1?$_Yarn@_W@std@@QEAA@XZ 0000000140007600 f i main.obj
 0001:00006620       ??1?$basic_string@DU?$char_traits@D@std@@V?$allocator@D@2@@std@@QEAA@XZ 0000000140007620 f i main.obj
 0001:00006690       ??1?$ctype@D@std@@MEAA@XZ  0000000140007690 f i main.obj
 0001:000066d0       ??1?$unique_ptr@V_Facet_base@std@@U?$default_delete@V_Facet_base@std@@@2@@std@@QEAA@XZ 00000001400076d0 f i main.obj
 0001:00006710       ??1_Facet_base@std@@UEAA@XZ 0000000140007710 f i main.obj
 0001:00006730       ??1_Iostream_error_category2@std@@UEAA@XZ 0000000140007730 f i main.obj
 0001:00006750       ??1_Locinfo@std@@QEAA@XZ   0000000140007750 f i main.obj
 0001:000067e0       ??1_Sentry_base@?$basic_istream@DU?$char_traits@D@std@@@std@@QEAA@XZ 00000001400077e0 f i main.obj
 0001:000067e0       ??1_Sentry_base@?$basic_ostream@DU?$char_traits@D@std@@@std@@QEAA@XZ 00000001400077e0 f i main.obj
 0001:00006840       ??1bad_array_new_length@std@@UEAA@XZ 0000000140007840 f i main.obj
 0001:00006840       ??1length_error@std@@UEAA@XZ 0000000140007840 f i libcpmtd:xthrow.obj
 0001:00006840       ??1out_of_range@std@@UEAA@XZ 0000000140007840 f i libcpmtd:xthrow.obj
 0001:00006840       ??1_System_error@std@@UEAA@XZ 0000000140007840 f i main.obj
 0001:00006860       ??1bad_alloc@std@@UEAA@XZ  0000000140007860 f i main.obj
 0001:00006860       ??1logic_error@std@@UEAA@XZ 0000000140007860 f i libcpmtd:xthrow.obj
 0001:00006860       ??1runtime_error@std@@UEAA@XZ 0000000140007860 f i main.obj
 0001:00006860       ??1bad_exception@std@@UEAA@XZ 0000000140007860 f i libvcruntimed:frame.obj
 0001:00006860       ??1bad_cast@std@@UEAA@XZ   0000000140007860 f i main.obj
 0001:00006880       ??1ctype_base@std@@UEAA@XZ 0000000140007880 f i main.obj
 0001:000068b0       ??1exception@std@@UEAA@XZ  00000001400078b0 f i main.obj
 0001:000068e0       ??1facet@locale@std@@MEAA@XZ 00000001400078e0 f i main.obj
 0001:00006910       ??1failure@ios_base@std@@UEAA@XZ 0000000140007910 f i main.obj
 0001:00006930       ??1locale@std@@QEAA@XZ     0000000140007930 f i main.obj
 0001:000069a0       ??1sentry@?$basic_istream@DU?$char_traits@D@std@@@std@@QEAA@XZ 00000001400079a0 f i main.obj
 0001:000069c0       ??1sentry@?$basic_ostream@DU?$char_traits@D@std@@@std@@QEAA@XZ 00000001400079c0 f i main.obj
 0001:00006a10       ??1system_error@std@@UEAA@XZ 0000000140007a10 f i main.obj
 0001:00006a30       ??2@YAPEAX_KPEAX@Z         0000000140007a30 f i main.obj
 0001:00006a40       ??2_Crt_new_delete@std@@SAPEAX_K@Z 0000000140007a40 f i main.obj
 0001:00006a80       ??2_Crt_new_delete@std@@SAPEAX_KAEBUnothrow_t@1@@Z 0000000140007a80 f i main.obj
 0001:00006ad0       ??3_Crt_new_delete@std@@SAXPEAX@Z 0000000140007ad0 f i main.obj
 0001:00006af0       ??8error_category@std@@QEBA_NAEBV01@@Z 0000000140007af0 f i main.obj
 0001:00006b30       ??8std@@YA_NAEBVerror_condition@0@0@Z 0000000140007b30 f i main.obj
 0001:00006bb0       ??Bid@locale@std@@QEAA_KXZ 0000000140007bb0 f i main.obj
 0001:00006c10       ??Bsentry@?$basic_ostream@DU?$char_traits@D@std@@@std@@QEBA_NXZ 0000000140007c10 f i main.obj
 0001:00006c10       ??Bsentry@?$basic_istream@DU?$char_traits@D@std@@@std@@QEBA_NXZ 0000000140007c10 f i main.obj
 0001:00006c20       ??R<lambda_65e615be2a453ca0576c979606f46740>@@QEBA@QEADQEBD_K12@Z 0000000140007c20 f i main.obj
 0001:00006ca0       ??R<lambda_66f57f934f28d61049862f64df852ff0>@@QEBA@QEAD_KQEBD@Z 0000000140007ca0 f i main.obj
 0001:00006d00       ??R?$default_delete@V_Facet_base@std@@@std@@QEBAXPEAV_Facet_base@1@@Z 0000000140007d00 f i main.obj
 0001:00006d50       ??_E?$ctype@D@std@@MEAAPEAXI@Z 0000000140007d50 f i main.obj
 0001:00006d50       ??_G?$ctype@D@std@@MEAAPEAXI@Z 0000000140007d50 f i main.obj
 0001:00006db0       ??_G_Facet_base@std@@UEAAPEAXI@Z 0000000140007db0 f i main.obj
 0001:00006db0       ??_E_Facet_base@std@@UEAAPEAXI@Z 0000000140007db0 f i main.obj
 0001:00006df0       ??_G_Iostream_error_category2@std@@UEAAPEAXI@Z 0000000140007df0 f i main.obj
 0001:00006df0       ??_E_Iostream_error_category2@std@@UEAAPEAXI@Z 0000000140007df0 f i main.obj
 0001:00006e30       ??_G_System_error@std@@UEAAPEAXI@Z 0000000140007e30 f i main.obj
 0001:00006e30       ??_E_System_error@std@@UEAAPEAXI@Z 0000000140007e30 f i main.obj
 0001:00006e70       ??_Eruntime_error@std@@UEAAPEAXI@Z 0000000140007e70 f i main.obj
 0001:00006e70       ??_Gbad_exception@std@@UEAAPEAXI@Z 0000000140007e70 f i libvcruntimed:frame.obj
 0001:00006e70       ??_Gruntime_error@std@@UEAAPEAXI@Z 0000000140007e70 f i main.obj
 0001:00006e70       ??_Ebad_alloc@std@@UEAAPEAXI@Z 0000000140007e70 f i main.obj
 0001:00006e70       ??_Gbad_cast@std@@UEAAPEAXI@Z 0000000140007e70 f i main.obj
 0001:00006e70       ??_Ebad_exception@std@@UEAAPEAXI@Z 0000000140007e70 f i libvcruntimed:frame.obj
 0001:00006e70       ??_Glogic_error@std@@UEAAPEAXI@Z 0000000140007e70 f i libcpmtd:xthrow.obj
 0001:00006e70       ??_Gbad_alloc@std@@UEAAPEAXI@Z 0000000140007e70 f i main.obj
 0001:00006e70       ??_Ebad_cast@std@@UEAAPEAXI@Z 0000000140007e70 f i main.obj
 0001:00006e70       ??_Elogic_error@std@@UEAAPEAXI@Z 0000000140007e70 f i libcpmtd:xthrow.obj
 0001:00006eb0       ??_Elength_error@std@@UEAAPEAXI@Z 0000000140007eb0 f i libcpmtd:xthrow.obj
 0001:00006eb0       ??_Eout_of_range@std@@UEAAPEAXI@Z 0000000140007eb0 f i libcpmtd:xthrow.obj
 0001:00006eb0       ??_Ebad_array_new_length@std@@UEAAPEAXI@Z 0000000140007eb0 f i main.obj
 0001:00006eb0       ??_Gbad_array_new_length@std@@UEAAPEAXI@Z 0000000140007eb0 f i main.obj
 0001:00006eb0       ??_Gout_of_range@std@@UEAAPEAXI@Z 0000000140007eb0 f i libcpmtd:xthrow.obj
 0001:00006eb0       ??_Glength_error@std@@UEAAPEAXI@Z 0000000140007eb0 f i libcpmtd:xthrow.obj
 0001:00006ef0       ??_Ectype_base@std@@UEAAPEAXI@Z 0000000140007ef0 f i main.obj
 0001:00006ef0       ??_Gctype_base@std@@UEAAPEAXI@Z 0000000140007ef0 f i main.obj
 0001:00006f50       ??_Gexception@std@@UEAAPEAXI@Z 0000000140007f50 f i main.obj
 0001:00006f50       ??_Eexception@std@@UEAAPEAXI@Z 0000000140007f50 f i main.obj
 0001:00006f90       ??_Gfacet@locale@std@@MEAAPEAXI@Z 0000000140007f90 f i main.obj
 0001:00006f90       ??_Efacet@locale@std@@MEAAPEAXI@Z 0000000140007f90 f i main.obj
 0001:00006ff0       ??_Gfailure@ios_base@std@@UEAAPEAXI@Z 0000000140007ff0 f i main.obj
 0001:00006ff0       ??_Efailure@ios_base@std@@UEAAPEAXI@Z 0000000140007ff0 f i main.obj
 0001:00007030       ??_Gsystem_error@std@@UEAAPEAXI@Z 0000000140008030 f i main.obj
 0001:00007030       ??_Esystem_error@std@@UEAAPEAXI@Z 0000000140008030 f i main.obj
 0001:00007070       ?_Adjust_manually_vector_aligned@std@@YAXAEAPEAXAEA_K@Z 0000000140008070 f i main.obj
 0001:00007200       ?_Allocate@_Default_allocate_traits@std@@SAPEAX_K@Z 0000000140008200 f i main.obj
 0001:00007220       ?_Calculate_growth@?$basic_string@DU?$char_traits@D@std@@V?$allocator@D@2@@std@@AEBA_K_K@Z 0000000140008220 f i main.obj
 0001:00007260       ?_Calculate_growth@?$basic_string@DU?$char_traits@D@std@@V?$allocator@D@2@@std@@CA_K_K00@Z 0000000140008260 f i main.obj
 0001:00007300       ?_Construct_lv_contents@?$basic_string@DU?$char_traits@D@std@@V?$allocator@D@2@@std@@AEAAXAEBV12@@Z 0000000140008300 f i main.obj
 0001:00007480       ?_Decref@facet@locale@std@@UEAAPEAV_Facet_base@3@XZ 0000000140008480 f i main.obj
 0001:000074b0       ?_Getal@?$basic_string@DU?$char_traits@D@std@@V?$allocator@D@2@@std@@AEAAAEAV?$allocator@D@2@XZ 00000001400084b0 f i main.obj
 0001:000074b0       ?_Getal@?$basic_string@DU?$char_traits@D@std@@V?$allocator@D@2@@std@@AEBAAEBV?$allocator@D@2@XZ 00000001400084b0 f i main.obj
 0001:000074d0       ?_Getcat@?$ctype@D@std@@SA_KPEAPEBVfacet@locale@2@PEBV42@@Z 00000001400084d0 f i main.obj
 0001:000075c0       ?_Getctype@_Locinfo@std@@QEBA?AU_Ctypevec@@XZ 00000001400085c0 f i main.obj
 0001:00007620       ?_Getfacet@locale@std@@QEBAPEBVfacet@12@_K@Z 0000000140008620 f i main.obj
 0001:000076d0       ?_Gnavail@?$basic_streambuf@DU?$char_traits@D@std@@@std@@IEBA_JXZ 00000001400086d0 f i main.obj
 0001:00007710       ?_Gninc@?$basic_streambuf@DU?$char_traits@D@std@@@std@@IEAAPEADXZ 0000000140008710 f i main.obj
 0001:00007770       ?_Gnpreinc@?$basic_streambuf@DU?$char_traits@D@std@@@std@@IEAAPEADXZ 0000000140008770 f i main.obj
 0001:000077c0       ?_Incref@facet@locale@std@@UEAAXXZ 00000001400087c0 f i main.obj
 0001:000077e0       ?_Init@?$ctype@D@std@@IEAAXAEBV_Locinfo@2@@Z 00000001400087e0 f i main.obj
 0001:00007820       ?_Ipfx@?$basic_istream@DU?$char_traits@D@std@@@std@@QEAA_N_N@Z 0000000140008820 f i main.obj
 0001:00007ab0       ?_Large_string_engaged@?$_String_val@U?$_Simple_types@D@std@@@std@@QEBA_NXZ 0000000140008ab0 f i main.obj
 0001:00007ae0       ?_Makestr@_System_error@std@@CA?AV?$basic_string@DU?$char_traits@D@std@@V?$allocator@D@2@@2@Verror_code@2@V32@@Z 0000000140008ae0 f i main.obj
 0001:00007ba0       ?_Memcpy_val_from@?$basic_string@DU?$char_traits@D@std@@V?$allocator@D@2@@std@@AEAAXAEBV12@@Z 0000000140008ba0 f i main.obj
 0001:00007c00       ?_Myptr@?$_String_val@U?$_Simple_types@D@std@@@std@@QEBAPEBDXZ 0000000140008c00 f i main.obj
 0001:00007c00       ?_Myptr@?$_String_val@U?$_Simple_types@D@std@@@std@@QEAAPEADXZ 0000000140008c00 f i main.obj
 0001:00007c50       ?_Orphan_all@_Container_base12@std@@QEAAXXZ 0000000140008c50 f i main.obj
 0001:00007c70       ?_Orphan_all_locked_v3@_Container_base12@std@@AEAAXXZ 0000000140008c70 f i main.obj
 0001:00007cb0       ?_Orphan_all_unlocked_v3@_Container_base12@std@@AEAAXXZ 0000000140008cb0 f i main.obj
 0001:00007d20       ?_Osfx@?$basic_ostream@DU?$char_traits@D@std@@@std@@QEAAXXZ 0000000140008d20 f i main.obj
 0001:00007df0       ?_Pnavail@?$basic_streambuf@DU?$char_traits@D@std@@@std@@IEBA_JXZ 0000000140008df0 f i main.obj
 0001:00007e30       ?_Pninc@?$basic_streambuf@DU?$char_traits@D@std@@@std@@IEAAPEADXZ 0000000140008e30 f i main.obj
 0001:00007e90       ?_Release@_Basic_container_proxy_ptr12@std@@QEAAXXZ 0000000140008e90 f i main.obj
 0001:00007eb0       ?_Swap_proxy_and_iterators@?$basic_string@DU?$char_traits@D@std@@V?$allocator@D@2@@std@@AEAAXAEAV12@@Z 0000000140008eb0 f i main.obj
 0001:00007ee0       ?_Swap_proxy_and_iterators@_Container_base12@std@@QEAAXAEAU12@@Z 0000000140008ee0 f i main.obj
 0001:00007f10       ?_Swap_proxy_and_iterators_locked@_Container_base12@std@@AEAAXAEAU12@@Z 0000000140008f10 f i main.obj
 0001:00007f50       ?_Swap_proxy_and_iterators_unlocked@_Container_base12@std@@AEAAXAEAU12@@Z 0000000140008f50 f i main.obj
 0001:00007fd0       ?_Take_contents@?$basic_string@DU?$char_traits@D@std@@V?$allocator@D@2@@std@@AEAAXAEAV12@@Z 0000000140008fd0 f i main.obj
 0001:00008100       ?__scrt_throw_std_bad_array_new_length@@YAXXZ 0000000140009100 f i LIBCMTD:throw_bad_alloc.obj
 0001:00008100       ?_Throw_bad_array_new_length@std@@YAXXZ 0000000140009100 f i main.obj
 0001:00008130       ?_Throw_bad_cast@std@@YAXXZ 0000000140009130 f i main.obj
 0001:00008160       ?_Tidy@?$_Yarn@_W@std@@AEAAXXZ 0000000140009160 f i main.obj
 0001:00008160       ?_Tidy@?$_Yarn@D@std@@AEAAXXZ 0000000140009160 f i main.obj
 0001:000081a0       ?_Tidy@?$ctype@D@std@@IEAAXXZ 00000001400091a0 f i main.obj
 0001:00008200       ?_Tidy_deallocate@?$basic_string@DU?$char_traits@D@std@@V?$allocator@D@2@@std@@AEAAXXZ 0000000140009200 f i main.obj
 0001:000082c0       ?_Tidy_init@?$basic_string@DU?$char_traits@D@std@@V?$allocator@D@2@@std@@AEAAXXZ 00000001400092c0 f i main.obj
 0001:00008320       ?_Xlen_string@std@@YAXXZ   0000000140009320 f i main.obj
 0001:00008340       ?imbue@?$basic_streambuf@DU?$char_traits@D@std@@@std@@MEAAXAEBVlocale@2@@Z 0000000140009340 f i libcpmtd:cin.obj
 0001:00008340       ?deallocate@__crt_win32_buffer_no_resizing@@SAXQEAXAEBV__crt_win32_buffer_empty_debug_info@@@Z 0000000140009340 f i libucrtd:strftime.obj
 0001:00008340       ?_Init@?$codecvt@DDU_Mbstatet@@@std@@IEAAXAEBV_Locinfo@2@@Z 0000000140009340 f i libcpmtd:cin.obj
 0001:00008340       ?__global_delete@@YAXPEAX_K@Z 0000000140009340 f i main.obj
 0001:00008340       ?__empty_global_delete@@YAXPEAX_K@Z 0000000140009340 f i main.obj
 0001:00008350       ?allocate@?$allocator@D@std@@QEAAPEAD_K@Z 0000000140009350 f i main.obj
 0001:00008380       ?allocate@?$allocator@U_Container_proxy@std@@@std@@QEAAPEAU_Container_proxy@2@_K@Z 0000000140009380 f i main.obj
 0001:000083b0       ?append@?$basic_string@DU?$char_traits@D@std@@V?$allocator@D@2@@std@@QEAAAEAV12@AEBV12@@Z 00000001400093b0 f i main.obj
 0001:000083f0       ?append@?$basic_string@DU?$char_traits@D@std@@V?$allocator@D@2@@std@@QEAAAEAV12@QEBD@Z 00000001400093f0 f i main.obj
 0001:00008430       ?append@?$basic_string@DU?$char_traits@D@std@@V?$allocator@D@2@@std@@QEAAAEAV12@QEBD_K@Z 0000000140009430 f i main.obj
 0001:00008530       ?assign@?$_Narrow_char_traits@DH@std@@SAXAEADAEBD@Z 0000000140009530 f i main.obj
 0001:00008550       ?assign@?$basic_string@DU?$char_traits@D@std@@V?$allocator@D@2@@std@@QEAAAEAV12@QEBD@Z 0000000140009550 f i main.obj
 0001:00008590       ?assign@?$basic_string@DU?$char_traits@D@std@@V?$allocator@D@2@@std@@QEAAAEAV12@QEBD_K@Z 0000000140009590 f i main.obj
 0001:00008650       ?_C_str@?$_Yarn@D@std@@QEBAPEBDXZ 0000000140009650 f i libcpmtd:locale0.obj
 0001:00008650       ?c_str@?$_Yarn@D@std@@QEBAPEBDXZ 0000000140009650 f i main.obj
 0001:00008690       ?data@?$basic_string@DU?$char_traits@D@std@@V?$allocator@D@2@@std@@QEAAPEADXZ 0000000140009690 f i libcpmtd:cin.obj
 0001:00008690       ?c_str@?$basic_string@DU?$char_traits@D@std@@V?$allocator@D@2@@std@@QEBAPEBDXZ 0000000140009690 f i main.obj
 0001:000086b0       ?c_str@locale@std@@QEBAPEBDXZ 00000001400096b0 f i main.obj
 0001:00008700       ?category@error_code@std@@QEBAAEBVerror_category@2@XZ 0000000140009700 f i main.obj
 0001:00008700       ?category@error_condition@std@@QEBAAEBVerror_category@2@XZ 0000000140009700 f i main.obj
 0001:00008710       ?clear@?$basic_ios@DU?$char_traits@D@std@@@std@@QEAAXH_N@Z 0000000140009710 f i main.obj
 0001:00008770       ?clear@ios_base@std@@QEAAXH_N@Z 0000000140009770 f i main.obj
 0001:00008860       ?copy@?$_Char_traits@DH@std@@SAPEADQEADQEBD_K@Z 0000000140009860 f i main.obj
 0001:00008890       ?deallocate@?$_Default_allocator_traits@V?$allocator@U_Container_proxy@std@@@std@@@std@@SAXAEAV?$allocator@U_Container_proxy@std@@@2@QEAU_Container_proxy@2@_K@Z 0000000140009890 f i main.obj
 0001:000088c0       ?deallocate@?$allocator@D@std@@QEAAXQEAD_K@Z 00000001400098c0 f i main.obj
 0001:000088f0       ?default_error_condition@error_category@std@@UEBA?AVerror_condition@2@H@Z 00000001400098f0 f i main.obj
 0001:00008920       ?do_narrow@?$ctype@D@std@@MEBADDD@Z 0000000140009920 f i main.obj
 0001:00008940       ?do_narrow@?$ctype@D@std@@MEBAPEBDPEBD0DPEAD@Z 0000000140009940 f i main.obj
 0001:000089a0       ?do_tolower@?$ctype@D@std@@MEBADD@Z 00000001400099a0 f i main.obj
 0001:000089d0       ?do_tolower@?$ctype@D@std@@MEBAPEBDPEADPEBD@Z 00000001400099d0 f i main.obj
 0001:00008a40       ?do_toupper@?$ctype@D@std@@MEBADD@Z 0000000140009a40 f i main.obj
 0001:00008a70       ?do_toupper@?$ctype@D@std@@MEBAPEBDPEADPEBD@Z 0000000140009a70 f i main.obj
 0001:00008ae0       ?do_widen@?$ctype@D@std@@MEBADD@Z 0000000140009ae0 f i main.obj
 0001:00008af0       ?do_widen@?$ctype@D@std@@MEBAPEBDPEBD0PEAD@Z 0000000140009af0 f i main.obj
 0001:00008b50       ?empty@?$basic_string@DU?$char_traits@D@std@@V?$allocator@D@2@@std@@QEBA_NXZ 0000000140009b50 f i main.obj
 0001:00008b90       ?eof@?$_Narrow_char_traits@DH@std@@SAHXZ 0000000140009b90 f i main.obj
 0001:00008ba0       ?eq_int_type@?$_Narrow_char_traits@DH@std@@SA_NAEBH0@Z 0000000140009ba0 f i main.obj
 0001:00008be0       ?equivalent@error_category@std@@UEBA_NAEBVerror_code@2@H@Z 0000000140009be0 f i main.obj
 0001:00008c40       ?equivalent@error_category@std@@UEBA_NHAEBVerror_condition@2@@Z 0000000140009c40 f i main.obj
 0001:00008c80       ?fill@?$basic_ios@DU?$char_traits@D@std@@@std@@QEBADXZ 0000000140009c80 f i main.obj
 0001:00008c90       ?flags@ios_base@std@@QEBAHXZ 0000000140009c90 f i main.obj
 0001:00008ca0       ?flush@?$basic_ostream@DU?$char_traits@D@std@@@std@@QEAAAEAV12@XZ 0000000140009ca0 f i main.obj
 0001:00008d50       ?getloc@ios_base@std@@QEBA?AVlocale@2@XZ 0000000140009d50 f i main.obj
 0001:00008d90       ?good@ios_base@std@@QEBA_NXZ 0000000140009d90 f i main.obj
 0001:00008dd0       ?gptr@?$basic_streambuf@DU?$char_traits@D@std@@@std@@IEBAPEADXZ 0000000140009dd0 f i main.obj
 0001:00008df0       ?iostream_category@std@@YAAEBVerror_category@1@XZ 0000000140009df0 f i main.obj
 0001:00008e00       ?is@?$ctype@D@std@@QEBA_NFD@Z 0000000140009e00 f i main.obj
 0001:00008e50       ?length@?$_Narrow_char_traits@DH@std@@SA_KQEBD@Z 0000000140009e50 f i main.obj
 0001:00008e90       ?make_error_code@std@@YA?AVerror_code@1@W4io_errc@1@@Z 0000000140009e90 f i main.obj
 0001:00008ec0       ?max@?$numeric_limits@_J@std@@SA_JXZ 0000000140009ec0 f i main.obj
 0001:00008ed0       ?max_size@?$_Default_allocator_traits@V?$allocator@D@std@@@std@@SA_KAEBV?$allocator@D@2@@Z 0000000140009ed0 f i main.obj
 0001:00008ee0       ?max_size@?$basic_string@DU?$char_traits@D@std@@V?$allocator@D@2@@std@@QEBA_KXZ 0000000140009ee0 f i main.obj
 0001:00008f50       ?message@_Iostream_error_category2@std@@UEBA?AV?$basic_string@DU?$char_traits@D@std@@V?$allocator@D@2@@2@H@Z 0000000140009f50 f i main.obj
 0001:00008fe0       ?message@error_code@std@@QEBA?AV?$basic_string@DU?$char_traits@D@std@@V?$allocator@D@2@@2@XZ 0000000140009fe0 f i main.obj
 0001:00009050       ?move@?$_Char_traits@DH@std@@SAPEADQEADQEBD_K@Z 000000014000a050 f i main.obj
 0001:00009090       ?name@_Iostream_error_category2@std@@UEBAPEBDXZ 000000014000a090 f i main.obj
 0001:000090a0       ?pubsync@?$basic_streambuf@DU?$char_traits@D@std@@@std@@QEAAHXZ 000000014000a0a0 f i main.obj
 0001:000090c0       ?rdbuf@?$basic_ios@DU?$char_traits@D@std@@@std@@QEBAPEAV?$basic_streambuf@DU?$char_traits@D@std@@@2@XZ 000000014000a0c0 f i main.obj
 0001:000090d0       ?rdstate@ios_base@std@@QEBAHXZ 000000014000a0d0 f i main.obj
 0001:000090e0       ?release@?$unique_ptr@V_Facet_base@std@@U?$default_delete@V_Facet_base@std@@@2@@std@@QEAAPEAV_Facet_base@2@XZ 000000014000a0e0 f i main.obj
 0001:00009110       ?sbumpc@?$basic_streambuf@DU?$char_traits@D@std@@@std@@QEAAHXZ 000000014000a110 f i main.obj
 0001:00009160       ?setstate@?$basic_ios@DU?$char_traits@D@std@@@std@@QEAAXH_N@Z 000000014000a160 f i main.obj
 0001:000091a0       ?sgetc@?$basic_streambuf@DU?$char_traits@D@std@@@std@@QEAAHXZ 000000014000a1a0 f i main.obj
 0001:000091f0       ?capacity@?$__crt_win32_buffer@DU__crt_win32_buffer_internal_dynamic_resizing@@@@QEBA_KXZ 000000014000a1f0 f i libucrtd:argv_wildcards.obj
 0001:000091f0       ?capacity@?$__crt_win32_buffer@_WU__crt_win32_buffer_internal_dynamic_resizing@@@@QEBA_KXZ 000000014000a1f0 f i libucrtd:strftime.obj
 0001:000091f0       ?size@?$basic_string@DU?$char_traits@D@std@@V?$allocator@D@2@@std@@QEBA_KXZ 000000014000a1f0 f i main.obj
 0001:000091f0       ?capacity@?$__crt_win32_buffer@DU__crt_win32_buffer_no_resizing@@@@QEBA_KXZ 000000014000a1f0 f i libucrtd:strftime.obj
 0001:00009200       ?snextc@?$basic_streambuf@DU?$char_traits@D@std@@@std@@QEAAHXZ 000000014000a200 f i main.obj
 0001:00009290       ?sputc@?$basic_streambuf@DU?$char_traits@D@std@@@std@@QEAAHD@Z 000000014000a290 f i main.obj
 0001:00009310       ?sputn@?$basic_streambuf@DU?$char_traits@D@std@@@std@@QEAA_JPEBD_J@Z 000000014000a310 f i main.obj
 0001:00009350       ?tie@?$basic_ios@DU?$char_traits@D@std@@@std@@QEBAPEAV?$basic_ostream@DU?$char_traits@D@std@@@2@XZ 000000014000a350 f i main.obj
 0001:00009360       ?to_int_type@?$_Narrow_char_traits@DH@std@@SAHAEBD@Z 000000014000a360 f i main.obj
 0001:00009360       ?to_char_type@?$_Narrow_char_traits@DH@std@@SADAEBH@Z 000000014000a360 f i main.obj
 0001:00009370       ?value@error_condition@std@@QEBAHXZ 000000014000a370 f i main.obj
 0001:00009370       ?value@error_code@std@@QEBAHXZ 000000014000a370 f i main.obj
 0001:00009370       ?getNumTryBlocks@TryBlockMap4@FH4@@QEAAIXZ 000000014000a370 f i libvcruntimed:frame.obj
 0001:00009380       ?what@exception@std@@UEBAPEBDXZ 000000014000a380 f i main.obj
 0001:000093c0       ?width@ios_base@std@@QEAA_J_J@Z 000000014000a3c0 f i main.obj
 0001:00009400       ?width@ios_base@std@@QEBA_JXZ 000000014000a400 f i main.obj
 0001:00009410       ??0_Init_locks@std@@QEAA@XZ 000000014000a410 f   libcpmtd:xlock.obj
 0001:000094a0       ??0_Lockit@std@@QEAA@H@Z   000000014000a4a0 f   libcpmtd:xlock.obj
 0001:00009500       ??1_Init_locks@std@@QEAA@XZ 000000014000a500 f   libcpmtd:xlock.obj
 0001:00009580       ??1_Lockit@std@@QEAA@XZ    000000014000a580 f   libcpmtd:xlock.obj
 0001:000095d0       ??0bad_alloc@std@@QEAA@XZ  000000014000a5d0 f i libcpmtd:xthrow.obj
 0001:00009610       ??0length_error@std@@QEAA@AEBV01@@Z 000000014000a610 f i libcpmtd:xthrow.obj
 0001:00009650       ??0length_error@std@@QEAA@PEBD@Z 000000014000a650 f i libcpmtd:xthrow.obj
 0001:00009690       ??0logic_error@std@@QEAA@AEBV01@@Z 000000014000a690 f i libcpmtd:xthrow.obj
 0001:000096d0       ??0logic_error@std@@QEAA@PEBD@Z 000000014000a6d0 f i libcpmtd:xthrow.obj
 0001:00009710       ??0out_of_range@std@@QEAA@AEBV01@@Z 000000014000a710 f i libcpmtd:xthrow.obj
 0001:00009750       ??0out_of_range@std@@QEAA@PEBD@Z 000000014000a750 f i libcpmtd:xthrow.obj
 0001:00009790       ??0runtime_error@std@@QEAA@PEBD@Z 000000014000a790 f i libcpmtd:xthrow.obj
 0001:000097d0       ?__scrt_throw_std_bad_alloc@@YAXXZ 000000014000a7d0 f   LIBCMTD:throw_bad_alloc.obj
 0001:000097d0       ?_Xbad_alloc@std@@YAXXZ    000000014000a7d0 f   libcpmtd:xthrow.obj
 0001:00009800       ?_Xlength_error@std@@YAXPEBD@Z 000000014000a800 f   libcpmtd:xthrow.obj
 0001:00009830       ?_Xout_of_range@std@@YAXPEBD@Z 000000014000a830 f   libcpmtd:xthrow.obj
 0001:00009860       ?_Xruntime_error@std@@YAXPEBD@Z 000000014000a860 f   libcpmtd:xthrow.obj
 0001:00009890       ?uncaught_exception@std@@YA_NXZ 000000014000a890 f   libcpmtd:uncaught_exception.obj
 0001:000098a0       ?_Syserror_map@std@@YAPEBDH@Z 000000014000a8a0 f   libcpmtd:syserror.obj
 0001:00009920       ??0?$_Yarn@D@std@@QEAA@PEBD@Z 000000014000a920 f i libcpmtd:locale0.obj
 0001:00009960       ??0TryBlockMap@__FrameHandler3@@QEAA@PEBU_s_FuncInfo@@_K@Z 000000014000a960 f i libvcruntimed:frame.obj
 0001:00009960       ??0iterator@UWMap4@FH4@@QEAA@AEAV12@PEAE@Z 000000014000a960 f i libvcruntimed:frame.obj
 0001:00009960       ??0_Fac_node@std@@QEAA@PEAU01@PEAV_Facet_base@1@@Z 000000014000a960 f i libcpmtd:locale0.obj
 0001:00009990       ??0_Locimp@locale@std@@AEAA@_N@Z 000000014000a990 f i libcpmtd:locale0.obj
 0001:00009a20       ??0locale@std@@AEAA@PEAV_Locimp@01@@Z 000000014000aa20 f i libcpmtd:locale0.obj
 0001:00009a40       ??0locale@std@@QEAA@W4_Uninitialized@1@@Z 000000014000aa40 f i libcpmtd:locale0.obj
 0001:00009a50       ??1_Fac_node@std@@QEAA@XZ  000000014000aa50 f i libcpmtd:locale0.obj
 0001:00009ae0       ??1_Fac_tidy_reg_t@std@@QEAA@XZ 000000014000aae0 f i libcpmtd:locale0.obj
 0001:00009b50       ??1_Locimp@locale@std@@MEAA@XZ 000000014000ab50 f i libcpmtd:locale0.obj
 0001:00009ba0       ??2_Fac_node@std@@SAPEAX_K@Z 000000014000aba0 f i libcpmtd:locale0.obj
 0001:00009c00       ??3_Fac_node@std@@SAXPEAX@Z 000000014000ac00 f i libcpmtd:locale0.obj
 0001:00009c20       ??4?$_Yarn@D@std@@QEAAAEAV01@PEBD@Z 000000014000ac20 f i libcpmtd:locale0.obj
 0001:00009cf0       ??_G_Fac_node@std@@QEAAPEAXI@Z 000000014000acf0 f i libcpmtd:locale0.obj
 0001:00009d50       ??_E_Locimp@locale@std@@MEAAPEAXI@Z 000000014000ad50 f i libcpmtd:locale0.obj
 0001:00009d50       ??_G_Locimp@locale@std@@MEAAPEAXI@Z 000000014000ad50 f i libcpmtd:locale0.obj
 0001:00009db0       ?_Empty@?$_Yarn@D@std@@QEBA_NXZ 000000014000adb0 f i libcpmtd:locale0.obj
 0001:00009de0       ?_Facet_Register@std@@YAXPEAV_Facet_base@1@@Z 000000014000ade0 f   libcpmtd:locale0.obj
 0001:00009e50       ?_Getgloballocale@locale@std@@CAPEAV_Locimp@12@XZ 000000014000ae50 f   libcpmtd:locale0.obj
 0001:00009e60       ?_Init@locale@std@@CAPEAV_Locimp@12@_N@Z 000000014000ae60 f   libcpmtd:locale0.obj
 0001:00009f70       ?_Locimp_dtor@_Locimp@locale@std@@CAXPEAV123@@Z 000000014000af70 f   libcpmtd:locale0.obj
 0001:0000a070       ?_Locinfo_ctor@_Locinfo@std@@SAXPEAV12@PEBD@Z 000000014000b070 f   libcpmtd:locale0.obj
 0001:0000a120       ?_Locinfo_dtor@_Locinfo@std@@SAXPEAV12@@Z 000000014000b120 f   libcpmtd:locale0.obj
 0001:0000a170       ?_New_Locimp@_Locimp@locale@std@@CAPEAV123@_N@Z 000000014000b170 f   libcpmtd:locale0.obj
 0001:0000a1d0       ?_Setgloballocale@locale@std@@CAXPEAX@Z 000000014000b1d0 f   libcpmtd:locale0.obj
 0001:0000a210       _Deletegloballocale        000000014000b210 f   libcpmtd:locale0.obj
 0001:0000a2e0       _Getctype                  000000014000b2e0 f   libcpmtd:_tolower.obj
 0001:0000a3c0       _Tolower                   000000014000b3c0 f   libcpmtd:_tolower.obj
 0001:0000a660       _Toupper                   000000014000b660 f   libcpmtd:_toupper.obj
 0001:0000a900       ??$_Fgetc@D@std@@YA_NAEADPEAU_iobuf@@@Z 000000014000b900 f i libcpmtd:cin.obj
 0001:0000a940       ??$_Fputc@D@std@@YA_NDPEAU_iobuf@@@Z 000000014000b940 f i libcpmtd:cin.obj
 0001:0000a980       ??$_Reallocate_grow_by@V<lambda_1>@?1??push_back@?$basic_string@DU?$char_traits@D@std@@V?$allocator@D@2@@std@@QEAAXD@Z@D@?$basic_string@DU?$char_traits@D@std@@V?$allocator@D@2@@std@@AEAAAEAV01@_KV<lambda_1>@?1??push_back@01@QEAAXD@Z@D@Z 000000014000b980 f i libcpmtd:cin.obj
 0001:0000ab70       ??$_Ungetc@D@std@@YA_NAEBDPEAU_iobuf@@@Z 000000014000bb70 f i libcpmtd:cin.obj
 0001:0000abc0       ??$construct_at@DAEBDX@std@@YAPEADQEADAEBD@Z 000000014000bbc0 f i libcpmtd:cin.obj
 0001:0000ac10       ??$min@_J@std@@YAAEB_JAEB_J0@Z 000000014000bc10 f i libcpmtd:cin.obj
 0001:0000ac60       ??$use_facet@V?$codecvt@DDU_Mbstatet@@@std@@@std@@YAAEBV?$codecvt@DDU_Mbstatet@@@0@AEBVlocale@0@@Z 000000014000bc60 f i libcpmtd:cin.obj
 0001:0000ad80       ??0?$basic_filebuf@DU?$char_traits@D@std@@@std@@QEAA@QEAU_iobuf@@@Z 000000014000bd80 f i libcpmtd:cin.obj
 0001:0000add0       ??0?$basic_ios@DU?$char_traits@D@std@@@std@@IEAA@XZ 000000014000bdd0 f i libcpmtd:cin.obj
 0001:0000ae00       ??0?$basic_istream@DU?$char_traits@D@std@@@std@@QEAA@PEAV?$basic_streambuf@DU?$char_traits@D@std@@@1@_N@Z 000000014000be00 f i libcpmtd:cin.obj
 0001:0000aee0       ??0?$basic_streambuf@DU?$char_traits@D@std@@@std@@IEAA@XZ 000000014000bee0 f i libcpmtd:cin.obj
 0001:0000af50       ??0?$basic_string@DU?$char_traits@D@std@@V?$allocator@D@2@@std@@QEAA@XZ 000000014000bf50 f i libcpmtd:cin.obj
 0001:0000afc0       ??0?$codecvt@DDU_Mbstatet@@@std@@QEAA@AEBV_Locinfo@1@_K@Z 000000014000bfc0 f i libcpmtd:cin.obj
 0001:0000b010       ??0?$fpos@U_Mbstatet@@@std@@QEAA@U_Mbstatet@@_J@Z 000000014000c010 f i libcpmtd:cin.obj
 0001:0000b050       ??0?$fpos@U_Mbstatet@@@std@@QEAA@_J@Z 000000014000c050 f i libcpmtd:cin.obj
 0001:0000b0a0       ??0_Init_cin@std@@QEAA@XZ  000000014000c0a0 f i libcpmtd:cin.obj
 0001:0000b0f0       ??0codecvt_base@std@@QEAA@_K@Z 000000014000c0f0 f i libcpmtd:cin.obj
 0001:0000b130       ??0ios_base@std@@IEAA@XZ   000000014000c130 f i libcpmtd:cin.obj
 0001:0000b180       ??0locale@std@@QEAA@XZ     000000014000c180 f i libcpmtd:cin.obj
 0001:0000b1b0       ??1?$basic_filebuf@DU?$char_traits@D@std@@@std@@UEAA@XZ 000000014000c1b0 f i libcpmtd:cin.obj
 0001:0000b210       ??1?$basic_ios@DU?$char_traits@D@std@@@std@@UEAA@XZ 000000014000c210 f i libcpmtd:cin.obj
 0001:0000b240       ??1?$basic_istream@DU?$char_traits@D@std@@@std@@UEAA@XZ 000000014000c240 f i libcpmtd:cin.obj
 0001:0000b290       ??1?$basic_streambuf@DU?$char_traits@D@std@@@std@@UEAA@XZ 000000014000c290 f i libcpmtd:cin.obj
 0001:0000b2f0       ??1?$codecvt@DDU_Mbstatet@@@std@@MEAA@XZ 000000014000c2f0 f i libcpmtd:cin.obj
 0001:0000b320       ??1codecvt_base@std@@UEAA@XZ 000000014000c320 f i libcpmtd:cin.obj
 0001:0000b350       ??1ios_base@std@@UEAA@XZ   000000014000c350 f i libcpmtd:cin.obj
 0001:0000b380       ??B?$fpos@U_Mbstatet@@@std@@QEBA_JXZ 000000014000c380 f i libcpmtd:cin.obj
 0001:0000b3a0       ??R<lambda_1>@?1??push_back@?$basic_string@DU?$char_traits@D@std@@V?$allocator@D@2@@std@@QEAAXD@Z@QEBA@QEADQEBD_KD@Z 000000014000c3a0 f i libcpmtd:cin.obj
 0001:0000b410       ??_D?$basic_istream@DU?$char_traits@D@std@@@std@@QEAAXXZ 000000014000c410 f i libcpmtd:cin.obj
 0001:0000b440       ??_E?$basic_istream@DU?$char_traits@D@std@@@std@@$4PPPPPPPM@A@EAAPEAXI@Z 000000014000c440 f i libcpmtd:cin.obj
 0001:0000b450       ??_G?$basic_filebuf@DU?$char_traits@D@std@@@std@@UEAAPEAXI@Z 000000014000c450 f i libcpmtd:cin.obj
 0001:0000b450       ??_E?$basic_filebuf@DU?$char_traits@D@std@@@std@@UEAAPEAXI@Z 000000014000c450 f i libcpmtd:cin.obj
 0001:0000b490       ??_G?$basic_ios@DU?$char_traits@D@std@@@std@@UEAAPEAXI@Z 000000014000c490 f i libcpmtd:cin.obj
 0001:0000b490       ??_E?$basic_ios@DU?$char_traits@D@std@@@std@@UEAAPEAXI@Z 000000014000c490 f i libcpmtd:cin.obj
 0001:0000b4d0       ??_E?$basic_istream@DU?$char_traits@D@std@@@std@@UEAAPEAXI@Z 000000014000c4d0 f i libcpmtd:cin.obj
 0001:0000b4d0       ??_G?$basic_istream@DU?$char_traits@D@std@@@std@@UEAAPEAXI@Z 000000014000c4d0 f i libcpmtd:cin.obj
 0001:0000b520       ??_E?$basic_streambuf@DU?$char_traits@D@std@@@std@@UEAAPEAXI@Z 000000014000c520 f i libcpmtd:cin.obj
 0001:0000b520       ??_G?$basic_streambuf@DU?$char_traits@D@std@@@std@@UEAAPEAXI@Z 000000014000c520 f i libcpmtd:cin.obj
 0001:0000b560       ??_G?$codecvt@DDU_Mbstatet@@@std@@MEAAPEAXI@Z 000000014000c560 f i libcpmtd:cin.obj
 0001:0000b560       ??_E?$codecvt@DDU_Mbstatet@@@std@@MEAAPEAXI@Z 000000014000c560 f i libcpmtd:cin.obj
 0001:0000b5c0       ??_Gcodecvt_base@std@@UEAAPEAXI@Z 000000014000c5c0 f i libcpmtd:cin.obj
 0001:0000b5c0       ??_Ecodecvt_base@std@@UEAAPEAXI@Z 000000014000c5c0 f i libcpmtd:cin.obj
 0001:0000b620       ??_Gios_base@std@@UEAAPEAXI@Z 000000014000c620 f i libcpmtd:cin.obj
 0001:0000b620       ??_Eios_base@std@@UEAAPEAXI@Z 000000014000c620 f i libcpmtd:cin.obj
 0001:0000b660       ??_Glocale@std@@QEAAPEAXI@Z 000000014000c660 f i libcpmtd:cin.obj
 0001:0000b6c0       ?_Check_offset@?$_String_val@U?$_Simple_types@D@std@@@std@@QEBAX_K@Z 000000014000c6c0 f i libcpmtd:cin.obj
 0001:0000b6f0       ?_Clamp_suffix_size@?$_String_val@U?$_Simple_types@D@std@@@std@@QEBA_K_K0@Z 000000014000c6f0 f i libcpmtd:cin.obj
 0001:0000b730       ?_Endwrite@?$basic_filebuf@DU?$char_traits@D@std@@@std@@IEAA_NXZ 000000014000c730 f i libcpmtd:cin.obj
 0001:0000b900       ?_Erase_noexcept@?$basic_string@DU?$char_traits@D@std@@V?$allocator@D@2@@std@@AEAAAEAV12@_K_K@Z 000000014000c900 f i libcpmtd:cin.obj
 0001:0000b9d0       ?_Getcat@?$codecvt@DDU_Mbstatet@@@std@@SA_KPEAPEBVfacet@locale@2@PEBV42@@Z 000000014000c9d0 f i libcpmtd:cin.obj
 0001:0000bad0       ?_Gndec@?$basic_streambuf@DU?$char_traits@D@std@@@std@@IEAAPEADXZ 000000014000cad0 f i libcpmtd:cin.obj
 0001:0000bb20       ?_Init@?$basic_filebuf@DU?$char_traits@D@std@@@std@@IEAAXPEAU_iobuf@@W4_Initfl@12@@Z 000000014000cb20 f i libcpmtd:cin.obj
 0001:0000bc50       ?_Init@?$basic_streambuf@DU?$char_traits@D@std@@@std@@IEAAXPEAPEAD0PEAH001@Z 000000014000cc50 f i libcpmtd:cin.obj
 0001:0000bcc0       ?_Init@?$basic_streambuf@DU?$char_traits@D@std@@@std@@IEAAXXZ 000000014000ccc0 f i libcpmtd:cin.obj
 0001:0000bd60       ?_Init@ios_base@std@@IEAAXXZ 000000014000cd60 f i libcpmtd:cin.obj
 0001:0000be20       ?_Initcvt@?$basic_filebuf@DU?$char_traits@D@std@@@std@@IEAAXAEBV?$codecvt@DDU_Mbstatet@@@2@@Z 000000014000ce20 f i libcpmtd:cin.obj
 0001:0000be70       ?_Lock@?$basic_filebuf@DU?$char_traits@D@std@@@std@@UEAAXXZ 000000014000ce70 f i libcpmtd:cin.obj
 0001:0000bea0       ?_Reset_back@?$basic_filebuf@DU?$char_traits@D@std@@@std@@AEAAXXZ 000000014000cea0 f i libcpmtd:cin.obj
 0001:0000bf00       ?_Set_back@?$basic_filebuf@DU?$char_traits@D@std@@@std@@AEAAXXZ 000000014000cf00 f i libcpmtd:cin.obj
 0001:0000bf80       ?_Unlock@?$basic_filebuf@DU?$char_traits@D@std@@@std@@UEAAXXZ 000000014000cf80 f i libcpmtd:cin.obj
 0001:0000bfb0       ?_Xran@?$_String_val@U?$_Simple_types@D@std@@@std@@SAXXZ 000000014000cfb0 f i libcpmtd:cin.obj
 0001:0000bfd0       ?always_noconv@codecvt_base@std@@QEBA_NXZ 000000014000cfd0 f i libcpmtd:cin.obj
 0001:0000c000       ?assign@?$_Char_traits@DH@std@@SAPEADQEAD_KD@Z 000000014000d000 f i libcpmtd:cin.obj
 0001:0000c0b0       ?assign@?$_Narrow_char_traits@DH@std@@SAPEADQEAD_KD@Z 000000014000d0b0 f i libcpmtd:cin.obj
 0001:0000c110       ?clear@ios_base@std@@QEAAXH@Z 000000014000d110 f i libcpmtd:cin.obj
 0001:0000c140       ?close@?$basic_filebuf@DU?$char_traits@D@std@@@std@@QEAAPEAV12@XZ 000000014000d140 f i libcpmtd:cin.obj
 0001:0000c1d0       ?validate_state_for_type_case_a@?$standard_base@_WV?$string_output_adapter@_W@__crt_stdio_output@@@__crt_stdio_output@@IEBA_NXZ 000000014000d1d0 f i libucrtd:output.obj
 0001:0000c1d0       ?should_format@?$standard_base@DV?$string_output_adapter@D@__crt_stdio_output@@@__crt_stdio_output@@IEAA_NXZ 000000014000d1d0 f i libucrtd:output.obj
 0001:0000c1d0       ?validate_and_update_state_at_beginning_of_format_character@?$standard_base@DV?$string_output_adapter@D@__crt_stdio_output@@@__crt_stdio_output@@IEAA_NXZ 000000014000d1d0 f i libucrtd:output.obj
 0001:0000c1d0       ?should_format@?$standard_base@_WV?$string_output_adapter@_W@__crt_stdio_output@@@__crt_stdio_output@@IEAA_NXZ 000000014000d1d0 f i libucrtd:output.obj
 0001:0000c1d0       ?do_always_noconv@?$codecvt@DDU_Mbstatet@@@std@@MEBA_NXZ 000000014000d1d0 f i libcpmtd:cin.obj
 0001:0000c1d0       ?validate_and_update_state_at_beginning_of_format_character@?$standard_base@_WV?$string_output_adapter@_W@__crt_stdio_output@@@__crt_stdio_output@@IEAA_NXZ 000000014000d1d0 f i libucrtd:output.obj
 0001:0000c1d0       ?validate_state_for_type_case_a@?$standard_base@DV?$string_output_adapter@D@__crt_stdio_output@@@__crt_stdio_output@@IEBA_NXZ 000000014000d1d0 f i libucrtd:output.obj
 0001:0000c1e0       ?should_skip_normal_state_processing@?$standard_base@_WV?$string_output_adapter@_W@__crt_stdio_output@@@__crt_stdio_output@@IEAA_NXZ 000000014000d1e0 f i libucrtd:output.obj
 0001:0000c1e0       ?should_skip_type_state_output@?$standard_base@_WV?$string_output_adapter@_W@__crt_stdio_output@@@__crt_stdio_output@@IEBA_NXZ 000000014000d1e0 f i libucrtd:output.obj
 0001:0000c1e0       ?should_skip_type_state_output@?$standard_base@DV?$string_output_adapter@D@__crt_stdio_output@@@__crt_stdio_output@@IEBA_NXZ 000000014000d1e0 f i libucrtd:output.obj
 0001:0000c1e0       ?should_skip_normal_state_processing@?$standard_base@DV?$string_output_adapter@D@__crt_stdio_output@@@__crt_stdio_output@@IEAA_NXZ 000000014000d1e0 f i libucrtd:output.obj
 0001:0000c1e0       ?do_always_noconv@codecvt_base@std@@MEBA_NXZ 000000014000d1e0 f i libcpmtd:cin.obj
 0001:0000c1f0       ?do_max_length@codecvt_base@std@@MEBAHXZ 000000014000d1f0 f i libcpmtd:cin.obj
 0001:0000c1f0       ?do_encoding@codecvt_base@std@@MEBAHXZ 000000014000d1f0 f i libcpmtd:cin.obj
 0001:0000c200       ?do_in@?$codecvt@DDU_Mbstatet@@@std@@MEBAHAEAU_Mbstatet@@PEBD1AEAPEBDPEAD3AEAPEAD@Z 000000014000d200 f i libcpmtd:cin.obj
 0001:0000c200       ?do_out@?$codecvt@DDU_Mbstatet@@@std@@MEBAHAEAU_Mbstatet@@PEBD1AEAPEBDPEAD3AEAPEAD@Z 000000014000d200 f i libcpmtd:cin.obj
 0001:0000c240       ?do_length@?$codecvt@DDU_Mbstatet@@@std@@MEBAHAEAU_Mbstatet@@PEBD1_K@Z 000000014000d240 f i libcpmtd:cin.obj
 0001:0000c2b0       ?do_unshift@?$codecvt@DDU_Mbstatet@@@std@@MEBAHAEAU_Mbstatet@@PEAD1AEAPEAD@Z 000000014000d2b0 f i libcpmtd:cin.obj
 0001:0000c2e0       ?eback@?$basic_streambuf@DU?$char_traits@D@std@@@std@@IEBAPEADXZ 000000014000d2e0 f i libcpmtd:cin.obj
 0001:0000c300       ?egptr@?$basic_streambuf@DU?$char_traits@D@std@@@std@@IEBAPEADXZ 000000014000d300 f i libcpmtd:cin.obj
 0001:0000c330       ?epptr@?$basic_streambuf@DU?$char_traits@D@std@@@std@@IEBAPEADXZ 000000014000d330 f i libcpmtd:cin.obj
 0001:0000c360       ?erase@?$basic_string@DU?$char_traits@D@std@@V?$allocator@D@2@@std@@QEAAAEAV12@_K0@Z 000000014000d360 f i libcpmtd:cin.obj
 0001:0000c3b0       ?front@?$basic_string@DU?$char_traits@D@std@@V?$allocator@D@2@@std@@QEAAAEADXZ 000000014000d3b0 f i libcpmtd:cin.obj
 0001:0000c460       ?gbump@?$basic_streambuf@DU?$char_traits@D@std@@@std@@IEAAXH@Z 000000014000d460 f i libcpmtd:cin.obj
 0001:0000c4b0       ?imbue@?$basic_filebuf@DU?$char_traits@D@std@@@std@@MEAAXAEBVlocale@2@@Z 000000014000d4b0 f i libcpmtd:cin.obj
 0001:0000c4e0       ?in@?$codecvt@DDU_Mbstatet@@@std@@QEBAHAEAU_Mbstatet@@PEBD1AEAPEBDPEAD3AEAPEAD@Z 000000014000d4e0 f i libcpmtd:cin.obj
 0001:0000c580       ?init@?$basic_ios@DU?$char_traits@D@std@@@std@@IEAAXPEAV?$basic_streambuf@DU?$char_traits@D@std@@@2@_N@Z 000000014000d580 f i libcpmtd:cin.obj
 0001:0000c610       ?is_constant_evaluated@std@@YA_NXZ 000000014000d610 f i libcpmtd:cin.obj
 0001:0000c620       ?not_eof@?$_Narrow_char_traits@DH@std@@SAHAEBH@Z 000000014000d620 f i libcpmtd:cin.obj
 0001:0000c670       ?out@?$codecvt@DDU_Mbstatet@@@std@@QEBAHAEAU_Mbstatet@@PEBD1AEAPEBDPEAD3AEAPEAD@Z 000000014000d670 f i libcpmtd:cin.obj
 0001:0000c710       ?overflow@?$basic_filebuf@DU?$char_traits@D@std@@@std@@MEAAHH@Z 000000014000d710 f i libcpmtd:cin.obj
 0001:0000c9e0       ?overflow@?$basic_streambuf@DU?$char_traits@D@std@@@std@@MEAAHH@Z 000000014000d9e0 f i libcpmtd:cin.obj
 0001:0000c9e0       ?pbackfail@?$basic_streambuf@DU?$char_traits@D@std@@@std@@MEAAHH@Z 000000014000d9e0 f i libcpmtd:cin.obj
 0001:0000ca00       ?pbackfail@?$basic_filebuf@DU?$char_traits@D@std@@@std@@MEAAHH@Z 000000014000da00 f i libcpmtd:cin.obj
 0001:0000cb90       ?pbump@?$basic_streambuf@DU?$char_traits@D@std@@@std@@IEAAXH@Z 000000014000db90 f i libcpmtd:cin.obj
 0001:0000cbe0       ?pptr@?$basic_streambuf@DU?$char_traits@D@std@@@std@@IEBAPEADXZ 000000014000dbe0 f i libcpmtd:cin.obj
 0001:0000cc00       ?push_back@?$basic_string@DU?$char_traits@D@std@@V?$allocator@D@2@@std@@QEAAXD@Z 000000014000dc00 f i libcpmtd:cin.obj
 0001:0000ccb0       ?seekoff@?$basic_filebuf@DU?$char_traits@D@std@@@std@@MEAA?AV?$fpos@U_Mbstatet@@@2@_JHH@Z 000000014000dcb0 f i libcpmtd:cin.obj
 0001:0000cdb0       ?seekoff@?$basic_streambuf@DU?$char_traits@D@std@@@std@@MEAA?AV?$fpos@U_Mbstatet@@@2@_JHH@Z 000000014000ddb0 f i libcpmtd:cin.obj
 0001:0000cdb0       ?seekpos@?$basic_streambuf@DU?$char_traits@D@std@@@std@@MEAA?AV?$fpos@U_Mbstatet@@@2@V32@H@Z 000000014000ddb0 f i libcpmtd:cin.obj
 0001:0000cdf0       ?seekpos@?$basic_filebuf@DU?$char_traits@D@std@@@std@@MEAA?AV?$fpos@U_Mbstatet@@@2@V32@H@Z 000000014000ddf0 f i libcpmtd:cin.obj
 0001:0000ceb0       ?setbuf@?$basic_filebuf@DU?$char_traits@D@std@@@std@@MEAAPEAV?$basic_streambuf@DU?$char_traits@D@std@@@2@PEAD_J@Z 000000014000deb0 f i libcpmtd:cin.obj
 0001:0000cf50       ?setbuf@?$basic_streambuf@DU?$char_traits@D@std@@@std@@MEAAPEAV12@PEAD_J@Z 000000014000df50 f i libcpmtd:cin.obj
 0001:0000cf70       ?setg@?$basic_streambuf@DU?$char_traits@D@std@@@std@@IEAAXPEAD00@Z 000000014000df70 f i libcpmtd:cin.obj
 0001:0000cfd0       ?setp@?$basic_streambuf@DU?$char_traits@D@std@@@std@@IEAAXPEAD0@Z 000000014000dfd0 f i libcpmtd:cin.obj
 0001:0000d020       ?get_current_state_index@__crt_state_management@@YA_KAEBV__crt_scoped_get_last_error_reset@@@Z 000000014000e020 f i libucrtd:per_thread_data.obj
 0001:0000d020       ?sync@?$basic_streambuf@DU?$char_traits@D@std@@@std@@MEAAHXZ 000000014000e020 f i libcpmtd:cin.obj
 0001:0000d020       ?showmanyc@?$basic_streambuf@DU?$char_traits@D@std@@@std@@MEAA_JXZ 000000014000e020 f i libcpmtd:cin.obj
 0001:0000d020       ?getESTypes@__FrameHandler4@@SAPEBU_s_ESTypeList@@PEAUFuncInfo4@FH4@@@Z 000000014000e020 f i libvcruntimed:frame.obj
 0001:0000d020       _matherr                   000000014000e020 f i LIBCMTD:matherr.obj
 0001:0000d030       ?state@?$fpos@U_Mbstatet@@@std@@QEBA?AU_Mbstatet@@XZ 000000014000e030 f i libcpmtd:cin.obj
 0001:0000d060       ?sync@?$basic_filebuf@DU?$char_traits@D@std@@@std@@MEAAHXZ 000000014000e060 f i libcpmtd:cin.obj
 0001:0000d100       ?tie@?$basic_ios@DU?$char_traits@D@std@@@std@@QEAAPEAV?$basic_ostream@DU?$char_traits@D@std@@@2@PEAV32@@Z 000000014000e100 f i libcpmtd:cin.obj
 0001:0000d140       ?uflow@?$basic_filebuf@DU?$char_traits@D@std@@@std@@MEAAHXZ 000000014000e140 f i libcpmtd:cin.obj
 0001:0000d4b0       ?uflow@?$basic_streambuf@DU?$char_traits@D@std@@@std@@MEAAHXZ 000000014000e4b0 f i libcpmtd:cin.obj
 0001:0000d530       ?underflow@?$basic_filebuf@DU?$char_traits@D@std@@@std@@MEAAHXZ 000000014000e530 f i libcpmtd:cin.obj
 0001:0000d610       ?underflow@?$basic_streambuf@DU?$char_traits@D@std@@@std@@MEAAHXZ 000000014000e610 f i libcpmtd:cin.obj
 0001:0000d630       ?unshift@?$codecvt@DDU_Mbstatet@@@std@@QEBAHAEAU_Mbstatet@@PEAD1AEAPEAD@Z 000000014000e630 f i libcpmtd:cin.obj
 0001:0000d6a0       ?widen@?$basic_ios@DU?$char_traits@D@std@@@std@@QEBADD@Z 000000014000e6a0 f i libcpmtd:cin.obj
 0001:0000d710       ?widen@?$ctype@D@std@@QEBADD@Z 000000014000e710 f i libcpmtd:cin.obj
 0001:0000d760       ?xsgetn@?$basic_filebuf@DU?$char_traits@D@std@@@std@@MEAA_JPEAD_J@Z 000000014000e760 f i libcpmtd:cin.obj
 0001:0000d950       ?xsgetn@?$basic_streambuf@DU?$char_traits@D@std@@@std@@MEAA_JPEAD_J@Z 000000014000e950 f i libcpmtd:cin.obj
 0001:0000da90       ?xsputn@?$basic_filebuf@DU?$char_traits@D@std@@@std@@MEAA_JPEBD_J@Z 000000014000ea90 f i libcpmtd:cin.obj
 0001:0000dbc0       ?xsputn@?$basic_streambuf@DU?$char_traits@D@std@@@std@@MEAA_JPEBD_J@Z 000000014000ebc0 f i libcpmtd:cin.obj
 0001:0000dd10       ??0?$basic_ostream@DU?$char_traits@D@std@@@std@@QEAA@PEAV?$basic_streambuf@DU?$char_traits@D@std@@@1@_N@Z 000000014000ed10 f i libcpmtd:cout.obj
 0001:0000dde0       ??0_Init_cout@std@@QEAA@XZ 000000014000ede0 f i libcpmtd:cout.obj
 0001:0000dec0       ??1?$basic_ostream@DU?$char_traits@D@std@@@std@@UEAA@XZ 000000014000eec0 f i libcpmtd:cout.obj
 0001:0000df10       ??_D?$basic_ostream@DU?$char_traits@D@std@@@std@@QEAAXXZ 000000014000ef10 f i libcpmtd:cout.obj
 0001:0000df40       ??_E?$basic_ostream@DU?$char_traits@D@std@@@std@@$4PPPPPPPM@A@EAAPEAXI@Z 000000014000ef40 f i libcpmtd:cout.obj
 0001:0000df50       ??_E?$basic_ostream@DU?$char_traits@D@std@@@std@@UEAAPEAXI@Z 000000014000ef50 f i libcpmtd:cout.obj
 0001:0000df50       ??_G?$basic_ostream@DU?$char_traits@D@std@@@std@@UEAAPEAXI@Z 000000014000ef50 f i libcpmtd:cout.obj
 0001:0000dfa0       _Mtxdst                    000000014000efa0 f   libcpmtd:xmtx.obj
 0001:0000dfc0       _Mtxinit                   000000014000efc0 f   libcpmtd:xmtx.obj
 0001:0000dff0       _Mtxlock                   000000014000eff0 f   libcpmtd:xmtx.obj
 0001:0000e010       _Mtxunlock                 000000014000f010 f   libcpmtd:xmtx.obj
 0001:0000e030       __local_stdio_printf_options 000000014000f030 f i libcpmtd:locale.obj
 0001:0000e040       _vsprintf_s_l              000000014000f040 f i libcpmtd:locale.obj
 0001:0000e0b0       sprintf_s                  000000014000f0b0 f i libcpmtd:locale.obj
 0001:0000e110       ??1_Init_atexit@@QEAA@XZ   000000014000f110 f i libcpmtd:iosptrs.obj
 0001:0000e180       ?_Atexit@@YAXP6AXXZ@Z      000000014000f180 f   libcpmtd:iosptrs.obj
 0001:0000e1e0       ??1?$__crt_scoped_stack_ptr@_W@@QEAA@XZ 000000014000f1e0 f i libcpmtd:StlLCMapStringA.obj
 0001:0000e200       ??B?$__crt_scoped_stack_ptr@_W@@QEBA_NXZ 000000014000f200 f i libcpmtd:StlLCMapStringA.obj
 0001:0000e200       ?is_valid@?$__crt_unique_heap_ptr@DU__crt_public_free_policy@@@@QEBA_NXZ 000000014000f200 f i libvcruntimed:std_exception.obj
 0001:0000e200       ?is_valid@?$__crt_unique_heap_ptr@DU__crt_internal_free_policy@@@@QEBA_NXZ 000000014000f200 f i libvcruntimed:std_type_info.obj
 0001:0000e200       ?valid@__crt_stdio_stream@@QEBA_NXZ 000000014000f200 f i libucrtd:fclose.obj
 0001:0000e200       ?is_valid@?$__crt_unique_heap_ptr@EU__crt_internal_free_policy@@@@QEBA_NXZ 000000014000f200 f i libcpmtd:xwcsxfrm.obj
 0001:0000e200       ?is_valid@?$__crt_unique_heap_ptr@U__crt_multibyte_data@@U__crt_internal_free_policy@@@@QEBA_NXZ 000000014000f200 f i libucrtd:wsetlocale.obj
 0001:0000e200       ?is_valid@?$__crt_unique_heap_ptr@U__vcrt_ptd@@U__crt_internal_free_policy@@@@QEBA_NXZ 000000014000f200 f i libvcruntimed:per_thread_data.obj
 0001:0000e200       ?is_valid@?$__crt_unique_heap_ptr@U__crt_lowio_handle_data@@U__crt_internal_free_policy@@@@QEBA_NXZ 000000014000f200 f i libucrtd:osfinfo.obj
 0001:0000e200       ?is_valid@?$__crt_unique_heap_ptr@U__acrt_ptd@@U__crt_internal_free_policy@@@@QEBA_NXZ 000000014000f200 f i libucrtd:per_thread_data.obj
 0001:0000e200       ?is_valid@?$__crt_unique_heap_ptr@U__crt_lc_time_data@@U__crt_internal_free_policy@@@@QEBA_NXZ 000000014000f200 f i libucrtd:inittime.obj
 0001:0000e230       ?get@?$__crt_unique_heap_ptr@U__crt_lc_time_data@@U__crt_internal_free_policy@@@@QEBAPEAU__crt_lc_time_data@@XZ 000000014000f230 f i libucrtd:inittime.obj
 0001:0000e230       ?get@?$__crt_unique_heap_ptr@DU__crt_internal_free_policy@@@@QEBAPEADXZ 000000014000f230 f i libvcruntimed:std_type_info.obj
 0001:0000e230       ?get@?$__crt_unique_heap_ptr@U__vcrt_ptd@@U__crt_internal_free_policy@@@@QEBAPEAU__vcrt_ptd@@XZ 000000014000f230 f i libvcruntimed:per_thread_data.obj
 0001:0000e230       ?get@?$__crt_unique_handle_t@U__crt_hmodule_traits@@@@QEBAPEAUHINSTANCE__@@XZ 000000014000f230 f i libucrtd:exit.obj
 0001:0000e230       ?save_state@?$c_string_character_source@D@__crt_strtox@@QEBAPEBDXZ 000000014000f230 f i libucrtd:strtod.obj
 0001:0000e230       ??C__crt_stdio_stream@@QEBAPEAU__crt_stdio_stream_data@@XZ 000000014000f230 f i libucrtd:fclose.obj
 0001:0000e230       ?get@?$__crt_unique_heap_ptr@_WU__crt_internal_free_policy@@@@QEBAPEA_WXZ 000000014000f230 f i libucrtd:setlocale.obj
 0001:0000e230       ?get@?$__crt_unique_heap_ptr@U__acrt_ptd@@U__crt_internal_free_policy@@@@QEBAPEAU__acrt_ptd@@XZ 000000014000f230 f i libucrtd:per_thread_data.obj
 0001:0000e230       ?get@?$__crt_scoped_stack_ptr@_W@@QEBAPEA_WXZ 000000014000f230 f i libcpmtd:StlLCMapStringA.obj
 0001:0000e230       ?get@?$__crt_unique_handle_t@U__crt_findfile_traits@@@@QEBAPEAXXZ 000000014000f230 f i libucrtd:argv_wildcards.obj
 0001:0000e230       ?get@?$__crt_unique_heap_ptr@DU__crt_public_free_policy@@@@QEBAPEADXZ 000000014000f230 f i libvcruntimed:std_exception.obj
 0001:0000e230       ?get@?$__crt_unique_heap_ptr@EU__crt_internal_free_policy@@@@QEBAPEAEXZ 000000014000f230 f i libcpmtd:xwcsxfrm.obj
 0001:0000e230       ?get@?$__crt_unique_heap_ptr@U__crt_lowio_handle_data@@U__crt_internal_free_policy@@@@QEBAPEAU__crt_lowio_handle_data@@XZ 000000014000f230 f i libucrtd:osfinfo.obj
 0001:0000e230       ?get@?$__crt_unique_heap_ptr@U__crt_multibyte_data@@U__crt_internal_free_policy@@@@QEBAPEAU__crt_multibyte_data@@XZ 000000014000f230 f i libucrtd:wsetlocale.obj
 0001:0000e230       ?get@?$__crt_unique_heap_ptr@PEADU__crt_internal_free_policy@@@@QEBAPEAPEADXZ 000000014000f230 f i libucrtd:argv_parsing.obj
 0001:0000e230       ?public_stream@__crt_stdio_stream@@QEBAPEAU_iobuf@@XZ 000000014000f230 f i libucrtd:fclose.obj
 0001:0000e230       ?save_state@?$c_string_character_source@_W@__crt_strtox@@QEBAPEB_WXZ 000000014000f230 f i libucrtd:strtod.obj
 0001:0000e240       _MallocaComputeSize        000000014000f240 f i libcpmtd:StlLCMapStringA.obj
 0001:0000e280       _MarkAllocaS               000000014000f280 f i libcpmtd:StlLCMapStringA.obj
 0001:0000e2b0       __crtLCMapStringA          000000014000f2b0 f   libcpmtd:StlLCMapStringA.obj
 0001:0000e820       _freea_crt                 000000014000f820 f i libcpmtd:StlLCMapStringA.obj
 0001:0000e8c0       ?_Addstd@ios_base@std@@SAXPEAV12@@Z 000000014000f8c0 f   libcpmtd:ios.obj
 0001:0000e990       ?_Callfns@ios_base@std@@AEAAXW4event@12@@Z 000000014000f990 f i libcpmtd:ios.obj
 0001:0000ea00       ?_Ios_base_dtor@ios_base@std@@CAXPEAV12@@Z 000000014000fa00 f   libcpmtd:ios.obj
 0001:0000eaa0       ?_Tidy@ios_base@std@@AEAAXXZ 000000014000faa0 f i libcpmtd:ios.obj
 0001:0000eb60       ??$?RU__crt_locale_data@@@__crt_internal_free_policy@@QEBAXQEBU__crt_locale_data@@@Z 000000014000fb60 f i libucrtd:wsetlocale.obj
 0001:0000eb60       ??$?RD@__crt_internal_free_policy@@QEBAXQEBD@Z 000000014000fb60 f i libvcruntimed:std_type_info.obj
 0001:0000eb60       ??$?RPEAU__crt_stdio_stream_data@@@__crt_internal_free_policy@@QEBAXQEBQEAU__crt_stdio_stream_data@@@Z 000000014000fb60 f i libucrtd:_file.obj
 0001:0000eb60       ??$?RU__crt_lc_time_data@@@__crt_internal_free_policy@@QEBAXQEBU__crt_lc_time_data@@@Z 000000014000fb60 f i libucrtd:inittime.obj
 0001:0000eb60       ??$?RU__acrt_ptd@@@__crt_internal_free_policy@@QEBAXQEBU__acrt_ptd@@@Z 000000014000fb60 f i libucrtd:per_thread_data.obj
 0001:0000eb60       ??$?RUlconv@@@__crt_internal_free_policy@@QEBAXQEBUlconv@@@Z 000000014000fb60 f i libucrtd:initmon.obj
 0001:0000eb60       ??$?RP6AXXZ@__crt_internal_free_policy@@QEBAXQEBQ6AXXZ@Z 000000014000fb60 f i libucrtd:onexit.obj
 0001:0000eb60       ??$?RPEAD@__crt_internal_free_policy@@QEBAXQEBQEAD@Z 000000014000fb60 f i libucrtd:argv_parsing.obj
 0001:0000eb60       ??$?RG@__crt_internal_free_policy@@QEBAXQEBG@Z 000000014000fb60 f i libucrtd:initctype.obj
 0001:0000eb60       ??$?RU__vcrt_ptd@@@__crt_internal_free_policy@@QEBAXQEBU__vcrt_ptd@@@Z 000000014000fb60 f i libvcruntimed:per_thread_data.obj
 0001:0000eb60       ??$?RU__crt_lowio_handle_data@@@__crt_internal_free_policy@@QEBAXQEBU__crt_lowio_handle_data@@@Z 000000014000fb60 f i libucrtd:osfinfo.obj
 0001:0000eb60       ??$?RE@__crt_internal_free_policy@@QEBAXQEBE@Z 000000014000fb60 f i libcpmtd:xwcsxfrm.obj
 0001:0000eb60       ??$?RU__crt_stdio_stream_data@@@__crt_internal_free_policy@@QEBAXQEBU__crt_stdio_stream_data@@@Z 000000014000fb60 f i libucrtd:stream.obj
 0001:0000eb60       ??$?RJ@__crt_internal_free_policy@@QEBAXQEBJ@Z 000000014000fb60 f i libucrtd:initctype.obj
 0001:0000eb60       ??$?R_W@__crt_internal_free_policy@@QEBAXQEB_W@Z 000000014000fb60 f i libucrtd:setlocale.obj
 0001:0000eb60       ??$?RU__crt_multibyte_data@@@__crt_internal_free_policy@@QEBAXQEBU__crt_multibyte_data@@@Z 000000014000fb60 f i libucrtd:wsetlocale.obj
 0001:0000eb90       ??1?$__crt_unique_heap_ptr@P6AXXZU__crt_internal_free_policy@@@@QEAA@XZ 000000014000fb90 f i libucrtd:onexit.obj
 0001:0000eb90       ??1?$__crt_unique_heap_ptr@U__crt_lowio_handle_data@@U__crt_internal_free_policy@@@@QEAA@XZ 000000014000fb90 f i libucrtd:osfinfo.obj
 0001:0000eb90       ??1?$__crt_unique_heap_ptr@_WU__crt_internal_free_policy@@@@QEAA@XZ 000000014000fb90 f i libucrtd:setlocale.obj
 0001:0000eb90       ??1?$__crt_unique_heap_ptr@JU__crt_internal_free_policy@@@@QEAA@XZ 000000014000fb90 f i libucrtd:initctype.obj
 0001:0000eb90       ??1?$__crt_unique_heap_ptr@DU__crt_internal_free_policy@@@@QEAA@XZ 000000014000fb90 f i libvcruntimed:std_type_info.obj
 0001:0000eb90       ??1?$__crt_unique_heap_ptr@U__acrt_ptd@@U__crt_internal_free_policy@@@@QEAA@XZ 000000014000fb90 f i libucrtd:per_thread_data.obj
 0001:0000eb90       ??1?$__crt_unique_heap_ptr@GU__crt_internal_free_policy@@@@QEAA@XZ 000000014000fb90 f i libucrtd:initctype.obj
 0001:0000eb90       ??1?$__crt_unique_heap_ptr@PEADU__crt_internal_free_policy@@@@QEAA@XZ 000000014000fb90 f i libucrtd:argv_parsing.obj
 0001:0000eb90       ??1?$__crt_unique_heap_ptr@U__crt_lc_time_data@@U__crt_internal_free_policy@@@@QEAA@XZ 000000014000fb90 f i libucrtd:inittime.obj
 0001:0000eb90       ??1?$__crt_unique_heap_ptr@U__crt_stdio_stream_data@@U__crt_internal_free_policy@@@@QEAA@XZ 000000014000fb90 f i libucrtd:stream.obj
 0001:0000eb90       ??1?$__crt_unique_heap_ptr@PEAU__crt_stdio_stream_data@@U__crt_internal_free_policy@@@@QEAA@XZ 000000014000fb90 f i libucrtd:_file.obj
 0001:0000eb90       ??1?$__crt_unique_heap_ptr@Ulconv@@U__crt_internal_free_policy@@@@QEAA@XZ 000000014000fb90 f i libucrtd:initmon.obj
 0001:0000eb90       ??1?$__crt_unique_heap_ptr@U__crt_locale_data@@U__crt_internal_free_policy@@@@QEAA@XZ 000000014000fb90 f i libucrtd:wsetlocale.obj
 0001:0000eb90       ??1?$__crt_unique_heap_ptr@U__crt_multibyte_data@@U__crt_internal_free_policy@@@@QEAA@XZ 000000014000fb90 f i libucrtd:wsetlocale.obj
 0001:0000eb90       ??1?$__crt_unique_heap_ptr@EU__crt_internal_free_policy@@@@QEAA@XZ 000000014000fb90 f i libcpmtd:xwcsxfrm.obj
 0001:0000eb90       ??1?$__crt_unique_heap_ptr@U__vcrt_ptd@@U__crt_internal_free_policy@@@@QEAA@XZ 000000014000fb90 f i libvcruntimed:per_thread_data.obj
 0001:0000ebb0       ??B?$__crt_unique_heap_ptr@U__crt_multibyte_data@@U__crt_internal_free_policy@@@@QEBA_NXZ 000000014000fbb0 f i libucrtd:wsetlocale.obj
 0001:0000ebb0       ??B?$__crt_unique_heap_ptr@DU__crt_internal_free_policy@@@@QEBA_NXZ 000000014000fbb0 f i libvcruntimed:std_type_info.obj
 0001:0000ebb0       ??B?$__crt_unique_heap_ptr@U__acrt_ptd@@U__crt_internal_free_policy@@@@QEBA_NXZ 000000014000fbb0 f i libucrtd:per_thread_data.obj
 0001:0000ebb0       ??B?$__crt_unique_heap_ptr@DU__crt_public_free_policy@@@@QEBA_NXZ 000000014000fbb0 f i libvcruntimed:std_exception.obj
 0001:0000ebb0       ??B?$__crt_unique_heap_ptr@U__vcrt_ptd@@U__crt_internal_free_policy@@@@QEBA_NXZ 000000014000fbb0 f i libvcruntimed:per_thread_data.obj
 0001:0000ebb0       ??B?$__crt_unique_heap_ptr@U__crt_lowio_handle_data@@U__crt_internal_free_policy@@@@QEBA_NXZ 000000014000fbb0 f i libucrtd:osfinfo.obj
 0001:0000ebb0       ??B?$__crt_unique_heap_ptr@U__crt_lc_time_data@@U__crt_internal_free_policy@@@@QEBA_NXZ 000000014000fbb0 f i libucrtd:inittime.obj
 0001:0000ebb0       ??B?$__crt_unique_heap_ptr@EU__crt_internal_free_policy@@@@QEBA_NXZ 000000014000fbb0 f i libcpmtd:xwcsxfrm.obj
 0001:0000ebd0       ?release@?$__crt_unique_heap_ptr@U__vcrt_ptd@@U__crt_internal_free_policy@@@@QEAAXXZ 000000014000fbd0 f i libvcruntimed:per_thread_data.obj
 0001:0000ebd0       ?release@?$__crt_unique_heap_ptr@U__crt_lowio_handle_data@@U__crt_internal_free_policy@@@@QEAAXXZ 000000014000fbd0 f i libucrtd:osfinfo.obj
 0001:0000ebd0       ?release@?$__crt_unique_heap_ptr@JU__crt_internal_free_policy@@@@QEAAXXZ 000000014000fbd0 f i libucrtd:initctype.obj
 0001:0000ebd0       ?release@?$__crt_unique_heap_ptr@DU__crt_internal_free_policy@@@@QEAAXXZ 000000014000fbd0 f i libvcruntimed:std_type_info.obj
 0001:0000ebd0       ?release@?$__crt_unique_heap_ptr@P6AXXZU__crt_internal_free_policy@@@@QEAAXXZ 000000014000fbd0 f i libucrtd:onexit.obj
 0001:0000ebd0       ?release@?$__crt_unique_heap_ptr@_WU__crt_internal_free_policy@@@@QEAAXXZ 000000014000fbd0 f i libucrtd:setlocale.obj
 0001:0000ebd0       ?release@?$__crt_unique_heap_ptr@GU__crt_internal_free_policy@@@@QEAAXXZ 000000014000fbd0 f i libucrtd:initctype.obj
 0001:0000ebd0       ?release@?$__crt_unique_heap_ptr@U__crt_multibyte_data@@U__crt_internal_free_policy@@@@QEAAXXZ 000000014000fbd0 f i libucrtd:wsetlocale.obj
 0001:0000ebd0       ?release@?$__crt_unique_heap_ptr@U__crt_lc_time_data@@U__crt_internal_free_policy@@@@QEAAXXZ 000000014000fbd0 f i libucrtd:inittime.obj
 0001:0000ebd0       ?release@?$__crt_unique_heap_ptr@PEADU__crt_internal_free_policy@@@@QEAAXXZ 000000014000fbd0 f i libucrtd:argv_parsing.obj
 0001:0000ebd0       ?release@?$__crt_unique_heap_ptr@PEAU__crt_stdio_stream_data@@U__crt_internal_free_policy@@@@QEAAXXZ 000000014000fbd0 f i libucrtd:_file.obj
 0001:0000ebd0       ?release@?$__crt_unique_heap_ptr@U__acrt_ptd@@U__crt_internal_free_policy@@@@QEAAXXZ 000000014000fbd0 f i libucrtd:per_thread_data.obj
 0001:0000ebd0       ?release@?$__crt_unique_heap_ptr@EU__crt_internal_free_policy@@@@QEAAXXZ 000000014000fbd0 f i libcpmtd:xwcsxfrm.obj
 0001:0000ebd0       ?release@?$__crt_unique_heap_ptr@U__crt_stdio_stream_data@@U__crt_internal_free_policy@@@@QEAAXXZ 000000014000fbd0 f i libucrtd:stream.obj
 0001:0000ebd0       ?release@?$__crt_unique_heap_ptr@U__crt_locale_data@@U__crt_internal_free_policy@@@@QEAAXXZ 000000014000fbd0 f i libucrtd:wsetlocale.obj
 0001:0000ebd0       ?release@?$__crt_unique_heap_ptr@Ulconv@@U__crt_internal_free_policy@@@@QEAAXXZ 000000014000fbd0 f i libucrtd:initmon.obj
 0001:0000ec00       ??2@YAPEAX_K@Z             000000014000fc00 f   LIBCMTD:new_scalar.obj
 0001:0000ec50       ??3@YAXPEAX_K@Z            000000014000fc50 f   LIBCMTD:delete_scalar_size.obj
 0001:0000ec70       ??_V@YAXPEAX@Z             000000014000fc70 f   LIBCMTD:delete_array.obj
 0001:0000eca0       _alloca_probe              000000014000fca0 f   LIBCMTD:chkstk.obj
 0001:0000eca0       __chkstk                   000000014000fca0 f   LIBCMTD:chkstk.obj
 0001:0000ecf0       ??1type_info@@UEAA@XZ      000000014000fcf0 f   LIBCMTD:std_type_info_static.obj
 0001:0000ed10       ??_Gtype_info@@UEAAPEAXI@Z 000000014000fd10 f i LIBCMTD:std_type_info_static.obj
 0001:0000ed10       ??_Etype_info@@UEAAPEAXI@Z 000000014000fd10 f i LIBCMTD:std_type_info_static.obj
 0001:0000f000       ?configure_argv@__scrt_narrow_argv_policy@@SAHXZ 0000000140010000 f i LIBCMTD:exe_main.obj
 0001:0000f020       ?initialize_environment@__scrt_narrow_environment_policy@@SAHXZ 0000000140010020 f i LIBCMTD:exe_main.obj
 0001:0000f070       ?set_app_type@__scrt_main_policy@@SAXXZ 0000000140010070 f i LIBCMTD:exe_main.obj
 0001:0000f090       ?set_commode@__scrt_file_policy@@SAXXZ 0000000140010090 f i LIBCMTD:exe_main.obj
 0001:0000f0b0       ?set_fmode@__scrt_file_policy@@SAXXZ 00000001400100b0 f i LIBCMTD:exe_main.obj
 0001:0000f0d0       mainCRTStartup             00000001400100d0 f   LIBCMTD:exe_main.obj
 0001:0000f250       NtCurrentTeb               0000000140010250 f i LIBCMTD:utility.obj
 0001:0000f260       __scrt_acquire_startup_lock 0000000140010260 f   LIBCMTD:utility.obj
 0001:0000f2d0       __scrt_initialize_crt      00000001400102d0 f   LIBCMTD:utility.obj
 0001:0000f320       __scrt_initialize_onexit_tables 0000000140010320 f   LIBCMTD:utility.obj
 0001:0000f430       __scrt_is_nonwritable_in_current_image 0000000140010430 f   LIBCMTD:utility.obj
 0001:0000f4c0       __scrt_release_startup_lock 00000001400104c0 f   LIBCMTD:utility.obj
 0001:0000f4f0       __scrt_uninitialize_crt    00000001400104f0 f   LIBCMTD:utility.obj
 0001:0000f530       _onexit                    0000000140010530 f   LIBCMTD:utility.obj
 0001:0000f5b0       atexit                     00000001400105b0 f   LIBCMTD:utility.obj
 0001:0000f5f0       ReadNoFence64              00000001400105f0 f i LIBCMTD:guard_support.obj
 0001:0000f610       ReadPointerNoFence         0000000140010610 f i LIBCMTD:guard_support.obj
 0001:0000f630       _guard_icall_checks_enforced 0000000140010630 f i LIBCMTD:guard_support.obj
 0001:0000f670       __raise_securityfailure    0000000140010670 f   LIBCMTD:gs_report.obj
 0001:0000f6b0       __report_gsfailure         00000001400106b0 f   LIBCMTD:gs_report.obj
 0001:0000f790       __report_rangecheckfailure 0000000140010790 f   LIBCMTD:gs_report.obj
 0001:0000f7b0       __report_securityfailure   00000001400107b0 f   LIBCMTD:gs_report.obj
 0001:0000f9b0       ??3@YAXPEAX@Z              00000001400109b0 f   LIBCMTD:delete_scalar.obj
 0001:0000f9d0       __GSHandlerCheck           00000001400109d0 f   LIBCMTD:gshandler.obj
 0001:0000fa10       __GSHandlerCheckCommon     0000000140010a10 f   LIBCMTD:gshandler.obj
 0001:0000fb10       __GSHandlerCheck_EH4       0000000140010b10 f   LIBCMTD:gshandlereh4.obj
 0001:0000fbd0       __security_check_cookie    0000000140010bd0 f   LIBCMTD:amdsecgs.obj
 0001:0000fcb0       __security_init_cookie     0000000140010cb0 f   LIBCMTD:gs_support.obj
 0001:0000fd30       _get_startup_argv_mode     0000000140010d30 f   LIBCMTD:argv_mode.obj
 0001:0000fd40       _get_startup_thread_locale_mode 0000000140010d40 f   LIBCMTD:thread_locale.obj
 0001:0000fd40       __scrt_exe_initialize_mta  0000000140010d40 f   LIBCMTD:utility_desktop.obj
 0001:0000fd40       ?get_current_state_index@__crt_state_management@@YA_KXZ 0000000140010d40 f   libucrtd:invalid_parameter.obj
 0001:0000fd40       _get_startup_new_mode      0000000140010d40 f   LIBCMTD:new_mode.obj
 0001:0000fd40       __scrt_stub_for_initialize_mta 0000000140010d40 f   LIBCMTD:utility_desktop.obj
 0001:0000fd40       _get_startup_commit_mode   0000000140010d40 f   LIBCMTD:commit_mode.obj
 0001:0000fd40       __scrt_initialize_winrt    0000000140010d40 f   LIBCMTD:utility_desktop.obj
 0001:0000fd40       ?get_invalid_value@__crt_hmodule_traits@@SAPEAUHINSTANCE__@@XZ 0000000140010d40 f   libucrtd:exit.obj
 0001:0000fd50       _get_startup_file_mode     0000000140010d50 f   LIBCMTD:file_mode.obj
 0001:0000fd60       ?__scrt_initialize_type_info@@YAXXZ 0000000140010d60 f   LIBCMTD:tncleanup.obj
 0001:0000fd80       _should_initialize_environment 0000000140010d80 f   LIBCMTD:env_mode.obj
 0001:0000fd90       _initialize_denormal_control 0000000140010d90 f   LIBCMTD:denormal_control.obj
 0001:0000fd90       _initialize_invalid_parameter_handler 0000000140010d90 f   LIBCMTD:invalid_parameter_handler.obj
 0001:0000fda0       __local_stdio_scanf_options 0000000140010da0 f i LIBCMTD:default_local_stdio_options.obj
 0001:0000fdb0       __scrt_initialize_default_local_stdio_options 0000000140010db0 f   LIBCMTD:default_local_stdio_options.obj
 0001:0000fe00       __scrt_is_user_matherr_present 0000000140010e00 f   LIBCMTD:matherr_detection.obj
 0001:0000fe30       __scrt_get_dyn_tls_init_callback 0000000140010e30 f   LIBCMTD:dyn_tls_init.obj
 0001:0000fe40       __scrt_get_dyn_tls_dtor_callback 0000000140010e40 f   LIBCMTD:dyn_tls_dtor.obj
 0001:0000fe50       __crt_debugger_hook        0000000140010e50 f   LIBCMTD:utility_desktop.obj
 0001:0000fe60       __scrt_fastfail            0000000140010e60 f   LIBCMTD:utility_desktop.obj
 0001:00010000       __scrt_initialize_mta      0000000140011000 f   LIBCMTD:utility_desktop.obj
 0001:00010010       __scrt_is_managed_app      0000000140011010 f   LIBCMTD:utility_desktop.obj
 0001:000100c0       __scrt_set_unhandled_exception_filter 00000001400110c0 f   LIBCMTD:utility_desktop.obj
 0001:000100e0       __scrt_unhandled_exception_filter 00000001400110e0 f   LIBCMTD:utility_desktop.obj
 0001:00010180       _RTC_Initialize            0000000140011180 f   LIBCMTD:initsect.obj
 0001:000101d0       _RTC_Terminate             00000001400111d0 f   LIBCMTD:initsect.obj
 0001:00010220       __isa_available_init       0000000140011220 f   LIBCMTD:cpu_disp.obj
 0001:000105c0       __scrt_is_ucrt_dll_in_use  00000001400115c0 f   LIBCMTD:ucrt_detection.obj
 0001:000105f0       ??$__crt_interlocked_read_pointer@UHINSTANCE__@@@@YAPEAUHINSTANCE__@@PEDSEAU0@@Z 00000001400115f0 f i libvcruntimed:winapi_downlevel.obj
 0001:000105f0       ??$__crt_interlocked_read_pointer@$$A6AXXZ@@YAP6AXXZPEDS6AXXZ@Z 00000001400115f0 f i libvcruntimed:purevirt.obj
 0001:000105f0       ??$__crt_interlocked_read_pointer@X@@YAPEAXPEDSEAX@Z 00000001400115f0 f i libvcruntimed:winapi_downlevel.obj
 0001:00010610       ?__crt_interlocked_read_64@@YA_JPED_J@Z 0000000140011610 f i libvcruntimed:purevirt.obj
 0001:00010630       _get_purecall_handler      0000000140011630 f   libvcruntimed:purevirt.obj
 0001:00010650       _purecall                  0000000140011650 f   libvcruntimed:purevirt.obj
 0001:00010690       ??$?RD@__crt_public_free_policy@@QEBAXQEBD@Z 0000000140011690 f i libvcruntimed:std_exception.obj
 0001:000106b0       ??1?$__crt_unique_heap_ptr@DU__crt_public_free_policy@@@@QEAA@XZ 00000001400116b0 f i libvcruntimed:std_exception.obj
 0001:000106d0       ?detach@?$__crt_unique_heap_ptr@U__vcrt_ptd@@U__crt_internal_free_policy@@@@QEAAPEAU__vcrt_ptd@@XZ 00000001400116d0 f i libvcruntimed:per_thread_data.obj
 0001:000106d0       ?detach@?$__crt_unique_heap_ptr@GU__crt_internal_free_policy@@@@QEAAPEAGXZ 00000001400116d0 f i libucrtd:initctype.obj
 0001:000106d0       ?detach@?$__crt_unique_heap_ptr@DU__crt_public_free_policy@@@@QEAAPEADXZ 00000001400116d0 f i libvcruntimed:std_exception.obj
 0001:000106d0       ?detach@?$__crt_unique_heap_ptr@U__crt_locale_data@@U__crt_internal_free_policy@@@@QEAAPEAU__crt_locale_data@@XZ 00000001400116d0 f i libucrtd:wsetlocale.obj
 0001:000106d0       ?detach@?$__crt_unique_heap_ptr@Ulconv@@U__crt_internal_free_policy@@@@QEAAPEAUlconv@@XZ 00000001400116d0 f i libucrtd:initmon.obj
 0001:000106d0       ?detach@?$__crt_unique_heap_ptr@_WU__crt_internal_free_policy@@@@QEAAPEA_WXZ 00000001400116d0 f i libucrtd:wcsftime.obj
 0001:000106d0       ?detach@?$__crt_unique_heap_ptr@U__crt_lc_time_data@@U__crt_internal_free_policy@@@@QEAAPEAU__crt_lc_time_data@@XZ 00000001400116d0 f i libucrtd:inittime.obj
 0001:000106d0       ?detach@?$__crt_unique_heap_ptr@PEAU__crt_stdio_stream_data@@U__crt_internal_free_policy@@@@QEAAPEAPEAU__crt_stdio_stream_data@@XZ 00000001400116d0 f i libucrtd:_file.obj
 0001:000106d0       ?detach@?$__crt_unique_heap_ptr@P6AXXZU__crt_internal_free_policy@@@@QEAAPEAP6AXXZXZ 00000001400116d0 f i libucrtd:onexit.obj
 0001:000106d0       ?detach@?$__crt_unique_heap_ptr@JU__crt_internal_free_policy@@@@QEAAPEAJXZ 00000001400116d0 f i libucrtd:initctype.obj
 0001:000106d0       ?detach@?$__crt_unique_heap_ptr@PEADU__crt_internal_free_policy@@@@QEAAPEAPEADXZ 00000001400116d0 f i libucrtd:argv_parsing.obj
 0001:000106d0       ?detach@?$__crt_unique_heap_ptr@U__crt_lowio_handle_data@@U__crt_internal_free_policy@@@@QEAAPEAU__crt_lowio_handle_data@@XZ 00000001400116d0 f i libucrtd:osfinfo.obj
 0001:000106d0       ?detach@?$__crt_unique_heap_ptr@U__crt_multibyte_data@@U__crt_internal_free_policy@@@@QEAAPEAU__crt_multibyte_data@@XZ 00000001400116d0 f i libucrtd:wsetlocale.obj
 0001:000106d0       ?detach@?$__crt_unique_heap_ptr@EU__crt_internal_free_policy@@@@QEAAPEAEXZ 00000001400116d0 f i libucrtd:initctype.obj
 0001:000106d0       ?detach@?$__crt_unique_heap_ptr@U__acrt_ptd@@U__crt_internal_free_policy@@@@QEAAPEAU__acrt_ptd@@XZ 00000001400116d0 f i libucrtd:per_thread_data.obj
 0001:000106d0       ?detach@?$__crt_unique_heap_ptr@DU__crt_internal_free_policy@@@@QEAAPEADXZ 00000001400116d0 f i libucrtd:setvbuf.obj
 0001:000106d0       ?detach@?$__crt_unique_heap_ptr@U__crt_stdio_stream_data@@U__crt_internal_free_policy@@@@QEAAPEAU__crt_stdio_stream_data@@XZ 00000001400116d0 f i libucrtd:stream.obj
 0001:00010700       ?release@?$__crt_unique_heap_ptr@DU__crt_public_free_policy@@@@QEAAXXZ 0000000140011700 f i libvcruntimed:std_exception.obj
 0001:00010730       __std_exception_copy       0000000140011730 f   libvcruntimed:std_exception.obj
 0001:00010870       __std_exception_destroy    0000000140011870 f   libvcruntimed:std_exception.obj
 0001:000108b0       _CxxThrowException         00000001400118b0 f   libvcruntimed:throw.obj
 0001:000109e0       ??$?0AEAViterator@TryBlockMap4@FH4@@AEAV012@$0A@@?$pair@Viterator@TryBlockMap4@FH4@@V123@@std@@QEAA@AEAViterator@TryBlockMap4@FH4@@0@Z 00000001400119e0 f i libvcruntimed:risctrnsctrl.obj
 0001:000109e0       ??$?0AEAViterator@TryBlockMap@__FrameHandler3@@AEAV012@$0A@@?$pair@Viterator@TryBlockMap@__FrameHandler3@@V123@@std@@QEAA@AEAViterator@TryBlockMap@__FrameHandler3@@0@Z 00000001400119e0 f i libvcruntimed:risctrnsctrl.obj
 0001:00010bb0       ??$_CallSETranslator@V__FrameHandler3@@@@YAHPEAUEHExceptionRecord@@PEA_KPEAU_CONTEXT@@PEAU_xDISPATCHER_CONTEXT@@PEBU_s_FuncInfo@@K1H@Z 0000000140011bb0 f i libvcruntimed:risctrnsctrl.obj
 0001:00010c40       ??$_CallSETranslator@V__FrameHandler4@@@@YAHPEAUEHExceptionRecord@@PEA_KPEAU_CONTEXT@@PEAU_xDISPATCHER_CONTEXT@@PEAUFuncInfo4@FH4@@K1H@Z 0000000140011c40 f i libvcruntimed:risctrnsctrl.obj
 0001:00010cd0       ??0FuncInfo4@FH4@@QEAA@XZ  0000000140011cd0 f i libvcruntimed:risctrnsctrl.obj
 0001:00010d40       ??0FuncInfoHeader@FH4@@QEAA@XZ 0000000140011d40 f i libvcruntimed:risctrnsctrl.obj
 0001:00010d60       ??0iterator@HandlerMap4@FH4@@QEAA@AEAV12@I@Z 0000000140011d60 f i libvcruntimed:frame.obj
 0001:00010d60       ??0iterator@TryBlockMap@__FrameHandler3@@QEAA@AEAV12@I@Z 0000000140011d60 f i libvcruntimed:risctrnsctrl.obj
 0001:00010d60       ??0iterator@HandlerMap@__FrameHandler3@@QEAA@AEAV12@I@Z 0000000140011d60 f i libvcruntimed:frame.obj
 0001:00010d60       ??0iterator@TryBlockMap4@FH4@@QEAA@AEAV12@I@Z 0000000140011d60 f i libvcruntimed:risctrnsctrl.obj
 0001:00010d90       ??4iterator@TryBlockMap4@FH4@@QEAAAEAV012@AEBV012@@Z 0000000140011d90 f i libvcruntimed:risctrnsctrl.obj
 0001:00010db0       ??9iterator@TryBlockMap4@FH4@@QEBA_NAEBV012@@Z 0000000140011db0 f i libvcruntimed:risctrnsctrl.obj
 0001:00010df0       ??Diterator@TryBlockMap4@FH4@@QEAA?AUTryBlockMapEntry4@2@XZ 0000000140011df0 f i libvcruntimed:risctrnsctrl.obj
 0001:00010e20       ??Eiterator@TryBlockMap4@FH4@@QEAAAEAV012@XZ 0000000140011e20 f i libvcruntimed:risctrnsctrl.obj
 0001:00010e60       ?CatchTryBlock@__FrameHandler3@@SAPEBU_s_TryBlockMapEntry@@PEBU_s_FuncInfo@@H@Z 0000000140011e60 f   libvcruntimed:risctrnsctrl.obj
 0001:00010ef0       ?DecompFuncInfo@FH4@@YA_JPEAEAEAUFuncInfo4@1@_KH@Z 0000000140011ef0 f i libvcruntimed:risctrnsctrl.obj
 0001:00010f30       ?DecompFuncInfo@FH4@@YA_JPEAEAEAUFuncInfo4@1@_KH_N@Z 0000000140011f30 f i libvcruntimed:risctrnsctrl.obj
 0001:00011100       ?DecompTryBlock@TryBlockMap4@FH4@@AEAAXXZ 0000000140012100 f i libvcruntimed:risctrnsctrl.obj
 0001:00011180       ?ExecutionInCatch@__FrameHandler3@@SA_NPEAU_xDISPATCHER_CONTEXT@@PEBU_s_FuncInfo@@@Z 0000000140012180 f   libvcruntimed:risctrnsctrl.obj
 0001:000111d0       ?ExecutionInCatch@__FrameHandler4@@SA_NPEAU_xDISPATCHER_CONTEXT@@PEAUFuncInfo4@FH4@@@Z 00000001400121d0 f   libvcruntimed:risctrnsctrl.obj
 0001:000111f0       ?FrameUnwindToEmptyState@__FrameHandler3@@SAXPEA_KPEAU_xDISPATCHER_CONTEXT@@PEBU_s_FuncInfo@@@Z 00000001400121f0 f   libvcruntimed:risctrnsctrl.obj
 0001:00011290       ?FrameUnwindToEmptyState@__FrameHandler4@@SAXPEA_KPEAU_xDISPATCHER_CONTEXT@@PEAUFuncInfo4@FH4@@@Z 0000000140012290 f   libvcruntimed:risctrnsctrl.obj
 0001:000112e0       ?GetEstablisherFrame@__FrameHandler3@@SAPEA_KPEA_KPEAU_xDISPATCHER_CONTEXT@@PEBU_s_FuncInfo@@0@Z 00000001400122e0 f   libvcruntimed:risctrnsctrl.obj
 0001:00011450       ?GetEstablisherFrame@__FrameHandler4@@SAPEA_KPEA_KPEAU_xDISPATCHER_CONTEXT@@PEAUFuncInfo4@FH4@@0@Z 0000000140012450 f   libvcruntimed:risctrnsctrl.obj
 0001:000114c0       ?GetRangeOfTrysToCheck@__FrameHandler3@@SA?AU?$pair@Viterator@TryBlockMap@__FrameHandler3@@V123@@std@@AEAVTryBlockMap@1@HPEAU_xDISPATCHER_CONTEXT@@PEBU_s_FuncInfo@@H@Z 00000001400124c0 f   libvcruntimed:risctrnsctrl.obj
 0001:00011700       ?GetRangeOfTrysToCheck@__FrameHandler4@@SA?AU?$pair@Viterator@TryBlockMap4@FH4@@V123@@std@@AEAVTryBlockMap4@FH4@@HPEAU_xDISPATCHER_CONTEXT@@PEAUFuncInfo4@5@H@Z 0000000140012700 f   libvcruntimed:risctrnsctrl.obj
 0001:000118b0       ?ReadInt@FH4@@YAHPEAPEAE@Z 00000001400128b0 f i libvcruntimed:risctrnsctrl.obj
 0001:000118f0       ?ReadUnsigned@FH4@@YAIPEAPEAE@Z 00000001400128f0 f i libvcruntimed:risctrnsctrl.obj
 0001:00011980       ?UnwindNestedFrames@__FrameHandler3@@SAXPEA_KPEAUEHExceptionRecord@@PEAU_CONTEXT@@0PEAXPEBU_s_FuncInfo@@HHPEBU_s_HandlerType@@PEAU_xDISPATCHER_CONTEXT@@E@Z 0000000140012980 f   libvcruntimed:risctrnsctrl.obj
 0001:00011af0       ?UnwindNestedFrames@__FrameHandler4@@SAXPEA_KPEAUEHExceptionRecord@@PEAU_CONTEXT@@0PEAXPEAUFuncInfo4@FH4@@HHPEAUHandlerType4@5@PEAU_xDISPATCHER_CONTEXT@@E@Z 0000000140012af0 f   libvcruntimed:risctrnsctrl.obj
 0001:00011cc0       ?begin@HandlerMap4@FH4@@QEAA?AViterator@12@XZ 0000000140012cc0 f i libvcruntimed:frame.obj
 0001:00011cc0       ?begin@HandlerMap@__FrameHandler3@@QEAA?AViterator@12@XZ 0000000140012cc0 f i libvcruntimed:frame.obj
 0001:00011cc0       ?begin@TryBlockMap4@FH4@@QEAA?AViterator@12@XZ 0000000140012cc0 f i libvcruntimed:risctrnsctrl.obj
 0001:00011cf0       ?end@TryBlockMap4@FH4@@QEAA?AViterator@12@XZ 0000000140012cf0 f i libvcruntimed:risctrnsctrl.obj
 0001:00011cf0       ?end@HandlerMap4@FH4@@QEAA?AViterator@12@XZ 0000000140012cf0 f i libvcruntimed:frame.obj
 0001:00011cf0       ?end@HandlerMap@__FrameHandler3@@QEAA?AViterator@12@XZ 0000000140012cf0 f i libvcruntimed:frame.obj
 0001:00011d20       ?imageRelToByteBuffer@FH4@@YAPEAE_KH@Z 0000000140012d20 f i libvcruntimed:risctrnsctrl.obj
 0001:00011d40       ?incrementToSentinel@iterator@TryBlockMap4@FH4@@QEAAXXZ 0000000140012d40 f i libvcruntimed:risctrnsctrl.obj
 0001:00011d60       ?setBuffer@TryBlockMap4@FH4@@QEAAXViterator@12@@Z 0000000140012d60 f i libvcruntimed:risctrnsctrl.obj
 0001:00011dd0       _CreateFrameInfo           0000000140012dd0 f   libvcruntimed:risctrnsctrl.obj
 0001:00011e40       _FindAndUnlinkFrame        0000000140012e40 f   libvcruntimed:risctrnsctrl.obj
 0001:00011ec0       _GetImageBase              0000000140012ec0 f   libvcruntimed:risctrnsctrl.obj
 0001:00011ee0       _GetThrowImageBase         0000000140012ee0 f   libvcruntimed:risctrnsctrl.obj
 0001:00011f00       _SetImageBase              0000000140012f00 f   libvcruntimed:risctrnsctrl.obj
 0001:00011f20       _SetThrowImageBase         0000000140012f20 f   libvcruntimed:risctrnsctrl.obj
 0001:00011f40       __CxxFrameHandler3         0000000140012f40 f   libvcruntimed:risctrnsctrl.obj
 0001:00012020       __CxxFrameHandler4         0000000140013020 f   libvcruntimed:risctrnsctrl.obj
 0001:00012140       memcpy_repmovs             0000000140013140 f   libvcruntimed:memcpy.obj
 0001:00012160       memcpy                     0000000140013160 f   libvcruntimed:memcpy.obj
 0001:00012160       memmove                    0000000140013160 f   libvcruntimed:memcpy.obj
 0001:000127e0       __uncaught_exception       00000001400137e0 f   libvcruntimed:uncaught_exception.obj
 0001:00012840       memset_repmovs             0000000140013840 f   libvcruntimed:memset.obj
 0001:00012860       memset                     0000000140013860 f   libvcruntimed:memset.obj
 0001:00012a00       memchr                     0000000140013a00 f   libvcruntimed:memchr.obj
 0001:00012a80       memcmp                     0000000140013a80 f   libvcruntimed:memcmp.obj
 0001:00012b50       __C_specific_handler       0000000140013b50 f   libvcruntimed:riscchandler.obj
 0001:00012fc0       __vcrt_initialize          0000000140013fc0 f   libvcruntimed:initialization.obj
 0001:00013000       __vcrt_uninitialize        0000000140014000 f   libvcruntimed:initialization.obj
 0001:00013020       __std_type_info_compare    0000000140014020 f   libvcruntimed:std_type_info.obj
 0001:00013060       __DestructExceptionObject  0000000140014060 f   libvcruntimed:ehhelpers.obj
 0001:00013160       ?_CallMemberFunction0@@YAXQEAX0@Z 0000000140014160 f i libvcruntimed:ehhelpers.obj
 0001:00013230       _IsExceptionObjectToBeDestroyed 0000000140014230 f   libvcruntimed:ehhelpers.obj
 0001:00013280       __AdjustPointer            0000000140014280 f   libvcruntimed:ehhelpers.obj
 0001:00013300       __FrameUnwindFilter        0000000140014300 f   libvcruntimed:ehhelpers.obj
 0001:000133b0       __current_exception        00000001400143b0 f   libvcruntimed:ehhelpers.obj
 0001:000133d0       __current_exception_context 00000001400143d0 f   libvcruntimed:ehhelpers.obj
 0001:00013470       __vcrt_freefls             0000000140014470 f   libvcruntimed:per_thread_data.obj
 0001:000134b0       __vcrt_getptd              00000001400144b0 f   libvcruntimed:per_thread_data.obj
 0001:000134e0       __vcrt_getptd_noexit       00000001400144e0 f   libvcruntimed:per_thread_data.obj
 0001:00013680       __vcrt_getptd_noinit       0000000140014680 f   libvcruntimed:per_thread_data.obj
 0001:000136e0       __vcrt_initialize_ptd      00000001400146e0 f   libvcruntimed:per_thread_data.obj
 0001:00013730       __vcrt_uninitialize_ptd    0000000140014730 f   libvcruntimed:per_thread_data.obj
 0001:00013760       ?GetCurrentState@__FrameHandler3@@SAHPEA_KPEAU_xDISPATCHER_CONTEXT@@PEBU_s_FuncInfo@@@Z 0000000140014760 f   libvcruntimed:ehstate.obj
 0001:000137c0       ?GetUnwindTryBlock@__FrameHandler3@@SAHPEA_KPEAU_xDISPATCHER_CONTEXT@@PEBU_s_FuncInfo@@@Z 00000001400147c0 f   libvcruntimed:ehstate.obj
 0001:00013810       ?SetState@__FrameHandler3@@SAXPEA_KPEBU_s_FuncInfo@@H@Z 0000000140014810 f   libvcruntimed:ehstate.obj
 0001:00013840       ?SetUnwindTryBlock@__FrameHandler3@@SAXPEA_KPEAU_xDISPATCHER_CONTEXT@@PEBU_s_FuncInfo@@H@Z 0000000140014840 f   libvcruntimed:ehstate.obj
 0001:000138b0       ?StateFromControlPc@__FrameHandler3@@SAHPEBU_s_FuncInfo@@PEAU_xDISPATCHER_CONTEXT@@@Z 00000001400148b0 f   libvcruntimed:ehstate.obj
 0001:000138f0       ?StateFromControlPc@__FrameHandler4@@SAHPEAUFuncInfo4@FH4@@PEAU_xDISPATCHER_CONTEXT@@@Z 00000001400148f0 f   libvcruntimed:ehstate.obj
 0001:00013930       ?StateFromIp@__FrameHandler3@@SAHPEBU_s_FuncInfo@@PEAU_xDISPATCHER_CONTEXT@@_K@Z 0000000140014930 f   libvcruntimed:ehstate.obj
 0001:00013a20       ?StateFromIp@__FrameHandler4@@SAHPEAUFuncInfo4@FH4@@PEAU_xDISPATCHER_CONTEXT@@_K@Z 0000000140014a20 f   libvcruntimed:ehstate.obj
 0001:00013b10       ?__FuncRelToRealOffset@@YA_KPEAU_xDISPATCHER_CONTEXT@@I@Z 0000000140014b10 f i libvcruntimed:ehstate.obj
 0001:00013b40       ?__RVAtoRealOffset@@YA_KPEAU_xDISPATCHER_CONTEXT@@H@Z 0000000140014b40 f i libvcruntimed:ehstate.obj
 0001:00015d90       ??$TypeMatchHelper@V__FrameHandler3@@@@YAHPEBU_s_HandlerType@@PEBU_s_CatchableType@@PEBU_s_ThrowInfo@@@Z 0000000140016d90 f i libvcruntimed:frame.obj
 0001:00015f90       ??$TypeMatchHelper@V__FrameHandler4@@@@YAHPEAUHandlerType4@FH4@@PEBU_s_CatchableType@@PEBU_s_ThrowInfo@@@Z 0000000140016f90 f i libvcruntimed:frame.obj
 0001:000161a0       ??$__InternalCxxFrameHandler@V__FrameHandler3@@@@YA?AW4_EXCEPTION_DISPOSITION@@PEAUEHExceptionRecord@@PEA_KPEAU_CONTEXT@@PEAU_xDISPATCHER_CONTEXT@@PEBU_s_FuncInfo@@H1E@Z 00000001400171a0 f i libvcruntimed:frame.obj
 0001:00016610       ??$__InternalCxxFrameHandler@V__FrameHandler4@@@@YA?AW4_EXCEPTION_DISPOSITION@@PEAUEHExceptionRecord@@PEA_KPEAU_CONTEXT@@PEAU_xDISPATCHER_CONTEXT@@PEAUFuncInfo4@FH4@@H1E@Z 0000000140017610 f i libvcruntimed:frame.obj
 0001:00016aa0       ??0HandlerMap4@FH4@@QEAA@PEBUTryBlockMapEntry4@1@_KH@Z 0000000140017aa0 f i libvcruntimed:frame.obj
 0001:00016b60       ??0HandlerMap@__FrameHandler3@@QEAA@PEBU_s_TryBlockMapEntry@@_KI@Z 0000000140017b60 f i libvcruntimed:frame.obj
 0001:00016bb0       ??0HandlerType4@FH4@@QEAA@XZ 0000000140017bb0 f i libvcruntimed:frame.obj
 0001:00016bd0       ??0TryBlockMap4@FH4@@QEAA@PEBUFuncInfo4@1@_K@Z 0000000140017bd0 f i libvcruntimed:frame.obj
 0001:00016c60       ??0UWMap4@FH4@@QEAA@PEBUFuncInfo4@1@_K@Z 0000000140017c60 f i libvcruntimed:frame.obj
 0001:00016cd0       ??0bad_exception@std@@QEAA@AEBV01@@Z 0000000140017cd0 f i libvcruntimed:frame.obj
 0001:00016d10       ??0bad_exception@std@@QEAA@XZ 0000000140017d10 f i libvcruntimed:frame.obj
 0001:00016d50       ??4iterator@UWMap4@FH4@@QEAAAEAV012@AEBV012@@Z 0000000140017d50 f i libvcruntimed:frame.obj
 0001:00016da0       ??8iterator@HandlerMap4@FH4@@QEBA_NAEBV012@@Z 0000000140017da0 f i libvcruntimed:frame.obj
 0001:00016da0       ??8iterator@HandlerMap@__FrameHandler3@@QEBA_NAEBV012@@Z 0000000140017da0 f i libvcruntimed:frame.obj
 0001:00016de0       ??8type_info@@QEBA_NAEBV0@@Z 0000000140017de0 f i libvcruntimed:frame.obj
 0001:00016e30       ??9iterator@HandlerMap4@FH4@@QEBA_NAEBV012@@Z 0000000140017e30 f i libvcruntimed:frame.obj
 0001:00016e30       ??9iterator@HandlerMap@__FrameHandler3@@QEBA_NAEBV012@@Z 0000000140017e30 f i libvcruntimed:frame.obj
 0001:00016e70       ??Diterator@HandlerMap4@FH4@@QEAA?AUHandlerType4@2@XZ 0000000140017e70 f i libvcruntimed:frame.obj
 0001:00016ea0       ??Diterator@HandlerMap@__FrameHandler3@@QEAA?BU_s_HandlerType@@XZ 0000000140017ea0 f i libvcruntimed:frame.obj
 0001:00016ee0       ??Diterator@TryBlockMap@__FrameHandler3@@QEAA?BU_s_TryBlockMapEntry@@XZ 0000000140017ee0 f i libvcruntimed:frame.obj
 0001:00016f30       ??Diterator@UWMap4@FH4@@QEAA?AUUnwindMapEntry4@2@XZ 0000000140017f30 f i libvcruntimed:frame.obj
 0001:00016fb0       ??Eiterator@HandlerMap4@FH4@@QEAAAEAV012@XZ 0000000140017fb0 f i libvcruntimed:frame.obj
 0001:00016ff0       ??Eiterator@TryBlockMap@__FrameHandler3@@QEAAAEAV012@XZ 0000000140017ff0 f i libvcruntimed:frame.obj
 0001:00016ff0       ??Eiterator@HandlerMap@__FrameHandler3@@QEAAAEAV012@XZ 0000000140017ff0 f i libvcruntimed:frame.obj
 0001:00017010       ??Eiterator@UWMap4@FH4@@QEAAAEAV012@XZ 0000000140018010 f i libvcruntimed:frame.obj
 0001:00017050       ??Giterator@UWMap4@FH4@@QEBA_JAEBV012@@Z 0000000140018050 f i libvcruntimed:frame.obj
 0001:00017070       ??Miterator@TryBlockMap@__FrameHandler3@@QEBA_NAEBV012@@Z 0000000140018070 f i libvcruntimed:frame.obj
 0001:00017070       ??Miterator@TryBlockMap4@FH4@@QEBA_NAEBV012@@Z 0000000140018070 f i libvcruntimed:frame.obj
 0001:000170b0       ??Oiterator@UWMap4@FH4@@QEBA_NAEBV012@@Z 00000001400180b0 f i libvcruntimed:frame.obj
 0001:000170f0       ??Piterator@UWMap4@FH4@@QEBA_NAEBV012@@Z 00000001400180f0 f i libvcruntimed:frame.obj
 0001:00017130       ?BuildCatchObject@__FrameHandler3@@SAXPEAUEHExceptionRecord@@PEAXPEBU_s_HandlerType@@PEBU_s_CatchableType@@@Z 0000000140018130 f   libvcruntimed:frame.obj
 0001:00017170       ?BuildCatchObject@__FrameHandler4@@SAXPEAUEHExceptionRecord@@PEAXPEAUHandlerType4@FH4@@PEBU_s_CatchableType@@@Z 0000000140018170 f   libvcruntimed:frame.obj
 0001:000171b0       ?CxxCallCatchBlock@__FrameHandler3@@SAPEAXPEAU_EXCEPTION_RECORD@@@Z 00000001400181b0 f   libvcruntimed:frame.obj
 0001:00017410       ?CxxCallCatchBlock@__FrameHandler4@@SAPEAXPEAU_EXCEPTION_RECORD@@@Z 0000000140018410 f   libvcruntimed:frame.obj
 0001:00017740       ?DecompHandler@HandlerMap4@FH4@@AEAAXXZ 0000000140018740 f i libvcruntimed:frame.obj
 0001:00017b10       ?FrameUnwindToState@__FrameHandler3@@SAXPEA_KPEAU_xDISPATCHER_CONTEXT@@PEBU_s_FuncInfo@@H@Z 0000000140018b10 f   libvcruntimed:frame.obj
 0001:00017d60       ?FrameUnwindToState@__FrameHandler4@@SAXPEA_KPEAU_xDISPATCHER_CONTEXT@@PEAUFuncInfo4@FH4@@H@Z 0000000140018d60 f   libvcruntimed:frame.obj
 0001:00018070       ?GetHandlerSearchState@__FrameHandler3@@SAHPEA_KPEAU_xDISPATCHER_CONTEXT@@PEBU_s_FuncInfo@@@Z 0000000140019070 f i libvcruntimed:frame.obj
 0001:00018120       ?GetHandlerSearchState@__FrameHandler4@@SAHPEA_KPEAU_xDISPATCHER_CONTEXT@@PEAUFuncInfo4@FH4@@@Z 0000000140019120 f i libvcruntimed:frame.obj
 0001:000181a0       ?GetMaxState@__FrameHandler3@@SAHPEAU_xDISPATCHER_CONTEXT@@PEBU_s_FuncInfo@@@Z 00000001400191a0 f i libvcruntimed:frame.obj
 0001:000181c0       ?GetMaxState@__FrameHandler4@@SAHPEAU_xDISPATCHER_CONTEXT@@PEAUFuncInfo4@FH4@@@Z 00000001400191c0 f i libvcruntimed:frame.obj
 0001:000183f0       ?ReadEntry@UWMap4@FH4@@AEAAXPEAPEAE@Z 00000001400193f0 f i libvcruntimed:frame.obj
 0001:000184a0       ?TypeMatch@__FrameHandler3@@SAHPEBU_s_HandlerType@@PEBU_s_CatchableType@@PEBU_s_ThrowInfo@@@Z 00000001400194a0 f   libvcruntimed:frame.obj
 0001:000184a0       __TypeMatch                00000001400194a0 f   libvcruntimed:frame.obj
 0001:000184d0       ?TypeMatch@__FrameHandler4@@SAHPEAUHandlerType4@FH4@@PEBU_s_CatchableType@@PEBU_s_ThrowInfo@@@Z 00000001400194d0 f   libvcruntimed:frame.obj
 0001:00018500       ?WalkBack@UWMap4@FH4@@AEAAXPEAPEAE@Z 0000000140019500 f i libvcruntimed:frame.obj
 0001:00018550       ?WalkBack@iterator@UWMap4@FH4@@QEAAXXZ 0000000140019550 f i libvcruntimed:frame.obj
 0001:00018590       ?WalkForward@UWMap4@FH4@@AEAAXPEAPEAE@Z 0000000140019590 f i libvcruntimed:frame.obj
 0001:000185c0       ?_CallMemberFunction1@@YAXQEAX00@Z 00000001400195c0 f i libvcruntimed:frame.obj
 0001:00018600       ?_CallMemberFunction2@@YAXQEAX00H@Z 0000000140019600 f i libvcruntimed:frame.obj
 0001:00018690       ?begin@UWMap4@FH4@@QEAA?AViterator@12@XZ 0000000140019690 f i libvcruntimed:frame.obj
 0001:000186c0       ?getESTypes@__FrameHandler3@@SAPEBU_s_ESTypeList@@PEBU_s_FuncInfo@@@Z 00000001400196c0 f i libvcruntimed:frame.obj
 0001:00018700       ?getLastEntry@HandlerMap4@FH4@@QEAAPEAUHandlerType4@2@XZ 0000000140019700 f i libvcruntimed:frame.obj
 0001:00018740       ?getLastEntry@HandlerMap@__FrameHandler3@@QEAAPEBU_s_HandlerType@@XZ 0000000140019740 f i libvcruntimed:frame.obj
 0001:00018760       ?getMagicNum@__FrameHandler3@@SAIPEBU_s_FuncInfo@@@Z 0000000140019760 f i libvcruntimed:frame.obj
 0001:00018780       ?getMagicNum@__FrameHandler4@@SAIPEAUFuncInfo4@FH4@@@Z 0000000140019780 f i libvcruntimed:frame.obj
 0001:00018790       ?getNumTryBlocks@TryBlockMap@__FrameHandler3@@QEAAIXZ 0000000140019790 f i libvcruntimed:frame.obj
 0001:000187b0       ?getStartStop@UWMap4@FH4@@QEAAXHHAEAViterator@12@0@Z 00000001400197b0 f i libvcruntimed:frame.obj
 0001:000188d0       ?getStateFromIterators@UWMap4@FH4@@SAHAEBViterator@12@H0H0@Z 00000001400198d0 f i libvcruntimed:frame.obj
 0001:00018a10       ?isEHs@__FrameHandler3@@SA_NPEBU_s_FuncInfo@@@Z 0000000140019a10 f i libvcruntimed:frame.obj
 0001:00018a50       ?isEHs@__FrameHandler4@@SA_NPEAUFuncInfo4@FH4@@@Z 0000000140019a50 f i libvcruntimed:frame.obj
 0001:00018a70       ?isNoExcept@__FrameHandler3@@SA_NPEBU_s_FuncInfo@@@Z 0000000140019a70 f i libvcruntimed:frame.obj
 0001:00018ab0       ?isNoExcept@__FrameHandler4@@SA_NPEAUFuncInfo4@FH4@@@Z 0000000140019ab0 f i libvcruntimed:frame.obj
 0001:00018ad0       ?reset@HandlerType4@FH4@@QEAAXXZ 0000000140019ad0 f i libvcruntimed:frame.obj
 0001:00018b30       ?resetBuffer@HandlerMap4@FH4@@QEAAXXZ 0000000140019b30 f i libvcruntimed:frame.obj
 0001:00018b50       ?setBuffer@HandlerMap4@FH4@@QEAAXI@Z 0000000140019b50 f i libvcruntimed:frame.obj
 0001:00018bb0       __vcrt_EncodePointer       0000000140019bb0 f i libvcruntimed:frame.obj
 0001:00018be0       _NLG_Notify                0000000140019be0 f   libvcruntimed:notify.obj
 0001:00018c00       __NLG_Dispatch2            0000000140019c00 f   libvcruntimed:notify.obj
 0001:00018c10       __NLG_Return2              0000000140019c10 f   libvcruntimed:notify.obj
 0001:00018c20       __except_validate_context_record 0000000140019c20 f   libvcruntimed:jbcxrval.obj
 0001:00018c80       __vcrt_initialize_locks    0000000140019c80 f   libvcruntimed:locks.obj
 0001:00018cf0       __vcrt_uninitialize_locks  0000000140019cf0 f   libvcruntimed:locks.obj
 0001:00018d50       ??$__crt_interlocked_exchange_pointer@UHINSTANCE__@@PEAX@@YAPEAUHINSTANCE__@@PEDSEAU0@QEAX@Z 0000000140019d50 f i libvcruntimed:winapi_downlevel.obj
 0001:00018d50       ??$__crt_interlocked_exchange_pointer@XPEAX@@YAPEAXPEDSEAXQEAX@Z 0000000140019d50 f i libvcruntimed:winapi_downlevel.obj
 0001:00018d50       ??$__crt_interlocked_exchange_pointer@UHINSTANCE__@@PEAU1@@@YAPEAUHINSTANCE__@@PEDSEAU0@QEAU0@@Z 0000000140019d50 f i libvcruntimed:winapi_downlevel.obj
 0001:00018d70       ?get_invalid_value@__crt_findfile_traits@@SAPEAXXZ 0000000140019d70 f   libucrtd:argv_wildcards.obj
 0001:00019260       __vcrt_FlsAlloc            000000014001a260 f   libvcruntimed:winapi_downlevel.obj
 0001:000192b0       __vcrt_FlsFree             000000014001a2b0 f   libvcruntimed:winapi_downlevel.obj
 0001:00019300       __vcrt_FlsGetValue         000000014001a300 f   libvcruntimed:winapi_downlevel.obj
 0001:00019350       __vcrt_FlsSetValue         000000014001a350 f   libvcruntimed:winapi_downlevel.obj
 0001:000193b0       __vcrt_InitializeCriticalSectionEx 000000014001a3b0 f   libvcruntimed:winapi_downlevel.obj
 0001:00019430       _CallSettingFrame          000000014001a430 f   libvcruntimed:handlers.obj
 0001:00019480       _CallSettingFrame_LookupContinuationIndex 000000014001a480 f   libvcruntimed:handlers.obj
 0001:000194b0       _CallSettingFrame_NotifyContinuationAddr 000000014001a4b0 f   libvcruntimed:handlers.obj
 0001:000194e0       _CallSettingFrameEncoded   000000014001a4e0 f   libvcruntimed:handlers.obj
 0001:00019530       ??$__crt_fast_decode_pointer@PEAP6AXXZ@@YAPEAP6AXXZQEAP6AXXZ@Z 000000014001a530 f i libucrtd:onexit.obj
 0001:00019530       ??$__crt_fast_decode_pointer@PEAX@@YAPEAXQEAX@Z 000000014001a530 f i libucrtd:winapi_thunks.obj
 0001:00019530       ??$__crt_fast_decode_pointer@P6AXXZ@@YAP6AXXZQ6AXXZ@Z 000000014001a530 f i libucrtd:onexit.obj
 0001:00019530       ??$__crt_fast_decode_pointer@P6AXPEAXK0@Z@@YAP6AXPEAXK0@ZQ6AX0K0@Z@Z 000000014001a530 f i libucrtd:exit.obj
 0001:00019530       ??$__crt_fast_decode_pointer@P6AHPEAU_exception@@@Z@@YAP6AHPEAU_exception@@@ZQ6AH0@Z@Z 000000014001a530 f i libucrtd:matherr.obj
 0001:00019530       ??$__crt_fast_decode_pointer@P6AH_K@Z@@YAP6AH_K@ZQ6AH0@Z@Z 000000014001a530 f i libucrtd:new_handler.obj
 0001:00019530       ??$__crt_fast_decode_pointer@P6AXPEB_W00I_K@Z@@YAP6AXPEB_W00I_K@ZQ6AX000I1@Z@Z 000000014001a530 f i libucrtd:invalid_parameter.obj
 0001:00019530       ??$__crt_fast_decode_pointer@P6AXH@Z@@YAP6AXH@ZQ6AXH@Z@Z 000000014001a530 f i libucrtd:signal.obj
 0001:00019530       ??$__crt_fast_decode_pointer@P6AHPEA_WK_J@Z@@YAP6AHPEA_WK_J@ZQ6AH0K1@Z@Z 000000014001a530 f i libucrtd:winapi_thunks.obj
 0001:00019570       ??$initialize_from_array@$$BY00Q6AXPEB_W00I_K@Z@?$dual_state_global@P6AXPEB_W00I_K@Z@__crt_state_management@@QEAAXAEAY00Q6AXPEB_W00I_K@Z@Z 000000014001a570 f i libucrtd:invalid_parameter.obj
 0001:000195d0       ?__crt_rotate_pointer_value@@YA_K_KH@Z 000000014001a5d0 f i libucrtd:invalid_parameter.obj
 0001:000195f0       ?value@?$dual_state_global@P6AH_K@Z@__crt_state_management@@QEAAAEAP6AH_K@ZXZ 000000014001a5f0 f i libucrtd:new_handler.obj
 0001:000195f0       ?value@?$dual_state_global@P6AXPEB_W00I_K@Z@__crt_state_management@@QEAAAEAP6AXPEB_W00I_K@ZXZ 000000014001a5f0 f i libucrtd:invalid_parameter.obj
 0001:000195f0       ?value@?$dual_state_global@PEAE@__crt_state_management@@QEAAAEAPEAEXZ 000000014001a5f0 f i libucrtd:mbctype.obj
 0001:000195f0       ?value@?$dual_state_global@P6AHPEAU_exception@@@Z@__crt_state_management@@QEAAAEAP6AHPEAU_exception@@@ZXZ 000000014001a5f0 f i libucrtd:matherr.obj
 0001:000195f0       ?value@?$dual_state_global@P6AXH@Z@__crt_state_management@@QEAAAEAP6AXH@ZXZ 000000014001a5f0 f i libucrtd:signal.obj
 0001:000195f0       ?value@?$dual_state_global@PEAU__crt_multibyte_data@@@__crt_state_management@@QEAAAEAPEAU__crt_multibyte_data@@XZ 000000014001a5f0 f i libucrtd:locale_update.obj
 0001:000195f0       ?value@?$dual_state_global@PEAU__crt_locale_data@@@__crt_state_management@@QEAAAEAPEAU__crt_locale_data@@XZ 000000014001a5f0 f i libucrtd:wsetlocale.obj
 0001:00019610       __acrt_call_reportfault    000000014001a610 f   libucrtd:invalid_parameter.obj
 0001:00019740       __acrt_initialize_invalid_parameter_handler 000000014001a740 f   libucrtd:invalid_parameter.obj
 0001:00019770       _invalid_parameter         000000014001a770 f   libucrtd:invalid_parameter.obj
 0001:00019870       _invalid_parameter_noinfo  000000014001a870 f   libucrtd:invalid_parameter.obj
 0001:000198a0       _invoke_watson             000000014001a8a0 f   libucrtd:invalid_parameter.obj
 0001:00019900       ??0_LocaleUpdate@@QEAA@QEAU__crt_locale_pointers@@@Z 000000014001a900 f i libucrtd:debug_heap.obj
 0001:00019a20       ??1_LocaleUpdate@@QEAA@XZ  000000014001aa20 f i libucrtd:debug_heap.obj
 0001:00019a50       ?GetLocaleT@_LocaleUpdate@@QEAAPEAU__crt_locale_pointers@@XZ 000000014001aa50 f i libucrtd:debug_heap.obj
 0001:0001ba30       _CrtCheckMemory            000000014001ca30 f   libucrtd:debug_heap.obj
 0001:0001bbc0       _CrtDumpMemoryLeaks        000000014001cbc0 f   libucrtd:debug_heap.obj
 0001:0001bc80       _CrtIsValidHeapPointer     000000014001cc80 f   libucrtd:debug_heap.obj
 0001:0001bcc0       _CrtIsValidPointer         000000014001ccc0 f   libucrtd:debug_heap.obj
 0001:0001bd00       _CrtMemCheckpoint          000000014001cd00 f   libucrtd:debug_heap.obj
 0001:0001bf80       _CrtMemDumpAllObjectsSince 000000014001cf80 f   libucrtd:debug_heap.obj
 0001:0001bfe0       _CrtSetDbgFlag             000000014001cfe0 f   libucrtd:debug_heap.obj
 0001:0001c140       _CrtSetDumpClient          000000014001d140 f   libucrtd:debug_heap.obj
 0001:0001c170       __acrt_disable_global_locale_sync 000000014001d170 f i libucrtd:debug_heap.obj
 0001:0001c1a0       __acrt_enable_global_locale_sync 000000014001d1a0 f i libucrtd:debug_heap.obj
 0001:0001c1d0       __acrt_get_locale_data_prefix 000000014001d1d0 f i libucrtd:debug_heap.obj
 0001:0001c1f0       __acrt_locale_changed      000000014001d1f0 f i libucrtd:debug_heap.obj
 0001:0001c220       _calloc_dbg                000000014001d220 f   libucrtd:debug_heap.obj
 0001:0001c2c0       _chvalidchk_l              000000014001d2c0 f i libucrtd:debug_heap.obj
 0001:0001c2f0       _free_dbg                  000000014001d2f0 f   libucrtd:debug_heap.obj
 0001:0001c360       _invoke_watson_if_oneof    000000014001d360 f i libucrtd:debug_heap.obj
 0001:0001c3c0       _ischartype_l              000000014001d3c0 f i libucrtd:debug_heap.obj
 0001:0001c450       _malloc_dbg                000000014001d450 f   libucrtd:debug_heap.obj
 0001:0001c490       _msize_dbg                 000000014001d490 f   libucrtd:debug_heap.obj
 0001:0001c630       _realloc_dbg               000000014001d630 f   libucrtd:debug_heap.obj
 0001:0001c6a0       _recalloc_dbg              000000014001d6a0 f   libucrtd:debug_heap.obj
 0001:0001d550       ??$get_module_file_name@$$TAEAY0BAF@DH@?$__crt_char_traits@D@@SAK$$QEA$$TAEAY0BAF@D$$QEAH@Z 000000014001e550 f i libucrtd:argv_parsing.obj
 0001:0001d550       ??$get_module_file_name@AEAPEAUHINSTANCE__@@AEAY0BAF@DK@?$__crt_char_traits@D@@SAKAEAPEAUHINSTANCE__@@AEAY0BAF@D$$QEAK@Z 000000014001e550 f i libucrtd:dbgrpt.obj
 0001:0001d590       ??$get_module_file_name@AEAPEAUHINSTANCE__@@AEAY0BAF@_WK@?$__crt_char_traits@_W@@SAKAEAPEAUHINSTANCE__@@AEAY0BAF@_W$$QEAK@Z 000000014001e590 f i libucrtd:dbgrpt.obj
 0001:0001d5d0       ??$tcscpy_s@AEAY0BAF@D_KPEBD@?$__crt_char_traits@D@@SAHAEAY0BAF@D$$QEA_K$$QEAPEBD@Z 000000014001e5d0 f i libucrtd:dbgrpt.obj
 0001:0001d610       ??$tcscpy_s@AEAY0BAF@_W_KPEB_W@?$__crt_char_traits@_W@@SAHAEAY0BAF@_W$$QEA_K$$QEAPEB_W@Z 000000014001e610 f i libucrtd:dbgrpt.obj
 0001:0001d650       ??$tcslen@AEAY0BAF@D@?$__crt_char_traits@D@@SA_KAEAY0BAF@D@Z 000000014001e650 f i libucrtd:dbgrpt.obj
 0001:0001d670       ??$tcslen@AEAY0BAF@_W@?$__crt_char_traits@_W@@SA_KAEAY0BAF@_W@Z 000000014001e670 f i libucrtd:dbgrpt.obj
 0001:0001d690       ??$tcslen@AEBQEBD@?$__crt_char_traits@D@@SA_KAEBQEBD@Z 000000014001e690 f i libucrtd:dbgrpt.obj
 0001:0001d6b0       ??$tcslen@AEBQEB_W@?$__crt_char_traits@_W@@SA_KAEBQEB_W@Z 000000014001e6b0 f i libucrtd:dbgrpt.obj
 0001:0001d710       _CrtDbgReport              000000014001e710 f   libucrtd:dbgrpt.obj
 0001:0001d790       _CrtDbgReportW             000000014001e790 f   libucrtd:dbgrpt.obj
 0001:0001d810       __acrt_MessageWindowA      000000014001e810 f   libucrtd:dbgrpt.obj
 0001:0001d860       __acrt_MessageWindowW      000000014001e860 f   libucrtd:dbgrpt.obj
 0001:0001d8b0       _invoke_watson_if_error    000000014001e8b0 f i libucrtd:dbgrpt.obj
 0001:0001d900       _snwprintf_s               000000014001e900 f i libucrtd:dbgrpt.obj
 0001:0001d970       _vsnwprintf_s_l            000000014001e970 f i libucrtd:dbgrpt.obj
 0001:0001d9f0       free                       000000014001e9f0 f   libucrtd:free.obj
 0001:0001da20       malloc                     000000014001ea20 f   libucrtd:malloc.obj
 0001:0001da50       rand                       000000014001ea50 f   libucrtd:rand.obj
 0001:0001da90       ??$__crt_interlocked_read@H@@YAHPEDH@Z 000000014001ea90 f i libucrtd:setmode.obj
 0001:0001da90       ??$__crt_interlocked_read@J@@YAJPEDJ@Z 000000014001ea90 f i libucrtd:fclose.obj
 0001:0001dab0       ?__crt_interlocked_read_32@@YAHPEDH@Z 000000014001eab0 f i libucrtd:fclose.obj
 0001:0001dad0       ?get_flags@__crt_stdio_stream@@QEBAJXZ 000000014001ead0 f i libucrtd:fclose.obj
 0001:0001db00       ?is_in_use@__crt_stdio_stream@@QEBA_NXZ 000000014001eb00 f i libucrtd:fclose.obj
 0001:0001db40       ?is_string_backed@__crt_stdio_stream@@QEBA_NXZ 000000014001eb40 f i libucrtd:fclose.obj
 0001:0001db80       _fclose_nolock             000000014001eb80 f   libucrtd:fclose.obj
 0001:0001dd10       fclose                     000000014001ed10 f   libucrtd:fclose.obj
 0001:0001e100       ??$open_file@AEBQEBDAEBQEBDAEBHPEAU_iobuf@@@?$__crt_char_traits@D@@SAPEAU_iobuf@@AEBQEBD0AEBH$$QEAPEAU1@@Z 000000014001f100 f i libucrtd:fopen.obj
 0001:0001e150       ?unlock@__crt_stdio_stream@@QEBAXXZ 000000014001f150 f i libucrtd:fopen.obj
 0001:0001e170       fopen                      000000014001f170 f   libucrtd:fopen.obj
 0001:0001e1a0       ?__acrt_stdio_reset_buffer@@YAXV__crt_stdio_stream@@@Z 000000014001f1a0 f i libucrtd:fread.obj
 0001:0001e1f0       ?has_any_buffer@__crt_stdio_stream@@QEBA_NXZ 000000014001f1f0 f i libucrtd:fread.obj
 0001:0001e210       ?has_any_of@__crt_stdio_stream@@QEBA_NJ@Z 000000014001f210 f i libucrtd:fread.obj
 0001:0001e250       ?set_flags@__crt_stdio_stream@@QEBA_NJ@Z 000000014001f250 f i libucrtd:fread.obj
 0001:0001e2c0       _fread_nolock_s            000000014001f2c0 f   libucrtd:fread.obj
 0001:0001ec70       fread                      000000014001fc70 f   libucrtd:fread.obj
 0001:0001ecc0       fread_s                    000000014001fcc0 f   libucrtd:fread.obj
 0001:0001ef50       ?LongLongSub@@YAJ_J0PEA_J@Z 000000014001ff50 f i libucrtd:fseek.obj
 0001:0001f580       ?has_all_of@__crt_stdio_stream@@QEBA_NJ@Z 0000000140020580 f i libucrtd:fseek.obj
 0001:0001f5c0       ?lowio_handle@__crt_stdio_stream@@QEBAHXZ 00000001400205c0 f i libucrtd:fseek.obj
 0001:0001f5f0       ?unset_flags@__crt_stdio_stream@@QEBA_NJ@Z 00000001400205f0 f i libucrtd:fseek.obj
 0001:0001f650       _fseeki64                  0000000140020650 f   libucrtd:fseek.obj
 0001:0001f690       fseek                      0000000140020690 f   libucrtd:fseek.obj
 0001:00020470       ?ctrl_z@__crt_stdio_stream@@QEBA_NXZ 0000000140021470 f i libucrtd:ftell.obj
 0001:00020490       ?has_big_buffer@__crt_stdio_stream@@QEBA_NXZ 0000000140021490 f i libucrtd:ftell.obj
 0001:000204b0       ?has_crt_buffer@__crt_stdio_stream@@QEBA_NXZ 00000001400214b0 f i libucrtd:ftell.obj
 0001:000204d0       ?has_setvbuf_buffer@__crt_stdio_stream@@QEBA_NXZ 00000001400214d0 f i libucrtd:ftell.obj
 0001:000204f0       _ftelli64                  00000001400214f0 f   libucrtd:ftell.obj
 0001:00020520       _ftelli64_nolock           0000000140021520 f   libucrtd:ftell.obj
 0001:00020550       _utf8_no_of_trailbytes     0000000140021550 f i libucrtd:ftell.obj
 0001:00020570       ftell                      0000000140021570 f   libucrtd:ftell.obj
 0001:000205a0       ceil                       00000001400215a0 f   libucrtd:ceil.obj
 0001:00020770       __acrt_initialize_locks    0000000140021770 f   libucrtd:locks.obj
 0001:000207e0       __acrt_lock                00000001400217e0 f   libucrtd:locks.obj
 0001:00020810       __acrt_uninitialize_locks  0000000140021810 f   libucrtd:locks.obj
 0001:00020870       __acrt_unlock              0000000140021870 f   libucrtd:locks.obj
 0001:000208a0       _lock_locales              00000001400218a0 f   libucrtd:locks.obj
 0001:000208c0       _unlock_locales            00000001400218c0 f   libucrtd:locks.obj
 0001:00020e00       __acrt_should_sync_with_global_locale 0000000140021e00 f i libucrtd:setlocale.obj
 0001:00020ff0       setlocale                  0000000140021ff0 f   libucrtd:setlocale.obj
 0001:00021030       _wcsdup_dbg                0000000140022030 f   libucrtd:wcsdup.obj
 0001:000210f0       __pctype_func              00000001400220f0 f   libucrtd:ctype.obj
 0001:000211f0       islower                    00000001400221f0 f   libucrtd:_ctype.obj
 0001:00021210       isupper                    0000000140022210 f   libucrtd:_ctype.obj
 0001:00021230       ___lc_codepage_func        0000000140022230 f   libucrtd:initctype.obj
 0001:00021270       ___lc_locale_name_func     0000000140022270 f   libucrtd:initctype.obj
 0001:000212b0       __acrt_locale_initialize_ctype 00000001400222b0 f   libucrtd:initctype.obj
 0001:00021d60       __acrt_initialize_stdio    0000000140022d60 f   libucrtd:_file.obj
 0001:00021f50       __acrt_iob_func            0000000140022f50 f   libucrtd:_file.obj
 0001:00021f70       __acrt_uninitialize_stdio  0000000140022f70 f   libucrtd:_file.obj
 0001:00022000       _get_stream_buffer_pointers 0000000140023000 f   libucrtd:_file.obj
 0001:00022130       _lock_file                 0000000140023130 f   libucrtd:_file.obj
 0001:00022170       _unlock_file               0000000140023170 f   libucrtd:_file.obj
 0001:000227c0       __acrt_stdio_flush_nolock  00000001400237c0 f   libucrtd:fflush.obj
 0001:000228d0       _fflush_nolock             00000001400238d0 f   libucrtd:fflush.obj
 0001:00022960       _flushall                  0000000140023960 f   libucrtd:fflush.obj
 0001:00022970       fflush                     0000000140023970 f   libucrtd:fflush.obj
 0001:00022a00       _fgetc_nolock              0000000140023a00 f   libucrtd:fgetc.obj
 0001:00022b60       fgetc                      0000000140023b60 f   libucrtd:fgetc.obj
 0001:00022e20       fgetpos                    0000000140023e20 f   libucrtd:fgetpos.obj
 0001:00022fb0       _fputc_nolock              0000000140023fb0 f   libucrtd:fputc.obj
 0001:00023060       fputc                      0000000140024060 f   libucrtd:fputc.obj
 0001:00023300       fsetpos                    0000000140024300 f   libucrtd:fsetpos.obj
 0001:00023520       ??0__acrt_stdio_temporary_buffering_guard@@QEAA@QEAU_iobuf@@@Z 0000000140024520 f i libucrtd:fwrite.obj
 0001:00023560       ??1__acrt_stdio_temporary_buffering_guard@@QEAA@XZ 0000000140024560 f i libucrtd:fwrite.obj
 0001:00023610       _fwrite_nolock             0000000140024610 f   libucrtd:fwrite.obj
 0001:00023d90       fwrite                     0000000140024d90 f   libucrtd:fwrite.obj
 0001:00024150       setvbuf                    0000000140025150 f   libucrtd:setvbuf.obj
 0001:00024410       _ungetc_nolock             0000000140025410 f   libucrtd:ungetc.obj
 0001:000247b0       ungetc                     00000001400257b0 f   libucrtd:ungetc.obj
 0001:000248a0       pow                        00000001400258a0 f   libucrtd:pow.obj
 0001:00025f40       powf                       0000000140026f40 f   libucrtd:powf.obj
 0001:00026e10       __acrt_errno_from_os_error 0000000140027e10 f   libucrtd:errno.obj
 0001:00026ea0       __acrt_errno_map_os_error  0000000140027ea0 f   libucrtd:errno.obj
 0001:00026ed0       __doserrno                 0000000140027ed0 f   libucrtd:errno.obj
 0001:00026f00       _errno                     0000000140027f00 f   libucrtd:errno.obj
 0001:00026f30       ??$make_c_string_character_source@_W$$T@__crt_strtox@@YA?AV?$c_string_character_source@_W@0@QEB_W$$T@Z 0000000140027f30 f i libucrtd:atox.obj
 0001:00026f30       ??$make_c_string_character_source@_WPEAPEA_W@__crt_strtox@@YA?AV?$c_string_character_source@_W@0@QEB_WQEAPEA_W@Z 0000000140027f30 f i libucrtd:strtod.obj
 0001:00026f30       ??$make_c_string_character_source@DPEAPEAD@__crt_strtox@@YA?AV?$c_string_character_source@D@0@QEBDQEAPEAD@Z 0000000140027f30 f i libucrtd:strtod.obj
 0001:00026f70       ??0?$c_string_character_source@D@__crt_strtox@@QEAA@QEBDQEAPEBD@Z 0000000140027f70 f i libucrtd:strtod.obj
 0001:00026f70       ??0?$c_string_character_source@_W@__crt_strtox@@QEAA@QEB_WQEAPEB_W@Z 0000000140027f70 f i libucrtd:strtod.obj
 0001:00026fc0       ??0big_integer@__crt_strtox@@QEAA@AEBU01@@Z 0000000140027fc0 f i libucrtd:strtod.obj
 0001:00026fc0       ??4big_integer@__crt_strtox@@QEAAAEAU01@AEBU01@@Z 0000000140027fc0 f i libucrtd:strtod.obj
 0001:00027020       ??0big_integer@__crt_strtox@@QEAA@XZ 0000000140028020 f i libucrtd:strtod.obj
 0001:00027060       ??1?$c_string_character_source@D@__crt_strtox@@QEAA@XZ 0000000140028060 f i libucrtd:strtod.obj
 0001:00027060       ??1?$c_string_character_source@_W@__crt_strtox@@QEAA@XZ 0000000140028060 f i libucrtd:strtod.obj
 0001:00027090       ?add_carry@__crt_strtox@@YAIAEAIII@Z 0000000140028090 f i libucrtd:strtod.obj
 0001:000270e0       ?add_multiply_carry@__crt_strtox@@YAIAEAIIII@Z 00000001400280e0 f i libucrtd:strtod.obj
 0001:00027140       ?bit_scan_reverse@__crt_strtox@@YAII@Z 0000000140028140 f i libucrtd:strtod.obj
 0001:00027180       ?count_sequential_high_zeroes@__crt_strtox@@YAII@Z 0000000140028180 f i libucrtd:strtod.obj
 0001:000271c0       ?divide@__crt_strtox@@YA_KAEAUbig_integer@1@AEBU21@@Z 00000001400281c0 f i libucrtd:strtod.obj
 0001:00027b90       ?get@?$c_string_character_source@D@__crt_strtox@@QEAADXZ 0000000140028b90 f i libucrtd:strtod.obj
 0001:00027bd0       ?get@?$c_string_character_source@_W@__crt_strtox@@QEAA_WXZ 0000000140028bd0 f i libucrtd:strtod.obj
 0001:00027c10       ?is_space@__crt_strtox@@YA_NDQEAU__crt_locale_pointers@@@Z 0000000140028c10 f i libucrtd:strtod.obj
 0001:00027c60       ?is_space@__crt_strtox@@YA_N_WPEAU__crt_locale_pointers@@@Z 0000000140028c60 f i libucrtd:strtod.obj
 0001:00027ca0       ?make_big_integer@__crt_strtox@@YA?AUbig_integer@1@_K@Z 0000000140028ca0 f i libucrtd:strtod.obj
 0001:00027d70       ?multiply@__crt_strtox@@YA_NAEAUbig_integer@1@AEBU21@@Z 0000000140028d70 f i libucrtd:strtod.obj
 0001:000280f0       ?multiply@__crt_strtox@@YA_NAEAUbig_integer@1@I@Z 00000001400290f0 f i libucrtd:strtod.obj
 0001:00028210       ?multiply_64_32@__crt_strtox@@YA_K_KI@Z 0000000140029210 f i libucrtd:strtod.obj
 0001:00028230       ?multiply_by_power_of_ten@__crt_strtox@@YA_NAEAUbig_integer@1@I@Z 0000000140029230 f i libucrtd:strtod.obj
 0001:000283e0       ?multiply_core@__crt_strtox@@YAIQEAIII@Z 00000001400293e0 f i libucrtd:strtod.obj
 0001:00028460       ?parse_digit@__crt_strtox@@YAID@Z 0000000140029460 f i libucrtd:strtod.obj
 0001:000284d0       ?parse_digit@__crt_strtox@@YAI_W@Z 00000001400294d0 f i libucrtd:strtod.obj
 0001:00028520       ?restore_state@?$c_string_character_source@_W@__crt_strtox@@QEAA_NQEB_W@Z 0000000140029520 f i libucrtd:strtod.obj
 0001:00028520       ?restore_state@?$c_string_character_source@D@__crt_strtox@@QEAA_NQEBD@Z 0000000140029520 f i libucrtd:strtod.obj
 0001:00028540       ?shift_left@__crt_strtox@@YA_NAEAUbig_integer@1@I@Z 0000000140029540 f i libucrtd:strtod.obj
 0001:00028820       ?unget@?$c_string_character_source@D@__crt_strtox@@QEAAXD@Z 0000000140029820 f i libucrtd:strtod.obj
 0001:00028900       ?unget@?$c_string_character_source@_W@__crt_strtox@@QEAAX_W@Z 0000000140029900 f i libucrtd:strtod.obj
 0001:000289e0       ?validate@?$c_string_character_source@D@__crt_strtox@@QEBA_NXZ 00000001400299e0 f i libucrtd:strtod.obj
 0001:00028aa0       ?validate@?$c_string_character_source@_W@__crt_strtox@@QEBA_NXZ 0000000140029aa0 f i libucrtd:strtod.obj
 0001:00028b60       ?wide_character_to_digit@__crt_strtox@@YAH_W@Z 0000000140029b60 f i libucrtd:strtod.obj
 0001:00028ed0       __ascii_iswalpha           0000000140029ed0 f i libucrtd:strtod.obj
 0001:00028f10       __ascii_toupper            0000000140029f10 f i libucrtd:strtod.obj
 0001:00028f30       __ascii_towupper           0000000140029f30 f i libucrtd:strtod.obj
 0001:00028f60       strcmp                     0000000140029f60 f   libucrtd:strcmp.obj
 0001:00028fe0       strlen                     0000000140029fe0 f   libucrtd:strlen.obj
 0001:00029090       ??$?0AEBV?$string_output_adapter@D@__crt_stdio_output@@AEB_KAEBQEBDAEBQEAU__crt_locale_pointers@@AEBQEAD@?$format_validation_base@DV?$string_output_adapter@D@__crt_stdio_output@@@__crt_stdio_output@@IEAA@AEBV?$string_output_adapter@D@1@AEB_KAEBQEBDAEBQEAU__crt_locale_pointers@@AEBQEAD@Z 000000014002a090 f i libucrtd:output.obj
 0001:000290e0       ??$?0AEBV?$string_output_adapter@D@__crt_stdio_output@@AEB_KAEBQEBDAEBQEAU__crt_locale_pointers@@AEBQEAD@?$standard_base@DV?$string_output_adapter@D@__crt_stdio_output@@@__crt_stdio_output@@IEAA@AEBV?$string_output_adapter@D@1@AEB_KAEBQEBDAEBQEAU__crt_locale_pointers@@AEBQEAD@Z 000000014002a0e0 f i libucrtd:output.obj
 0001:00029150       ??$?0AEBV?$string_output_adapter@_W@__crt_stdio_output@@AEB_KAEBQEB_WAEBQEAU__crt_locale_pointers@@AEBQEAD@?$format_validation_base@_WV?$string_output_adapter@_W@__crt_stdio_output@@@__crt_stdio_output@@IEAA@AEBV?$string_output_adapter@_W@1@AEB_KAEBQEB_WAEBQEAU__crt_locale_pointers@@AEBQEAD@Z 000000014002a150 f i libucrtd:output.obj
 0001:000291a0       ??$?0AEBV?$string_output_adapter@_W@__crt_stdio_output@@AEB_KAEBQEB_WAEBQEAU__crt_locale_pointers@@AEBQEAD@?$standard_base@_WV?$string_output_adapter@_W@__crt_stdio_output@@@__crt_stdio_output@@IEAA@AEBV?$string_output_adapter@_W@1@AEB_KAEBQEB_WAEBQEAU__crt_locale_pointers@@AEBQEAD@Z 000000014002a1a0 f i libucrtd:output.obj
 0001:0002ab20       ??$count@D@formatting_buffer@__crt_stdio_output@@QEBA_KXZ 000000014002bb20 f i libucrtd:output.obj
 0001:0002ab70       ??$count@_W@formatting_buffer@__crt_stdio_output@@QEBA_KXZ 000000014002bb70 f i libucrtd:output.obj
 0001:0002abc0       ??$data@D@formatting_buffer@__crt_stdio_output@@QEAAPEADXZ 000000014002bbc0 f i libucrtd:output.obj
 0001:0002abc0       ??$data@_W@formatting_buffer@__crt_stdio_output@@QEAAPEA_WXZ 000000014002bbc0 f i libucrtd:output.obj
 0001:0002ac10       ??$ensure_buffer_is_big_enough@D@formatting_buffer@__crt_stdio_output@@QEAA_N_K@Z 000000014002bc10 f i libucrtd:output.obj
 0001:0002ad40       ??$ensure_buffer_is_big_enough@_W@formatting_buffer@__crt_stdio_output@@QEAA_N_K@Z 000000014002bd40 f i libucrtd:output.obj
 0001:0002ae70       ??$extract_argument_from_va_list@C_J@?$standard_base@DV?$string_output_adapter@D@__crt_stdio_output@@@__crt_stdio_output@@IEAA_NAEA_J@Z 000000014002be70 f i libucrtd:output.obj
 0001:0002ae70       ??$extract_argument_from_va_list@C_J@?$standard_base@_WV?$string_output_adapter@_W@__crt_stdio_output@@@__crt_stdio_output@@IEAA_NAEA_J@Z 000000014002be70 f i libucrtd:output.obj
 0001:0002aeb0       ??$extract_argument_from_va_list@E_J@?$standard_base@DV?$string_output_adapter@D@__crt_stdio_output@@@__crt_stdio_output@@IEAA_NAEA_J@Z 000000014002beb0 f i libucrtd:output.obj
 0001:0002aeb0       ??$extract_argument_from_va_list@E_J@?$standard_base@_WV?$string_output_adapter@_W@__crt_stdio_output@@@__crt_stdio_output@@IEAA_NAEA_J@Z 000000014002beb0 f i libucrtd:output.obj
 0001:0002aef0       ??$extract_argument_from_va_list@F_J@?$standard_base@DV?$string_output_adapter@D@__crt_stdio_output@@@__crt_stdio_output@@IEAA_NAEA_J@Z 000000014002bef0 f i libucrtd:output.obj
 0001:0002aef0       ??$extract_argument_from_va_list@F_J@?$standard_base@_WV?$string_output_adapter@_W@__crt_stdio_output@@@__crt_stdio_output@@IEAA_NAEA_J@Z 000000014002bef0 f i libucrtd:output.obj
 0001:0002af30       ??$extract_argument_from_va_list@GD@?$standard_base@DV?$string_output_adapter@D@__crt_stdio_output@@@__crt_stdio_output@@IEAA_NAEAD@Z 000000014002bf30 f i libucrtd:output.obj
 0001:0002af60       ??$extract_argument_from_va_list@G_J@?$standard_base@DV?$string_output_adapter@D@__crt_stdio_output@@@__crt_stdio_output@@IEAA_NAEA_J@Z 000000014002bf60 f i libucrtd:output.obj
 0001:0002af60       ??$extract_argument_from_va_list@G_J@?$standard_base@_WV?$string_output_adapter@_W@__crt_stdio_output@@@__crt_stdio_output@@IEAA_NAEA_J@Z 000000014002bf60 f i libucrtd:output.obj
 0001:0002afa0       ??$extract_argument_from_va_list@H_J@?$standard_base@DV?$string_output_adapter@D@__crt_stdio_output@@@__crt_stdio_output@@IEAA_NAEA_J@Z 000000014002bfa0 f i libucrtd:output.obj
 0001:0002afa0       ??$extract_argument_from_va_list@H_J@?$standard_base@_WV?$string_output_adapter@_W@__crt_stdio_output@@@__crt_stdio_output@@IEAA_NAEA_J@Z 000000014002bfa0 f i libucrtd:output.obj
 0001:0002afd0       ??$extract_argument_from_va_list@I_J@?$standard_base@_WV?$string_output_adapter@_W@__crt_stdio_output@@@__crt_stdio_output@@IEAA_NAEA_J@Z 000000014002bfd0 f i libucrtd:output.obj
 0001:0002afd0       ??$extract_argument_from_va_list@I_J@?$standard_base@DV?$string_output_adapter@D@__crt_stdio_output@@@__crt_stdio_output@@IEAA_NAEA_J@Z 000000014002bfd0 f i libucrtd:output.obj
 0001:0002b000       ??$extract_argument_from_va_list@PEAUansi_string@?1??type_case_Z@?$output_processor@DV?$string_output_adapter@D@__crt_stdio_output@@V?$format_validation_base@DV?$string_output_adapter@D@__crt_stdio_output@@@2@@__crt_stdio_output@@AEAA_NXZ@PEAU1?1??234@AEAA_NXZ@@?$standard_base@DV?$string_output_adapter@D@__crt_stdio_output@@@__crt_stdio_output@@IEAA_NAEAPEAUansi_string@?1??type_case_Z@?$output_processor@DV?$string_output_adapter@D@__crt_stdio_output@@V?$format_validation_base@DV?$string_output_adapter@D@__crt_stdio_output@@@2@@1@AEAA_NXZ@@Z 000000014002c000 f i libucrtd:output.obj
 0001:0002b000       ??$extract_argument_from_va_list@_J_J@?$standard_base@DV?$string_output_adapter@D@__crt_stdio_output@@@__crt_stdio_output@@IEAA_NAEA_J@Z 000000014002c000 f i libucrtd:output.obj
 0001:0002b000       ??$extract_argument_from_va_list@PEADPEAD@?$standard_base@DV?$string_output_adapter@D@__crt_stdio_output@@@__crt_stdio_output@@IEAA_NAEAPEAD@Z 000000014002c000 f i libucrtd:output.obj
 0001:0002b000       ??$extract_argument_from_va_list@PEAUansi_string@?1??type_case_Z@?$output_processor@_WV?$string_output_adapter@_W@__crt_stdio_output@@V?$format_validation_base@_WV?$string_output_adapter@_W@__crt_stdio_output@@@2@@__crt_stdio_output@@AEAA_NXZ@PEAU1?1??234@AEAA_NXZ@@?$standard_base@_WV?$string_output_adapter@_W@__crt_stdio_output@@@__crt_stdio_output@@IEAA_NAEAPEAUansi_string@?1??type_case_Z@?$output_processor@_WV?$string_output_adapter@_W@__crt_stdio_output@@V?$format_validation_base@_WV?$string_output_adapter@_W@__crt_stdio_output@@@2@@1@AEAA_NXZ@@Z 000000014002c000 f i libucrtd:output.obj
 0001:0002b000       ??$extract_argument_from_va_list@PEAXPEAX@?$standard_base@DV?$string_output_adapter@D@__crt_stdio_output@@@__crt_stdio_output@@IEAA_NAEAPEAX@Z 000000014002c000 f i libucrtd:output.obj
 0001:0002b000       ??$extract_argument_from_va_list@PEADPEAD@?$standard_base@_WV?$string_output_adapter@_W@__crt_stdio_output@@@__crt_stdio_output@@IEAA_NAEAPEAD@Z 000000014002c000 f i libucrtd:output.obj
 0001:0002b000       ??$extract_argument_from_va_list@_K_J@?$standard_base@_WV?$string_output_adapter@_W@__crt_stdio_output@@@__crt_stdio_output@@IEAA_NAEA_J@Z 000000014002c000 f i libucrtd:output.obj
 0001:0002b000       ??$extract_argument_from_va_list@PEAXPEAX@?$standard_base@_WV?$string_output_adapter@_W@__crt_stdio_output@@@__crt_stdio_output@@IEAA_NAEAPEAX@Z 000000014002c000 f i libucrtd:output.obj
 0001:0002b000       ??$extract_argument_from_va_list@_K_J@?$standard_base@DV?$string_output_adapter@D@__crt_stdio_output@@@__crt_stdio_output@@IEAA_NAEA_J@Z 000000014002c000 f i libucrtd:output.obj
 0001:0002b000       ??$extract_argument_from_va_list@_J_J@?$standard_base@_WV?$string_output_adapter@_W@__crt_stdio_output@@@__crt_stdio_output@@IEAA_NAEA_J@Z 000000014002c000 f i libucrtd:output.obj
 0001:0002b030       ??$extract_argument_from_va_list@U_CRT_DOUBLE@@U1@@?$standard_base@DV?$string_output_adapter@D@__crt_stdio_output@@@__crt_stdio_output@@IEAA_NAEAU_CRT_DOUBLE@@@Z 000000014002c030 f i libucrtd:output.obj
 0001:0002b030       ??$extract_argument_from_va_list@U_CRT_DOUBLE@@U1@@?$standard_base@_WV?$string_output_adapter@_W@__crt_stdio_output@@@__crt_stdio_output@@IEAA_NAEAU_CRT_DOUBLE@@@Z 000000014002c030 f i libucrtd:output.obj
 0001:0002b080       ??$extract_argument_from_va_list@_W_W@?$standard_base@DV?$string_output_adapter@D@__crt_stdio_output@@@__crt_stdio_output@@IEAA_NAEA_W@Z 000000014002c080 f i libucrtd:output.obj
 0001:0002b080       ??$extract_argument_from_va_list@_W_W@?$standard_base@_WV?$string_output_adapter@_W@__crt_stdio_output@@@__crt_stdio_output@@IEAA_NAEA_W@Z 000000014002c080 f i libucrtd:output.obj
 0001:0002b0b0       ??$is_wide_character_specifier@D@__crt_stdio_output@@YA_N_KDW4length_modifier@0@@Z 000000014002c0b0 f i libucrtd:output.obj
 0001:0002b150       ??$is_wide_character_specifier@_W@__crt_stdio_output@@YA_N_K_WW4length_modifier@0@@Z 000000014002c150 f i libucrtd:output.obj
 0001:0002b220       ??$read_va_arg@C@__crt_stdio_output@@YACAEAPEAD@Z 000000014002c220 f i libucrtd:output.obj
 0001:0002b220       ??$read_va_arg@E@__crt_stdio_output@@YAEAEAPEAD@Z 000000014002c220 f i libucrtd:output.obj
 0001:0002b290       ??$read_va_arg@_W@__crt_stdio_output@@YA_WAEAPEAD@Z 000000014002c290 f i libucrtd:output.obj
 0001:0002b290       ??$read_va_arg@F@__crt_stdio_output@@YAFAEAPEAD@Z 000000014002c290 f i libucrtd:output.obj
 0001:0002b290       ??$read_va_arg@G@__crt_stdio_output@@YAGAEAPEAD@Z 000000014002c290 f i libucrtd:output.obj
 0001:0002b300       ??$read_va_arg@I@__crt_stdio_output@@YAIAEAPEAD@Z 000000014002c300 f i libucrtd:output.obj
 0001:0002b300       ??$read_va_arg@H@__crt_stdio_output@@YAHAEAPEAD@Z 000000014002c300 f i libucrtd:output.obj
 0001:0002b360       ??$read_va_arg@_K@__crt_stdio_output@@YA_KAEAPEAD@Z 000000014002c360 f i libucrtd:output.obj
 0001:0002b360       ??$read_va_arg@PEAD@__crt_stdio_output@@YAPEADAEAPEAD@Z 000000014002c360 f i libucrtd:output.obj
 0001:0002b360       ??$read_va_arg@PEAUansi_string@?1??type_case_Z@?$output_processor@_WV?$string_output_adapter@_W@__crt_stdio_output@@V?$format_validation_base@_WV?$string_output_adapter@_W@__crt_stdio_output@@@2@@__crt_stdio_output@@AEAA_NXZ@@__crt_stdio_output@@YAPEAUansi_string@?1??type_case_Z@?$output_processor@_WV?$string_output_adapter@_W@__crt_stdio_output@@V?$format_validation_base@_WV?$string_output_adapter@_W@__crt_stdio_output@@@2@@0@AEAA_NXZ@AEAPEAD@Z 000000014002c360 f i libucrtd:output.obj
 0001:0002b360       ??$read_va_arg@_J@__crt_stdio_output@@YA_JAEAPEAD@Z 000000014002c360 f i libucrtd:output.obj
 0001:0002b360       ??$read_va_arg@U_CRT_DOUBLE@@@__crt_stdio_output@@YA?AU_CRT_DOUBLE@@AEAPEAD@Z 000000014002c360 f i libucrtd:output.obj
 0001:0002b360       ??$read_va_arg@PEAX@__crt_stdio_output@@YAPEAXAEAPEAD@Z 000000014002c360 f i libucrtd:output.obj
 0001:0002b360       ??$read_va_arg@PEAUansi_string@?1??type_case_Z@?$output_processor@DV?$string_output_adapter@D@__crt_stdio_output@@V?$format_validation_base@DV?$string_output_adapter@D@__crt_stdio_output@@@2@@__crt_stdio_output@@AEAA_NXZ@@__crt_stdio_output@@YAPEAUansi_string@?1??type_case_Z@?$output_processor@DV?$string_output_adapter@D@__crt_stdio_output@@V?$format_validation_base@DV?$string_output_adapter@D@__crt_stdio_output@@@2@@0@AEAA_NXZ@AEAPEAD@Z 000000014002c360 f i libucrtd:output.obj
 0001:0002b3d0       ??$scratch_count@D@formatting_buffer@__crt_stdio_output@@QEBA_KXZ 000000014002c3d0 f i libucrtd:output.obj
 0001:0002b3f0       ??$scratch_data@D@formatting_buffer@__crt_stdio_output@@QEAAPEADXZ 000000014002c3f0 f i libucrtd:output.obj
 0001:0002b460       ??$tcstol@PEBDPEAPEADH@?$__crt_char_traits@D@@SAJ$$QEAPEBD$$QEAPEAPEAD$$QEAH@Z 000000014002c460 f i libucrtd:output.obj
 0001:0002b4a0       ??$tcstol@PEB_WPEAPEA_WH@?$__crt_char_traits@_W@@SAJ$$QEAPEB_W$$QEAPEAPEA_W$$QEAH@Z 000000014002c4a0 f i libucrtd:output.obj
 0001:0002b4e0       ??$type_case_integer_parse_into_buffer@I@?$output_processor@DV?$string_output_adapter@D@__crt_stdio_output@@V?$format_validation_base@DV?$string_output_adapter@D@__crt_stdio_output@@@2@@__crt_stdio_output@@AEAAXII_N@Z 000000014002c4e0 f i libucrtd:output.obj
 0001:0002b610       ??$type_case_integer_parse_into_buffer@I@?$output_processor@_WV?$string_output_adapter@_W@__crt_stdio_output@@V?$format_validation_base@_WV?$string_output_adapter@_W@__crt_stdio_output@@@2@@__crt_stdio_output@@AEAAXII_N@Z 000000014002c610 f i libucrtd:output.obj
 0001:0002b750       ??$type_case_integer_parse_into_buffer@_K@?$output_processor@DV?$string_output_adapter@D@__crt_stdio_output@@V?$format_validation_base@DV?$string_output_adapter@D@__crt_stdio_output@@@2@@__crt_stdio_output@@AEAAX_KI_N@Z 000000014002c750 f i libucrtd:output.obj
 0001:0002b8a0       ??$type_case_integer_parse_into_buffer@_K@?$output_processor@_WV?$string_output_adapter@_W@__crt_stdio_output@@V?$format_validation_base@_WV?$string_output_adapter@_W@__crt_stdio_output@@@2@@__crt_stdio_output@@AEAAX_KI_N@Z 000000014002c8a0 f i libucrtd:output.obj
 0001:0002ba00       ??$write_multiple_characters@V?$string_output_adapter@D@__crt_stdio_output@@D@__crt_stdio_output@@YAXAEBV?$string_output_adapter@D@0@DHQEAH@Z 000000014002ca00 f i libucrtd:output.obj
 0001:0002ba60       ??$write_multiple_characters@V?$string_output_adapter@_W@__crt_stdio_output@@D@__crt_stdio_output@@YAXAEBV?$string_output_adapter@_W@0@DHQEAH@Z 000000014002ca60 f i libucrtd:output.obj
 0001:0002bac0       ??0?$common_data@D@__crt_stdio_output@@IEAA@XZ 000000014002cac0 f i libucrtd:output.obj
 0001:0002bb90       ??0?$common_data@_W@__crt_stdio_output@@IEAA@XZ 000000014002cb90 f i libucrtd:output.obj
 0001:0002bc60       ??0?$output_adapter_data@DV?$string_output_adapter@D@__crt_stdio_output@@@__crt_stdio_output@@IEAA@AEBV?$string_output_adapter@D@1@_KQEBDQEAU__crt_locale_pointers@@QEAD@Z 000000014002cc60 f i libucrtd:output.obj
 0001:0002bce0       ??0?$output_adapter_data@_WV?$string_output_adapter@_W@__crt_stdio_output@@@__crt_stdio_output@@IEAA@AEBV?$string_output_adapter@_W@1@_KQEB_WQEAU__crt_locale_pointers@@QEAD@Z 000000014002cce0 f i libucrtd:output.obj
 0001:0002bd60       ??0?$output_processor@DV?$string_output_adapter@D@__crt_stdio_output@@V?$format_validation_base@DV?$string_output_adapter@D@__crt_stdio_output@@@2@@__crt_stdio_output@@QEAA@AEBV?$string_output_adapter@D@1@_KQEBDQEAU__crt_locale_pointers@@QEAD@Z 000000014002cd60 f i libucrtd:output.obj
 0001:0002bdb0       ??0?$output_processor@_WV?$string_output_adapter@_W@__crt_stdio_output@@V?$format_validation_base@_WV?$string_output_adapter@_W@__crt_stdio_output@@@2@@__crt_stdio_output@@QEAA@AEBV?$string_output_adapter@_W@1@_KQEB_WQEAU__crt_locale_pointers@@QEAD@Z 000000014002cdb0 f i libucrtd:output.obj
 0001:0002be00       ??0__crt_errno_guard@@QEAA@QEAH@Z 000000014002ce00 f i libucrtd:output.obj
 0001:0002be40       ??0formatting_buffer@__crt_stdio_output@@QEAA@XZ 000000014002ce40 f i libucrtd:output.obj
 0001:0002be80       ??1?$common_data@_W@__crt_stdio_output@@QEAA@XZ 000000014002ce80 f i libucrtd:output.obj
 0001:0002be80       ??1?$common_data@D@__crt_stdio_output@@QEAA@XZ 000000014002ce80 f i libucrtd:output.obj
 0001:0002bea0       ??1?$format_validation_base@DV?$string_output_adapter@D@__crt_stdio_output@@@__crt_stdio_output@@QEAA@XZ 000000014002cea0 f i libucrtd:output.obj
 0001:0002bea0       ??1?$format_validation_base@_WV?$string_output_adapter@_W@__crt_stdio_output@@@__crt_stdio_output@@QEAA@XZ 000000014002cea0 f i libucrtd:output.obj
 0001:0002bec0       ??1?$output_adapter_data@_WV?$string_output_adapter@_W@__crt_stdio_output@@@__crt_stdio_output@@QEAA@XZ 000000014002cec0 f i libucrtd:output.obj
 0001:0002bec0       ??1?$output_adapter_data@DV?$string_output_adapter@D@__crt_stdio_output@@@__crt_stdio_output@@QEAA@XZ 000000014002cec0 f i libucrtd:output.obj
 0001:0002bee0       ??1?$output_processor@_WV?$string_output_adapter@_W@__crt_stdio_output@@V?$format_validation_base@_WV?$string_output_adapter@_W@__crt_stdio_output@@@2@@__crt_stdio_output@@QEAA@XZ 000000014002cee0 f i libucrtd:output.obj
 0001:0002bee0       ??1?$output_processor@DV?$string_output_adapter@D@__crt_stdio_output@@V?$format_validation_base@DV?$string_output_adapter@D@__crt_stdio_output@@@2@@__crt_stdio_output@@QEAA@XZ 000000014002cee0 f i libucrtd:output.obj
 0001:0002bf00       ??1?$standard_base@_WV?$string_output_adapter@_W@__crt_stdio_output@@@__crt_stdio_output@@QEAA@XZ 000000014002cf00 f i libucrtd:output.obj
 0001:0002bf00       ??1?$standard_base@DV?$string_output_adapter@D@__crt_stdio_output@@@__crt_stdio_output@@QEAA@XZ 000000014002cf00 f i libucrtd:output.obj
 0001:0002bf20       ??1__crt_errno_guard@@QEAA@XZ 000000014002cf20 f i libucrtd:output.obj
 0001:0002bf50       ??1formatting_buffer@__crt_stdio_output@@QEAA@XZ 000000014002cf50 f i libucrtd:output.obj
 0001:0002bf80       ??4?$__crt_unique_heap_ptr@DU__crt_internal_free_policy@@@@QEAAAEAV0@$$QEAV0@@Z 000000014002cf80 f i libucrtd:output.obj
 0001:0002bfc0       ??A?$spectre_mitigated_lookup_table@Ustate_transition_pair@__crt_stdio_output@@$0IA@@__crt_stdio_output@@QEBAAEBUstate_transition_pair@1@_K@Z 000000014002cfc0 f i libucrtd:output.obj
 0001:0002bfe0       ?adjust_hexit@?$output_processor@DV?$string_output_adapter@D@__crt_stdio_output@@V?$format_validation_base@DV?$string_output_adapter@D@__crt_stdio_output@@@2@@__crt_stdio_output@@CADH_N@Z 000000014002cfe0 f i libucrtd:output.obj
 0001:0002bfe0       ?adjust_hexit@?$output_processor@_WV?$string_output_adapter@_W@__crt_stdio_output@@V?$format_validation_base@_WV?$string_output_adapter@_W@__crt_stdio_output@@@2@@__crt_stdio_output@@CADH_N@Z 000000014002cfe0 f i libucrtd:output.obj
 0001:0002c030       ?advance_to_next_pass@?$standard_base@DV?$string_output_adapter@D@__crt_stdio_output@@@__crt_stdio_output@@IEAA_NXZ 000000014002d030 f i libucrtd:output.obj
 0001:0002c030       ?advance_to_next_pass@?$standard_base@_WV?$string_output_adapter@_W@__crt_stdio_output@@@__crt_stdio_output@@IEAA_NXZ 000000014002d030 f i libucrtd:output.obj
 0001:0002c080       ?crop_zeroes@__crt_stdio_output@@YAXPEADQEAU__crt_locale_pointers@@@Z 000000014002d080 f i libucrtd:output.obj
 0001:0002c1c0       ?find_next_state@?$output_processor@DV?$string_output_adapter@D@__crt_stdio_output@@V?$format_validation_base@DV?$string_output_adapter@D@__crt_stdio_output@@@2@@__crt_stdio_output@@AEBA?AW4state@2@DW432@@Z 000000014002d1c0 f i libucrtd:output.obj
 0001:0002c250       ?find_next_state@?$output_processor@_WV?$string_output_adapter@_W@__crt_stdio_output@@V?$format_validation_base@_WV?$string_output_adapter@_W@__crt_stdio_output@@@2@@__crt_stdio_output@@AEBA?AW4state@2@_WW432@@Z 000000014002d250 f i libucrtd:output.obj
 0001:0002c2e0       ?force_decimal_point@__crt_stdio_output@@YAXPEADQEAU__crt_locale_pointers@@@Z 000000014002d2e0 f i libucrtd:output.obj
 0001:0002c3e0       ?get@__crt_deferred_errno_cache@@QEAAAEAHXZ 000000014002d3e0 f i libucrtd:output.obj
 0001:0002c410       ?has_flag@?$output_processor@DV?$string_output_adapter@D@__crt_stdio_output@@V?$format_validation_base@DV?$string_output_adapter@D@__crt_stdio_output@@@2@@__crt_stdio_output@@AEBA_NI@Z 000000014002d410 f i libucrtd:output.obj
 0001:0002c410       ?has_flag@?$output_processor@_WV?$string_output_adapter@_W@__crt_stdio_output@@V?$format_validation_base@_WV?$string_output_adapter@_W@__crt_stdio_output@@@2@@__crt_stdio_output@@AEBA_NI@Z 000000014002d410 f i libucrtd:output.obj
 0001:0002c450       ?narrow_null_string@?$output_processor@DV?$string_output_adapter@D@__crt_stdio_output@@V?$format_validation_base@DV?$string_output_adapter@D@__crt_stdio_output@@@2@@__crt_stdio_output@@CAPEADXZ 000000014002d450 f i libucrtd:output.obj
 0001:0002c450       ?narrow_null_string@?$output_processor@_WV?$string_output_adapter@_W@__crt_stdio_output@@V?$format_validation_base@_WV?$string_output_adapter@_W@__crt_stdio_output@@@2@@__crt_stdio_output@@CAPEADXZ 000000014002d450 f i libucrtd:output.obj
 0001:0002c460       ?parse_int_from_format_string@?$output_processor@DV?$string_output_adapter@D@__crt_stdio_output@@V?$format_validation_base@DV?$string_output_adapter@D@__crt_stdio_output@@@2@@__crt_stdio_output@@AEAA_NQEAH@Z 000000014002d460 f i libucrtd:output.obj
 0001:0002c550       ?parse_int_from_format_string@?$output_processor@_WV?$string_output_adapter@_W@__crt_stdio_output@@V?$format_validation_base@_WV?$string_output_adapter@_W@__crt_stdio_output@@@2@@__crt_stdio_output@@AEAA_NQEAH@Z 000000014002d550 f i libucrtd:output.obj
 0001:0002c640       ?process@?$output_processor@DV?$string_output_adapter@D@__crt_stdio_output@@V?$format_validation_base@DV?$string_output_adapter@D@__crt_stdio_output@@@2@@__crt_stdio_output@@QEAAHXZ 000000014002d640 f i libucrtd:output.obj
 0001:0002c9a0       ?process@?$output_processor@_WV?$string_output_adapter@_W@__crt_stdio_output@@V?$format_validation_base@_WV?$string_output_adapter@_W@__crt_stdio_output@@@2@@__crt_stdio_output@@QEAAHXZ 000000014002d9a0 f i libucrtd:output.obj
 0001:0002cd00       ?set_flag@?$output_processor@_WV?$string_output_adapter@_W@__crt_stdio_output@@V?$format_validation_base@_WV?$string_output_adapter@_W@__crt_stdio_output@@@2@@__crt_stdio_output@@AEAAXI@Z 000000014002dd00 f i libucrtd:output.obj
 0001:0002cd00       ?set_flag@?$output_processor@DV?$string_output_adapter@D@__crt_stdio_output@@V?$format_validation_base@DV?$string_output_adapter@D@__crt_stdio_output@@@2@@__crt_stdio_output@@AEAAXI@Z 000000014002dd00 f i libucrtd:output.obj
 0001:0002cd20       ?state_case_dot@?$output_processor@_WV?$string_output_adapter@_W@__crt_stdio_output@@V?$format_validation_base@_WV?$string_output_adapter@_W@__crt_stdio_output@@@2@@__crt_stdio_output@@AEAA_NXZ 000000014002dd20 f i libucrtd:output.obj
 0001:0002cd20       ?state_case_dot@?$output_processor@DV?$string_output_adapter@D@__crt_stdio_output@@V?$format_validation_base@DV?$string_output_adapter@D@__crt_stdio_output@@@2@@__crt_stdio_output@@AEAA_NXZ 000000014002dd20 f i libucrtd:output.obj
 0001:0002cd40       ?state_case_flag@?$output_processor@DV?$string_output_adapter@D@__crt_stdio_output@@V?$format_validation_base@DV?$string_output_adapter@D@__crt_stdio_output@@@2@@__crt_stdio_output@@AEAA_NXZ 000000014002dd40 f i libucrtd:output.obj
 0001:0002cde0       ?state_case_flag@?$output_processor@_WV?$string_output_adapter@_W@__crt_stdio_output@@V?$format_validation_base@_WV?$string_output_adapter@_W@__crt_stdio_output@@@2@@__crt_stdio_output@@AEAA_NXZ 000000014002dde0 f i libucrtd:output.obj
 0001:0002ce80       ?state_case_normal@?$output_processor@DV?$string_output_adapter@D@__crt_stdio_output@@V?$format_validation_base@DV?$string_output_adapter@D@__crt_stdio_output@@@2@@__crt_stdio_output@@AEAA_NXZ 000000014002de80 f i libucrtd:output.obj
 0001:0002cf60       ?state_case_normal@?$output_processor@_WV?$string_output_adapter@_W@__crt_stdio_output@@V?$format_validation_base@_WV?$string_output_adapter@_W@__crt_stdio_output@@@2@@__crt_stdio_output@@AEAA_NXZ 000000014002df60 f i libucrtd:output.obj
 0001:0002d040       ?state_case_normal_common@?$output_processor@DV?$string_output_adapter@D@__crt_stdio_output@@V?$format_validation_base@DV?$string_output_adapter@D@__crt_stdio_output@@@2@@__crt_stdio_output@@AEAA_NXZ 000000014002e040 f i libucrtd:output.obj
 0001:0002d090       ?state_case_normal_common@?$output_processor@_WV?$string_output_adapter@_W@__crt_stdio_output@@V?$format_validation_base@_WV?$string_output_adapter@_W@__crt_stdio_output@@@2@@__crt_stdio_output@@AEAA_NXZ 000000014002e090 f i libucrtd:output.obj
 0001:0002d0e0       ?state_case_normal_tchar@?$output_processor@DV?$string_output_adapter@D@__crt_stdio_output@@V?$format_validation_base@DV?$string_output_adapter@D@__crt_stdio_output@@@2@@__crt_stdio_output@@AEAA_ND@Z 000000014002e0e0 f i libucrtd:output.obj
 0001:0002d220       ?state_case_normal_tchar@?$output_processor@_WV?$string_output_adapter@_W@__crt_stdio_output@@V?$format_validation_base@_WV?$string_output_adapter@_W@__crt_stdio_output@@@2@@__crt_stdio_output@@AEAA_N_W@Z 000000014002e220 f i libucrtd:output.obj
 0001:0002d240       ?state_case_percent@?$output_processor@DV?$string_output_adapter@D@__crt_stdio_output@@V?$format_validation_base@DV?$string_output_adapter@D@__crt_stdio_output@@@2@@__crt_stdio_output@@AEAA_NXZ 000000014002e240 f i libucrtd:output.obj
 0001:0002d240       ?state_case_percent@?$output_processor@_WV?$string_output_adapter@_W@__crt_stdio_output@@V?$format_validation_base@_WV?$string_output_adapter@_W@__crt_stdio_output@@@2@@__crt_stdio_output@@AEAA_NXZ 000000014002e240 f i libucrtd:output.obj
 0001:0002d290       ?state_case_precision@?$output_processor@DV?$string_output_adapter@D@__crt_stdio_output@@V?$format_validation_base@DV?$string_output_adapter@D@__crt_stdio_output@@@2@@__crt_stdio_output@@AEAA_NXZ 000000014002e290 f i libucrtd:output.obj
 0001:0002d310       ?state_case_precision@?$output_processor@_WV?$string_output_adapter@_W@__crt_stdio_output@@V?$format_validation_base@_WV?$string_output_adapter@_W@__crt_stdio_output@@@2@@__crt_stdio_output@@AEAA_NXZ 000000014002e310 f i libucrtd:output.obj
 0001:0002d390       ?state_case_size@?$output_processor@DV?$string_output_adapter@D@__crt_stdio_output@@V?$format_validation_base@DV?$string_output_adapter@D@__crt_stdio_output@@@2@@__crt_stdio_output@@AEAA_NXZ 000000014002e390 f i libucrtd:output.obj
 0001:0002d810       ?state_case_size@?$output_processor@_WV?$string_output_adapter@_W@__crt_stdio_output@@V?$format_validation_base@_WV?$string_output_adapter@_W@__crt_stdio_output@@@2@@__crt_stdio_output@@AEAA_NXZ 000000014002e810 f i libucrtd:output.obj
 0001:0002dc90       ?state_case_type@?$output_processor@DV?$string_output_adapter@D@__crt_stdio_output@@V?$format_validation_base@DV?$string_output_adapter@D@__crt_stdio_output@@@2@@__crt_stdio_output@@AEAA_NXZ 000000014002ec90 f i libucrtd:output.obj
 0001:0002e130       ?state_case_type@?$output_processor@_WV?$string_output_adapter@_W@__crt_stdio_output@@V?$format_validation_base@_WV?$string_output_adapter@_W@__crt_stdio_output@@@2@@__crt_stdio_output@@AEAA_NXZ 000000014002f130 f i libucrtd:output.obj
 0001:0002e690       ?state_case_width@?$output_processor@DV?$string_output_adapter@D@__crt_stdio_output@@V?$format_validation_base@DV?$string_output_adapter@D@__crt_stdio_output@@@2@@__crt_stdio_output@@AEAA_NXZ 000000014002f690 f i libucrtd:output.obj
 0001:0002e720       ?state_case_width@?$output_processor@_WV?$string_output_adapter@_W@__crt_stdio_output@@V?$format_validation_base@_WV?$string_output_adapter@_W@__crt_stdio_output@@@2@@__crt_stdio_output@@AEAA_NXZ 000000014002f720 f i libucrtd:output.obj
 0001:0002e7b0       ?state_count@?$format_validation_base@_WV?$string_output_adapter@_W@__crt_stdio_output@@@__crt_stdio_output@@KAIXZ 000000014002f7b0 f i libucrtd:output.obj
 0001:0002e7b0       ?state_count@?$format_validation_base@DV?$string_output_adapter@D@__crt_stdio_output@@@__crt_stdio_output@@KAIXZ 000000014002f7b0 f i libucrtd:output.obj
 0001:0002e7c0       ?state_transition_table@?$format_validation_base@_WV?$string_output_adapter@_W@__crt_stdio_output@@@__crt_stdio_output@@KAAEBV?$spectre_mitigated_lookup_table@Ustate_transition_pair@__crt_stdio_output@@$0IA@@2@XZ 000000014002f7c0 f i libucrtd:output.obj
 0001:0002e7c0       ?state_transition_table@?$format_validation_base@DV?$string_output_adapter@D@__crt_stdio_output@@@__crt_stdio_output@@KAAEBV?$spectre_mitigated_lookup_table@Ustate_transition_pair@__crt_stdio_output@@$0IA@@2@XZ 000000014002f7c0 f i libucrtd:output.obj
 0001:0002e7d0       ?tchar_string@?$common_data@D@__crt_stdio_output@@IEAAAEAPEADD@Z 000000014002f7d0 f i libucrtd:output.obj
 0001:0002e7f0       ?tchar_string@?$common_data@D@__crt_stdio_output@@IEAAAEAPEADXZ 000000014002f7f0 f i libucrtd:output.obj
 0001:0002e810       ?tchar_string@?$common_data@_W@__crt_stdio_output@@IEAAAEAPEA_WXZ 000000014002f810 f i libucrtd:output.obj
 0001:0002e830       ?tchar_string@?$common_data@_W@__crt_stdio_output@@IEAAAEAPEA_W_W@Z 000000014002f830 f i libucrtd:output.obj
 0001:0002e850       ?to_integer_size@__crt_stdio_output@@YA_KW4length_modifier@1@@Z 000000014002f850 f i libucrtd:output.obj
 0001:0002e900       ?type_case_X@?$output_processor@DV?$string_output_adapter@D@__crt_stdio_output@@V?$format_validation_base@DV?$string_output_adapter@D@__crt_stdio_output@@@2@@__crt_stdio_output@@AEAA_NXZ 000000014002f900 f i libucrtd:output.obj
 0001:0002e920       ?type_case_X@?$output_processor@_WV?$string_output_adapter@_W@__crt_stdio_output@@V?$format_validation_base@_WV?$string_output_adapter@_W@__crt_stdio_output@@@2@@__crt_stdio_output@@AEAA_NXZ 000000014002f920 f i libucrtd:output.obj
 0001:0002e940       ?type_case_Z@?$output_processor@DV?$string_output_adapter@D@__crt_stdio_output@@V?$format_validation_base@DV?$string_output_adapter@D@__crt_stdio_output@@@2@@__crt_stdio_output@@AEAA_NXZ 000000014002f940 f i libucrtd:output.obj
 0001:0002ea60       ?type_case_Z@?$output_processor@_WV?$string_output_adapter@_W@__crt_stdio_output@@V?$format_validation_base@_WV?$string_output_adapter@_W@__crt_stdio_output@@@2@@__crt_stdio_output@@AEAA_NXZ 000000014002fa60 f i libucrtd:output.obj
 0001:0002eb80       ?type_case_a@?$output_processor@DV?$string_output_adapter@D@__crt_stdio_output@@V?$format_validation_base@DV?$string_output_adapter@D@__crt_stdio_output@@@2@@__crt_stdio_output@@AEAA_NXZ 000000014002fb80 f i libucrtd:output.obj
 0001:0002ef50       ?type_case_a@?$output_processor@_WV?$string_output_adapter@_W@__crt_stdio_output@@V?$format_validation_base@_WV?$string_output_adapter@_W@__crt_stdio_output@@@2@@__crt_stdio_output@@AEAA_NXZ 000000014002ff50 f i libucrtd:output.obj
 0001:0002f320       ?type_case_c@?$output_processor@DV?$string_output_adapter@D@__crt_stdio_output@@V?$format_validation_base@DV?$string_output_adapter@D@__crt_stdio_output@@@2@@__crt_stdio_output@@AEAA_NXZ 0000000140030320 f i libucrtd:output.obj
 0001:0002f340       ?type_case_c@?$output_processor@_WV?$string_output_adapter@_W@__crt_stdio_output@@V?$format_validation_base@_WV?$string_output_adapter@_W@__crt_stdio_output@@@2@@__crt_stdio_output@@AEAA_NXZ 0000000140030340 f i libucrtd:output.obj
 0001:0002f360       ?type_case_c_tchar@?$output_processor@DV?$string_output_adapter@D@__crt_stdio_output@@V?$format_validation_base@DV?$string_output_adapter@D@__crt_stdio_output@@@2@@__crt_stdio_output@@AEAA_ND@Z 0000000140030360 f i libucrtd:output.obj
 0001:0002f4c0       ?type_case_c_tchar@?$output_processor@_WV?$string_output_adapter@_W@__crt_stdio_output@@V?$format_validation_base@_WV?$string_output_adapter@_W@__crt_stdio_output@@@2@@__crt_stdio_output@@AEAA_N_W@Z 00000001400304c0 f i libucrtd:output.obj
 0001:0002f5f0       ?type_case_d@?$output_processor@DV?$string_output_adapter@D@__crt_stdio_output@@V?$format_validation_base@DV?$string_output_adapter@D@__crt_stdio_output@@@2@@__crt_stdio_output@@AEAA_NXZ 00000001400305f0 f i libucrtd:output.obj
 0001:0002f620       ?type_case_d@?$output_processor@_WV?$string_output_adapter@_W@__crt_stdio_output@@V?$format_validation_base@_WV?$string_output_adapter@_W@__crt_stdio_output@@@2@@__crt_stdio_output@@AEAA_NXZ 0000000140030620 f i libucrtd:output.obj
 0001:0002f650       ?type_case_integer@?$output_processor@DV?$string_output_adapter@D@__crt_stdio_output@@V?$format_validation_base@DV?$string_output_adapter@D@__crt_stdio_output@@@2@@__crt_stdio_output@@AEAA_NI_N@Z 0000000140030650 f i libucrtd:output.obj
 0001:0002faa0       ?type_case_integer@?$output_processor@_WV?$string_output_adapter@_W@__crt_stdio_output@@V?$format_validation_base@_WV?$string_output_adapter@_W@__crt_stdio_output@@@2@@__crt_stdio_output@@AEAA_NI_N@Z 0000000140030aa0 f i libucrtd:output.obj
 0001:0002fef0       ?type_case_n@?$output_processor@DV?$string_output_adapter@D@__crt_stdio_output@@V?$format_validation_base@DV?$string_output_adapter@D@__crt_stdio_output@@@2@@__crt_stdio_output@@AEAA_NXZ 0000000140030ef0 f i libucrtd:output.obj
 0001:00030130       ?type_case_n@?$output_processor@_WV?$string_output_adapter@_W@__crt_stdio_output@@V?$format_validation_base@_WV?$string_output_adapter@_W@__crt_stdio_output@@@2@@__crt_stdio_output@@AEAA_NXZ 0000000140031130 f i libucrtd:output.obj
 0001:00030370       ?type_case_o@?$output_processor@DV?$string_output_adapter@D@__crt_stdio_output@@V?$format_validation_base@DV?$string_output_adapter@D@__crt_stdio_output@@@2@@__crt_stdio_output@@AEAA_NXZ 0000000140031370 f i libucrtd:output.obj
 0001:000303c0       ?type_case_o@?$output_processor@_WV?$string_output_adapter@_W@__crt_stdio_output@@V?$format_validation_base@_WV?$string_output_adapter@_W@__crt_stdio_output@@@2@@__crt_stdio_output@@AEAA_NXZ 00000001400313c0 f i libucrtd:output.obj
 0001:00030410       ?type_case_p@?$output_processor@DV?$string_output_adapter@D@__crt_stdio_output@@V?$format_validation_base@DV?$string_output_adapter@D@__crt_stdio_output@@@2@@__crt_stdio_output@@AEAA_NXZ 0000000140031410 f i libucrtd:output.obj
 0001:00030450       ?type_case_p@?$output_processor@_WV?$string_output_adapter@_W@__crt_stdio_output@@V?$format_validation_base@_WV?$string_output_adapter@_W@__crt_stdio_output@@@2@@__crt_stdio_output@@AEAA_NXZ 0000000140031450 f i libucrtd:output.obj
 0001:00030490       ?type_case_s@?$output_processor@DV?$string_output_adapter@D@__crt_stdio_output@@V?$format_validation_base@DV?$string_output_adapter@D@__crt_stdio_output@@@2@@__crt_stdio_output@@AEAA_NXZ 0000000140031490 f i libucrtd:output.obj
 0001:000305b0       ?type_case_s@?$output_processor@_WV?$string_output_adapter@_W@__crt_stdio_output@@V?$format_validation_base@_WV?$string_output_adapter@_W@__crt_stdio_output@@@2@@__crt_stdio_output@@AEAA_NXZ 00000001400315b0 f i libucrtd:output.obj
 0001:000306d0       ?type_case_s_compute_narrow_string_length@?$output_processor@DV?$string_output_adapter@D@__crt_stdio_output@@V?$format_validation_base@DV?$string_output_adapter@D@__crt_stdio_output@@@2@@__crt_stdio_output@@AEBAHHD@Z 00000001400316d0 f i libucrtd:output.obj
 0001:00030700       ?type_case_s_compute_narrow_string_length@?$output_processor@_WV?$string_output_adapter@_W@__crt_stdio_output@@V?$format_validation_base@_WV?$string_output_adapter@_W@__crt_stdio_output@@@2@@__crt_stdio_output@@AEBAHH_W@Z 0000000140031700 f i libucrtd:output.obj
 0001:00030790       ?type_case_u@?$output_processor@DV?$string_output_adapter@D@__crt_stdio_output@@V?$format_validation_base@DV?$string_output_adapter@D@__crt_stdio_output@@@2@@__crt_stdio_output@@AEAA_NXZ 0000000140031790 f i libucrtd:output.obj
 0001:000307b0       ?type_case_u@?$output_processor@_WV?$string_output_adapter@_W@__crt_stdio_output@@V?$format_validation_base@_WV?$string_output_adapter@_W@__crt_stdio_output@@@2@@__crt_stdio_output@@AEAA_NXZ 00000001400317b0 f i libucrtd:output.obj
 0001:000307d0       ?type_case_x@?$output_processor@DV?$string_output_adapter@D@__crt_stdio_output@@V?$format_validation_base@DV?$string_output_adapter@D@__crt_stdio_output@@@2@@__crt_stdio_output@@AEAA_NXZ 00000001400317d0 f i libucrtd:output.obj
 0001:000307f0       ?type_case_x@?$output_processor@_WV?$string_output_adapter@_W@__crt_stdio_output@@V?$format_validation_base@_WV?$string_output_adapter@_W@__crt_stdio_output@@@2@@__crt_stdio_output@@AEAA_NXZ 00000001400317f0 f i libucrtd:output.obj
 0001:00030810       ?unset_flag@?$output_processor@DV?$string_output_adapter@D@__crt_stdio_output@@V?$format_validation_base@DV?$string_output_adapter@D@__crt_stdio_output@@@2@@__crt_stdio_output@@AEAAXI@Z 0000000140031810 f i libucrtd:output.obj
 0001:00030810       ?unset_flag@?$output_processor@_WV?$string_output_adapter@_W@__crt_stdio_output@@V?$format_validation_base@_WV?$string_output_adapter@_W@__crt_stdio_output@@@2@@__crt_stdio_output@@AEAAXI@Z 0000000140031810 f i libucrtd:output.obj
 0001:00030840       ?update_field_width@?$standard_base@DV?$string_output_adapter@D@__crt_stdio_output@@@__crt_stdio_output@@IEAA_NXZ 0000000140031840 f i libucrtd:output.obj
 0001:00030840       ?update_field_width@?$standard_base@_WV?$string_output_adapter@_W@__crt_stdio_output@@@__crt_stdio_output@@IEAA_NXZ 0000000140031840 f i libucrtd:output.obj
 0001:00030870       ?update_precision@?$standard_base@DV?$string_output_adapter@D@__crt_stdio_output@@@__crt_stdio_output@@IEAA_NXZ 0000000140031870 f i libucrtd:output.obj
 0001:00030870       ?update_precision@?$standard_base@_WV?$string_output_adapter@_W@__crt_stdio_output@@@__crt_stdio_output@@IEAA_NXZ 0000000140031870 f i libucrtd:output.obj
 0001:000308a0       ?validate@?$string_output_adapter@D@__crt_stdio_output@@QEBA_NXZ 00000001400318a0 f i libucrtd:output.obj
 0001:00030960       ?validate@?$string_output_adapter@_W@__crt_stdio_output@@QEBA_NXZ 0000000140031960 f i libucrtd:output.obj
 0001:00030a20       ?validate_and_update_state_at_end_of_format_string@?$format_validation_base@DV?$string_output_adapter@D@__crt_stdio_output@@@__crt_stdio_output@@IEBA_NXZ 0000000140031a20 f i libucrtd:output.obj
 0001:00030ae0       ?validate_and_update_state_at_end_of_format_string@?$format_validation_base@_WV?$string_output_adapter@_W@__crt_stdio_output@@@__crt_stdio_output@@IEBA_NXZ 0000000140031ae0 f i libucrtd:output.obj
 0001:00030ba0       ?wide_null_string@?$output_processor@DV?$string_output_adapter@D@__crt_stdio_output@@V?$format_validation_base@DV?$string_output_adapter@D@__crt_stdio_output@@@2@@__crt_stdio_output@@CAPEA_WXZ 0000000140031ba0 f i libucrtd:output.obj
 0001:00030ba0       ?wide_null_string@?$output_processor@_WV?$string_output_adapter@_W@__crt_stdio_output@@V?$format_validation_base@_WV?$string_output_adapter@_W@__crt_stdio_output@@@2@@__crt_stdio_output@@CAPEA_WXZ 0000000140031ba0 f i libucrtd:output.obj
 0001:00030bb0       ?write_character@?$string_output_adapter@D@__crt_stdio_output@@QEBA_NDQEAH@Z 0000000140031bb0 f i libucrtd:output.obj
 0001:00030c70       ?write_character@?$string_output_adapter@_W@__crt_stdio_output@@QEBA_N_WQEAH@Z 0000000140031c70 f i libucrtd:output.obj
 0001:00030d30       ?write_stored_string_tchar@?$output_processor@DV?$string_output_adapter@D@__crt_stdio_output@@V?$format_validation_base@DV?$string_output_adapter@D@__crt_stdio_output@@@2@@__crt_stdio_output@@AEAA_ND@Z 0000000140031d30 f i libucrtd:output.obj
 0001:00030ef0       ?write_stored_string_tchar@?$output_processor@_WV?$string_output_adapter@_W@__crt_stdio_output@@V?$format_validation_base@_WV?$string_output_adapter@_W@__crt_stdio_output@@@2@@__crt_stdio_output@@AEAA_N_W@Z 0000000140031ef0 f i libucrtd:output.obj
 0001:00031040       ?write_string@?$string_output_adapter@D@__crt_stdio_output@@QEBAXQEBDHQEAHAEAV__crt_deferred_errno_cache@@@Z 0000000140032040 f i libucrtd:output.obj
 0001:000311b0       ?write_string@?$string_output_adapter@_W@__crt_stdio_output@@QEBAXQEB_WHQEAHAEAV__crt_deferred_errno_cache@@@Z 00000001400321b0 f i libucrtd:output.obj
 0001:00031320       __acrt_isleadbyte_l_noupdate 0000000140032320 f i libucrtd:output.obj
 0001:00031350       __acrt_locale_get_ctype_array_value 0000000140032350 f i libucrtd:output.obj
 0001:00031390       __stdio_common_vsnprintf_s 0000000140032390 f   libucrtd:output.obj
 0001:000313f0       __stdio_common_vsnwprintf_s 00000001400323f0 f   libucrtd:output.obj
 0001:00031450       __stdio_common_vsprintf_s  0000000140032450 f   libucrtd:output.obj
 0001:000314a0       _ctype_fast_check_internal 00000001400324a0 f i libucrtd:output.obj
 0001:000314d0       _isdigit_fast_internal     00000001400324d0 f i libucrtd:output.obj
 0001:00031500       _tolower_fast_internal     0000000140032500 f i libucrtd:output.obj
 0001:00031530       abort                      0000000140032530 f   libucrtd:abort.obj
 0001:000315b0       __strncnt                  00000001400325b0 f   libucrtd:strncnt.obj
 0001:00032970       ??1?$__crt_simd_cleanup_guard@$00@@QEAA@XZ 0000000140033970 f i libucrtd:strnlen.obj
 0001:00032980       ?compare_equals@?$__crt_simd_traits@$00E@@SA?AT__m256i@@T2@0@Z 0000000140033980 f i libucrtd:strnlen.obj
 0001:000329c0       ?compare_equals@?$__crt_simd_traits@$00G@@SA?AT__m256i@@T2@0@Z 00000001400339c0 f i libucrtd:strnlen.obj
 0001:00032a00       ?compare_equals@?$__crt_simd_traits@$0A@E@@SA?AT__m128i@@T2@0@Z 0000000140033a00 f i libucrtd:strnlen.obj
 0001:00032a30       ?compare_equals@?$__crt_simd_traits@$0A@G@@SA?AT__m128i@@T2@0@Z 0000000140033a30 f i libucrtd:strnlen.obj
 0001:00032a60       ?compute_byte_mask@?$__crt_simd_pack_traits@$00@@SAHT__m256i@@@Z 0000000140033a60 f i libucrtd:strnlen.obj
 0001:00032a80       ?compute_byte_mask@?$__crt_simd_pack_traits@$0A@@@SAHT__m128i@@@Z 0000000140033a80 f i libucrtd:strnlen.obj
 0001:00032aa0       ?get_zero_pack@?$__crt_simd_pack_traits@$00@@SA?AT__m256i@@XZ 0000000140033aa0 f i libucrtd:strnlen.obj
 0001:00032ad0       ?get_zero_pack@?$__crt_simd_pack_traits@$0A@@@SA?AT__m128i@@XZ 0000000140033ad0 f i libucrtd:strnlen.obj
 0001:00032af0       strnlen                    0000000140033af0 f   libucrtd:strnlen.obj
 0001:00032b20       wcslen                     0000000140033b20 f   libucrtd:strnlen.obj
 0001:00032b40       wcsnlen                    0000000140033b40 f   libucrtd:strnlen.obj
 0001:00032eb0       ??$__acrt_mbs_to_wcs_cp@U__crt_win32_buffer_internal_dynamic_resizing@@@@YAHQEBDAEAV?$__crt_win32_buffer@_WU__crt_win32_buffer_internal_dynamic_resizing@@@@I@Z 0000000140033eb0 f i libucrtd:strftime.obj
 0001:00032f00       ??$__acrt_wcs_to_mbs_cp@U__crt_win32_buffer_no_resizing@@@@YAHQEB_WAEAV?$__crt_win32_buffer@DU__crt_win32_buffer_no_resizing@@@@I@Z 0000000140033f00 f i libucrtd:strftime.obj
 0001:00032f50       ??0?$__crt_win32_buffer@DU__crt_win32_buffer_no_resizing@@@@QEAA@QEAD_K@Z 0000000140033f50 f i libucrtd:strftime.obj
 0001:00032fc0       ??0?$__crt_win32_buffer@DU__crt_win32_buffer_internal_dynamic_resizing@@@@QEAA@XZ 0000000140033fc0 f i libucrtd:argv_wildcards.obj
 0001:00032fc0       ??0?$__crt_win32_buffer@_WU__crt_win32_buffer_internal_dynamic_resizing@@@@QEAA@XZ 0000000140033fc0 f i libucrtd:strftime.obj
 0001:00033020       ??1?$__crt_win32_buffer@DU__crt_win32_buffer_no_resizing@@@@QEAA@XZ 0000000140034020 f i libucrtd:strftime.obj
 0001:00033050       ??1?$__crt_win32_buffer@DU__crt_win32_buffer_internal_dynamic_resizing@@@@QEAA@XZ 0000000140034050 f i libucrtd:argv_wildcards.obj
 0001:00033050       ??1?$__crt_win32_buffer@_WU__crt_win32_buffer_internal_dynamic_resizing@@@@QEAA@XZ 0000000140034050 f i libucrtd:strftime.obj
 0001:00033130       ?_deallocate@?$__crt_win32_buffer@DU__crt_win32_buffer_no_resizing@@@@AEAAXXZ 0000000140034130 f i libucrtd:strftime.obj
 0001:00033170       ?_deallocate@?$__crt_win32_buffer@DU__crt_win32_buffer_internal_dynamic_resizing@@@@AEAAXXZ 0000000140034170 f i libucrtd:argv_wildcards.obj
 0001:00033170       ?_deallocate@?$__crt_win32_buffer@_WU__crt_win32_buffer_internal_dynamic_resizing@@@@AEAAXXZ 0000000140034170 f i libucrtd:strftime.obj
 0001:000331b0       ?allocate@?$__crt_win32_buffer@DU__crt_win32_buffer_no_resizing@@@@QEAAH_K@Z 00000001400341b0 f i libucrtd:strftime.obj
 0001:00033230       ?allocate@?$__crt_win32_buffer@_WU__crt_win32_buffer_internal_dynamic_resizing@@@@QEAAH_K@Z 0000000140034230 f i libucrtd:strftime.obj
 0001:000332c0       ?allocate@__crt_win32_buffer_internal_dynamic_resizing@@SAHQEAPEAX_KAEBV__crt_win32_buffer_empty_debug_info@@@Z 00000001400342c0 f i libucrtd:strftime.obj
 0001:00033320       ?allocate@__crt_win32_buffer_no_resizing@@SAHQEAPEAX_KAEBV__crt_win32_buffer_empty_debug_info@@@Z 0000000140034320 f i libucrtd:strftime.obj
 0001:00033350       ?data@?$__crt_win32_buffer@_WU__crt_win32_buffer_internal_dynamic_resizing@@@@QEAAPEA_WXZ 0000000140034350 f i libucrtd:strftime.obj
 0001:00033350       ?data@?$__crt_win32_buffer@DU__crt_win32_buffer_no_resizing@@@@QEAAPEADXZ 0000000140034350 f i libucrtd:strftime.obj
 0001:00033350       ?data@?$__crt_win32_buffer@DU__crt_win32_buffer_internal_dynamic_resizing@@@@QEAAPEADXZ 0000000140034350 f i libucrtd:argv_wildcards.obj
 0001:00033360       ?deallocate@__crt_win32_buffer_internal_dynamic_resizing@@SAXQEAXAEBV__crt_win32_buffer_empty_debug_info@@@Z 0000000140034360 f i libucrtd:strftime.obj
 0001:00033390       ?set_to_nullptr@?$__crt_win32_buffer@DU__crt_win32_buffer_no_resizing@@@@QEAAXXZ 0000000140034390 f i libucrtd:strftime.obj
 0001:000333d0       ?set_to_nullptr@?$__crt_win32_buffer@_WU__crt_win32_buffer_internal_dynamic_resizing@@@@QEAAXXZ 00000001400343d0 f i libucrtd:strftime.obj
 0001:000333d0       ?set_to_nullptr@?$__crt_win32_buffer@DU__crt_win32_buffer_internal_dynamic_resizing@@@@QEAAXXZ 00000001400343d0 f i libucrtd:argv_wildcards.obj
 0001:00033410       ?size@?$__crt_win32_buffer@DU__crt_win32_buffer_internal_dynamic_resizing@@@@QEAAX_K@Z 0000000140034410 f i libucrtd:argv_wildcards.obj
 0001:00033410       ?size@?$__crt_win32_buffer@DU__crt_win32_buffer_no_resizing@@@@QEAAX_K@Z 0000000140034410 f i libucrtd:strftime.obj
 0001:00033410       ?size@?$__crt_win32_buffer@_WU__crt_win32_buffer_internal_dynamic_resizing@@@@QEAAX_K@Z 0000000140034410 f i libucrtd:strftime.obj
 0001:00033430       ?size@?$__crt_win32_buffer@DU__crt_win32_buffer_no_resizing@@@@QEBA_KXZ 0000000140034430 f i libucrtd:strftime.obj
 0001:00033440       __ascii_tolower            0000000140034440 f i libucrtd:tolower_toupper.obj
 0001:00033460       ?__crt_fast_encode_pointer@@YA?AU__crt_fast_encoded_nullptr_t@@$$T@Z 0000000140034460 f i libucrtd:new_handler.obj
 0001:00033480       ?initialize@?$dual_state_global@P6AH_K@Z@__crt_state_management@@QEAAXQ6AH_K@Z@Z 0000000140034480 f i libucrtd:new_handler.obj
 0001:00033480       ?initialize@?$dual_state_global@PEAU__crt_locale_data@@@__crt_state_management@@QEAAXQEAU__crt_locale_data@@@Z 0000000140034480 f i libucrtd:initialization.obj
 0001:00033480       ?initialize@?$dual_state_global@P6AXH@Z@__crt_state_management@@QEAAXQ6AXH@Z@Z 0000000140034480 f i libucrtd:signal.obj
 0001:00033480       ?initialize@?$dual_state_global@P6AHPEAU_exception@@@Z@__crt_state_management@@QEAAXQ6AHPEAU_exception@@@Z@Z 0000000140034480 f i libucrtd:matherr.obj
 0001:00033480       ?initialize@?$dual_state_global@PEAU__crt_multibyte_data@@@__crt_state_management@@QEAAXQEAU__crt_multibyte_data@@@Z 0000000140034480 f i libucrtd:mbctype.obj
 0001:000334d0       __acrt_initialize_new_handler 00000001400344d0 f   libucrtd:new_handler.obj
 0001:000334f0       _callnewh                  00000001400344f0 f   libucrtd:new_handler.obj
 0001:00033540       _query_new_handler         0000000140034540 f   libucrtd:new_handler.obj
 0001:000335f0       _seh_filter_exe            00000001400345f0 f   libucrtd:exception_filter.obj
 0001:00033a60       __acrt_report_runtime_error 0000000140034a60 f   libucrtd:report_runtime_error.obj
 0001:00033ce0       _query_app_type            0000000140034ce0 f   libucrtd:report_runtime_error.obj
 0001:00033cf0       _set_app_type              0000000140034cf0 f   libucrtd:report_runtime_error.obj
 0001:00033d00       ??$__crt_fast_encode_pointer@P6AXXZ@@YAP6AXXZQ6AXXZ@Z 0000000140034d00 f i libucrtd:onexit.obj
 0001:00033d00       ??$__crt_fast_encode_pointer@P6AHPEA_WK_J@Z@@YAP6AHPEA_WK_J@ZQ6AH0K1@Z@Z 0000000140034d00 f i libucrtd:winapi_thunks.obj
 0001:00033d00       ??$__crt_fast_encode_pointer@PEAX@@YAPEAXQEAX@Z 0000000140034d00 f i libucrtd:initialization.obj
 0001:00033d00       ??$__crt_fast_encode_pointer@P6AXPEAXK0@Z@@YAP6AXPEAXK0@ZQ6AX0K0@Z@Z 0000000140034d00 f i libucrtd:exit.obj
 0001:00033d00       ??$__crt_fast_encode_pointer@P6AXH@Z@@YAP6AXH@ZQ6AXH@Z@Z 0000000140034d00 f i libucrtd:signal.obj
 0001:00033d00       ??$__crt_fast_encode_pointer@PEAP6AXXZ@@YAPEAP6AXXZQEAP6AXXZ@Z 0000000140034d00 f i libucrtd:onexit.obj
 0001:00033d00       ??$__crt_fast_encode_pointer@P6AHXZ@@YAP6AHXZQ6AHXZ@Z 0000000140034d00 f i libucrtd:onexit.obj
 0001:00033d00       ??$__crt_fast_encode_pointer@P6AHPEAU_exception@@@Z@@YAP6AHPEAU_exception@@@ZQ6AH0@Z@Z 0000000140034d00 f i libucrtd:matherr.obj
 0001:00033d40       __acrt_has_user_matherr    0000000140034d40 f   libucrtd:matherr.obj
 0001:00033d80       __acrt_initialize_user_matherr 0000000140034d80 f   libucrtd:matherr.obj
 0001:00033da0       __acrt_invoke_user_matherr 0000000140034da0 f   libucrtd:matherr.obj
 0001:00033df0       __setusermatherr           0000000140034df0 f   libucrtd:matherr.obj
 0001:00034650       ??$set_program_name@PEAD@?$__crt_char_traits@D@@SAX$$QEAPEAD@Z 0000000140035650 f i libucrtd:argv_parsing.obj
 0001:00034780       __acrt_allocate_buffer_for_argv 0000000140035780 f   libucrtd:argv_parsing.obj
 0001:000348a0       _configure_narrow_argv     00000001400358a0 f   libucrtd:argv_parsing.obj
 0001:000348c0       _set_pgmptr                00000001400358c0 f i libucrtd:argv_parsing.obj
 0001:00034be0       ??$tcslen@AEAPEAD@?$__crt_char_traits@D@@SA_KAEAPEAD@Z 0000000140035be0 f i libucrtd:environment_initialization.obj
 0001:00034c2c       ??B?$__crt_unique_heap_ptr@PEADU__crt_internal_free_policy@@@@QEBA_NXZ 0000000140035c2c f i libucrtd:environment_initialization.obj
 0001:00034c34       __dcrt_get_or_create_narrow_environment_nolock 0000000140035c34 f   libucrtd:environment_initialization.obj
 0001:00034c70       __dcrt_uninitialize_environments_nolock 0000000140035c70 f   libucrtd:environment_initialization.obj
 0001:00034ca8       _get_initial_narrow_environment 0000000140035ca8 f   libucrtd:environment_initialization.obj
 0001:00034cf8       _initialize_narrow_environment 0000000140035cf8 f   libucrtd:environment_initialization.obj
 0001:00034d00       _initterm                  0000000140035d00 f   libucrtd:initterm.obj
 0001:00034d60       _initterm_e                0000000140035d60 f   libucrtd:initterm.obj
 0001:00034de0       ??$?B$$A6AXPEAXK0@Z@__crt_fast_encoded_nullptr_t@@QEBAP6AXPEAXK0@ZXZ 0000000140035de0 f i libucrtd:exit.obj
 0001:00034de0       ??$?B$$A6AXXZ@__crt_fast_encoded_nullptr_t@@QEBAP6AXXZXZ 0000000140035de0 f i libucrtd:onexit.obj
 0001:00034de0       ??$?BX@__crt_fast_encoded_nullptr_t@@QEBAPEAXXZ 0000000140035de0 f i libucrtd:initialization.obj
 0001:00034de0       ??$?BP6AXXZ@__crt_fast_encoded_nullptr_t@@QEBAPEAP6AXXZXZ 0000000140035de0 f i libucrtd:onexit.obj
 0001:00034de0       ??$?B$$A6AXH@Z@__crt_fast_encoded_nullptr_t@@QEBAP6AXH@ZXZ 0000000140035de0 f i libucrtd:signal.obj
 0001:00034de0       ??$?B$$A6AHPEA_WK_J@Z@__crt_fast_encoded_nullptr_t@@QEBAP6AHPEA_WK_J@ZXZ 0000000140035de0 f i libucrtd:winapi_thunks.obj
 0001:00034e90       ??$__crt_get_proc_address@P6AXI@Z@@YAP6AXI@ZQEAUHINSTANCE__@@QEBD@Z 0000000140035e90 f i libucrtd:exit.obj
 0001:00034ec0       ??1?$__crt_unique_handle_t@U__crt_hmodule_traits@@@@QEAA@XZ 0000000140035ec0 f i libucrtd:exit.obj
 0001:00034fe0       ?__acrt_select_exit_lock@@YA?AW4__acrt_lock_id@@XZ 0000000140035fe0 f i libucrtd:exit.obj
 0001:00035010       ?close@?$__crt_unique_handle_t@U__crt_hmodule_traits@@@@QEAAXXZ 0000000140036010 f i libucrtd:exit.obj
 0001:00035050       ?close@__crt_hmodule_traits@@SA_NPEAUHINSTANCE__@@@Z 0000000140036050 f i libucrtd:exit.obj
 0001:00035310       __acrt_initialize_thread_local_exit_callback 0000000140036310 f   libucrtd:exit.obj
 0001:00035330       _c_exit                    0000000140036330 f   libucrtd:exit.obj
 0001:00035350       _cexit                     0000000140036350 f   libucrtd:exit.obj
 0001:00035370       _exit                      0000000140036370 f   libucrtd:exit.obj
 0001:00035390       _register_thread_local_exe_atexit_callback 0000000140036390 f   libucrtd:exit.obj
 0001:000353e0       exit                       00000001400363e0 f   libucrtd:exit.obj
 0001:00035400       ?value@?$dual_state_global@J@__crt_state_management@@QEAAAEAJXZ 0000000140036400 f i libucrtd:new_mode.obj
 0001:00035400       ?value@?$dual_state_global@H@__crt_state_management@@QEAAAEAHXZ 0000000140036400 f i libucrtd:setmode.obj
 0001:00035420       _get_fmode                 0000000140036420 f   libucrtd:setmode.obj
 0001:000354f0       _set_fmode                 00000001400364f0 f   libucrtd:setmode.obj
 0001:000355d0       _setmode_nolock            00000001400365d0 f   libucrtd:setmode.obj
 0001:00035890       __acrt_initialize_command_line 0000000140036890 f   libucrtd:argv_data.obj
 0001:000358c0       __acrt_uninitialize_command_line 00000001400368c0 f   libucrtd:argv_data.obj
 0001:000358d0       __p___argc                 00000001400368d0 f   libucrtd:argv_data.obj
 0001:000358e0       __p___argv                 00000001400368e0 f   libucrtd:argv_data.obj
 0001:00035b40       ??0_expandlocale_locale_name_cache@@QEAA@QEA_W_KQEAU__crt_qualified_locale_data@@@Z 0000000140036b40 f i libucrtd:wsetlocale.obj
 0001:00035bf0       ??1_expandlocale_locale_name_cache@@QEAA@XZ 0000000140036bf0 f i libucrtd:wsetlocale.obj
 0001:00035f90       ?commit_locale_name@_expandlocale_locale_name_cache@@QEAAXQEB_W_K@Z 0000000140036f90 f i libucrtd:wsetlocale.obj
 0001:00036010       ?commit_locale_name_cache_already_updated@_expandlocale_locale_name_cache@@QEAAXQEB_W_K@Z 0000000140037010 f i libucrtd:wsetlocale.obj
 0001:00036080       __acrt_copy_locale_name    0000000140037080 f   libucrtd:wsetlocale.obj
 0001:00036150       __acrt_set_locale_changed  0000000140037150 f   libucrtd:wsetlocale.obj
 0001:00036160       __acrt_uninitialize_locale 0000000140037160 f   libucrtd:wsetlocale.obj
 0001:00036190       __ascii_towlower           0000000140037190 f i libucrtd:wsetlocale.obj
 0001:000361b0       __lc_lctowcs               00000001400371b0 f   libucrtd:wsetlocale.obj
 0001:000362a0       __lc_wcstolc               00000001400372a0 f   libucrtd:wsetlocale.obj
 0001:00036560       _configthreadlocale        0000000140037560 f   libucrtd:wsetlocale.obj
 0001:00036d80       _wcscats                   0000000140037d80 f   libucrtd:wsetlocale.obj
 0001:00036e60       _wsetlocale                0000000140037e60 f   libucrtd:wsetlocale.obj
 0001:00038a70       _query_new_mode            0000000140039a70 f   libucrtd:new_mode.obj
 0001:00038a90       _set_new_mode              0000000140039a90 f   libucrtd:new_mode.obj
 0001:00038b60       __p__commode               0000000140039b60 f   libucrtd:ncommode.obj
 0001:000391f0       _crt_atexit                000000014003a1f0 f   libucrtd:onexit.obj
 0001:00039210       _execute_onexit_table      000000014003a210 f   libucrtd:onexit.obj
 0001:00039250       _initialize_onexit_table   000000014003a250 f   libucrtd:onexit.obj
 0001:000392d0       _register_onexit_function  000000014003a2d0 f   libucrtd:onexit.obj
 0001:000395b0       __acrt_initialize          000000014003a5b0 f   libucrtd:initialization.obj
 0001:000395e0       __acrt_uninitialize        000000014003a5e0 f   libucrtd:initialization.obj
 0001:00039610       terminate                  000000014003a610 f   libucrtd:terminate.obj
 0001:00039b20       strcpy_s                   000000014003ab20 f   libucrtd:strcpy_s.obj
 0001:00039b50       ??$is_overflow_condition@K@__crt_strtox@@YA_NIK@Z 000000014003ab50 f i libucrtd:atox.obj
 0001:00039bc0       ??$parse_integer@KV?$c_string_character_source@D@__crt_strtox@@@__crt_strtox@@YAKQEAU__crt_locale_pointers@@V?$c_string_character_source@D@0@H_N@Z 000000014003abc0 f i libucrtd:atox.obj
 0001:0003a050       ??$parse_integer@KV?$c_string_character_source@_W@__crt_strtox@@@__crt_strtox@@YAKQEAU__crt_locale_pointers@@V?$c_string_character_source@_W@0@H_N@Z 000000014003b050 f i libucrtd:atox.obj
 0001:0003a500       ??$parse_integer_from_string@J_W$$T@__crt_strtox@@YAJQEB_W$$THQEAU__crt_locale_pointers@@@Z 000000014003b500 f i libucrtd:atox.obj
 0001:0003a500       ??$parse_integer_from_string@J_WPEAPEA_W@__crt_strtox@@YAJQEB_WQEAPEA_WHQEAU__crt_locale_pointers@@@Z 000000014003b500 f i libucrtd:strtox.obj
 0001:0003a550       ?maximum_signed_value@__crt_strtox@@YAJK@Z 000000014003b550 f i libucrtd:atox.obj
 0001:0003a560       ?minimum_signed_value@__crt_strtox@@YAJK@Z 000000014003b560 f i libucrtd:atox.obj
 0001:0003a570       _wtol                      000000014003b570 f   libucrtd:atox.obj
 0001:0003a5b0       strncmp                    000000014003b5b0 f   libucrtd:strncmp.obj
 0001:0003a630       wcsncmp                    000000014003b630 f   libucrtd:wcsncmp.obj
 0001:0003a900       ??0__crt_scoped_get_last_error_reset@@QEAA@XZ 000000014003b900 f i libucrtd:per_thread_data.obj
 0001:0003a920       ??1__crt_scoped_get_last_error_reset@@QEAA@XZ 000000014003b920 f i libucrtd:per_thread_data.obj
 0001:0003afc0       __acrt_getptd              000000014003bfc0 f   libucrtd:per_thread_data.obj
 0001:0003aff0       __acrt_getptd_head         000000014003bff0 f   libucrtd:per_thread_data.obj
 0001:0003b020       __acrt_getptd_noexit       000000014003c020 f   libucrtd:per_thread_data.obj
 0001:0003b030       __acrt_initialize_ptd      000000014003c030 f   libucrtd:per_thread_data.obj
 0001:0003b070       __acrt_uninitialize_ptd    000000014003c070 f   libucrtd:per_thread_data.obj
 0001:0003b0a0       _chvalidator               000000014003c0a0 f   libucrtd:isctype.obj
 0001:0003b110       _chvalidator_l             000000014003c110 f   libucrtd:isctype.obj
 0001:0003b1c0       _isctype_l                 000000014003c1c0 f   libucrtd:isctype.obj
 0001:0003b3f0       _isleadbyte_fast_internal  000000014003c3f0 f i libucrtd:isctype.obj
 0001:0003b430       _free_base                 000000014003c430 f   libucrtd:free_base.obj
 0001:0003b490       _realloc_base              000000014003c490 f   libucrtd:realloc_base.obj
 0001:0003b5b0       _expand_base               000000014003c5b0 f   libucrtd:expand.obj
 0001:0003b740       __acrt_update_locale_info  000000014003c740 f   libucrtd:locale_update.obj
 0001:0003b790       __acrt_update_multibyte_info 000000014003c790 f   libucrtd:locale_update.obj
 0001:0003b7e0       _CrtDefaultAllocHook       000000014003c7e0 f   libucrtd:debug_heap_hook.obj
 0001:0003b800       __acrt_initialize_heap     000000014003c800 f   libucrtd:heap_handle.obj
 0001:0003b830       __acrt_uninitialize_heap   000000014003c830 f   libucrtd:heap_handle.obj
 0001:0003b850       _VCrtDbgReportA            000000014003c850 f   libucrtd:dbgrptt.obj
 0001:0003c230       _VCrtDbgReportW            000000014003d230 f   libucrtd:dbgrptt.obj
 0001:0003cdb0       _snprintf_s                000000014003ddb0 f i libucrtd:dbgrptt.obj
 0001:0003ce20       _vsnprintf_s               000000014003de20 f i libucrtd:dbgrptt.obj
 0001:0003ce70       _vsnprintf_s_l             000000014003de70 f i libucrtd:dbgrptt.obj
 0001:0003d3d0       wcscpy_s                   000000014003e3d0 f   libucrtd:wcscpy_s.obj
 0001:0003d400       ?__acrt_get_utf8_acp_compatibility_codepage@@YAIXZ 000000014003e400 f i libucrtd:getmodulefilenamea.obj
 0001:0003d4a0       __acrt_GetModuleFileNameA  000000014003e4a0 f   libucrtd:getmodulefilenamea.obj
 0001:0003d6c0       ??$message_box@PEAUHWND__@@AEBQEB_WAEBQEB_WAEBI@?$__crt_char_traits@_W@@SAH$$QEAPEAUHWND__@@AEBQEB_W1AEBI@Z 000000014003e6c0 f i libucrtd:crtmbox.obj
 0001:0003d6c0       ??$message_box@$$TAEBQEB_WAEBQEB_WK@?$__crt_char_traits@_W@@SAH$$QEA$$TAEBQEB_W1$$QEAK@Z 000000014003e6c0 f i libucrtd:crtmbox.obj
 0001:0003d710       ??$output_debug_string@AEBQEB_W@?$__crt_char_traits@_W@@SAXAEBQEB_W@Z 000000014003e710 f i libucrtd:crtmbox.obj
 0001:0003d730       __acrt_show_wide_message_box 000000014003e730 f   libucrtd:crtmbox.obj
 0001:0003d920       __acrt_get_sigabrt_handler 000000014003e920 f   libucrtd:signal.obj
 0001:0003d950       __acrt_initialize_signal_handlers 000000014003e950 f   libucrtd:signal.obj
 0001:0003d9b0       __fpecode                  000000014003e9b0 f   libucrtd:signal.obj
 0001:0003d9d0       raise                      000000014003e9d0 f   libucrtd:signal.obj
 0001:0003e100       _close                     000000014003f100 f   libucrtd:close.obj
 0001:0003e2f0       _close_nolock              000000014003f2f0 f   libucrtd:close.obj
 0001:0003e360       _fileno                    000000014003f360 f   libucrtd:fileno.obj
 0001:0003e440       ?__acrt_stdio_allocate_stream@@YA?AV__crt_stdio_stream@@XZ 000000014003f440 f   libucrtd:stream.obj
 0001:0003e500       ?__acrt_stdio_free_stream@@YAXV__crt_stdio_stream@@@Z 000000014003f500 f   libucrtd:stream.obj
 0001:0003e5a0       ?deallocate@__crt_stdio_stream@@QEAAXXZ 000000014003f5a0 f i libucrtd:stream.obj
 0001:0003e770       ?lock@__crt_stdio_stream@@QEBAXXZ 000000014003f770 f i libucrtd:stream.obj
 0001:0003e790       ?try_allocate@__crt_stdio_stream@@QEAA_NXZ 000000014003f790 f i libucrtd:stream.obj
 0001:0003e800       __acrt_stdio_free_buffer_nolock 000000014003f800 f   libucrtd:_freebuf.obj
 0001:0003e8e0       ??$__acrt_stdio_parse_mode@D@@YA?AU__acrt_stdio_stream_mode@@QEBD@Z 000000014003f8e0 f i libucrtd:openfile.obj
 0001:0003f630       ??$tcsncmp@AEAPEBDAEAY02$$CBD_K@?$__crt_char_traits@D@@SAHAEAPEBDAEAY02$$CBD$$QEA_K@Z 0000000140040630 f i libucrtd:openfile.obj
 0001:0003f670       ??$tcsnicmp@AEAPEBDAEAY04$$CBD_K@?$__crt_char_traits@D@@SAHAEAPEBDAEAY04$$CBD$$QEA_K@Z 0000000140040670 f i libucrtd:openfile.obj
 0001:0003f670       ??$tcsnicmp@AEAPEBDAEAY06$$CBD_K@?$__crt_char_traits@D@@SAHAEAPEBDAEAY06$$CBD$$QEA_K@Z 0000000140040670 f i libucrtd:openfile.obj
 0001:0003f670       ??$tcsnicmp@AEAPEBDAEAY07$$CBD_K@?$__crt_char_traits@D@@SAHAEAPEBDAEAY07$$CBD$$QEA_K@Z 0000000140040670 f i libucrtd:openfile.obj
 0001:0003f6b0       ??$tsopen_s@PEAHAEBQEBDAEBHAEBHH@?$__crt_char_traits@D@@SAH$$QEAPEAHAEBQEBDAEBH2$$QEAH@Z 00000001400406b0 f i libucrtd:openfile.obj
 0001:0003f700       ?__acrt_stdio_parse_mode_D@@YA_NAEAU__acrt_stdio_stream_mode@@@Z 0000000140040700 f i libucrtd:openfile.obj
 0001:0003f730       ?__acrt_stdio_parse_mode_N@@YA_NAEAU__acrt_stdio_stream_mode@@@Z 0000000140040730 f i libucrtd:openfile.obj
 0001:0003f750       ?__acrt_stdio_parse_mode_R@@YA_NAEAU__acrt_stdio_stream_mode@@AEA_N@Z 0000000140040750 f i libucrtd:openfile.obj
 0001:0003f790       ?__acrt_stdio_parse_mode_S@@YA_NAEAU__acrt_stdio_stream_mode@@AEA_N@Z 0000000140040790 f i libucrtd:openfile.obj
 0001:0003f7d0       ?__acrt_stdio_parse_mode_T@@YA_NAEAU__acrt_stdio_stream_mode@@@Z 00000001400407d0 f i libucrtd:openfile.obj
 0001:0003f800       ?__acrt_stdio_parse_mode_b@@YA_NAEAU__acrt_stdio_stream_mode@@@Z 0000000140040800 f i libucrtd:openfile.obj
 0001:0003f830       ?__acrt_stdio_parse_mode_c@@YA_NAEAU__acrt_stdio_stream_mode@@AEA_N@Z 0000000140040830 f i libucrtd:openfile.obj
 0001:0003f870       ?__acrt_stdio_parse_mode_n@@YA_NAEAU__acrt_stdio_stream_mode@@AEA_N@Z 0000000140040870 f i libucrtd:openfile.obj
 0001:0003f8b0       ?__acrt_stdio_parse_mode_plus@@YA_NAEAU__acrt_stdio_stream_mode@@AEA_N@Z 00000001400408b0 f i libucrtd:openfile.obj
 0001:0003f930       ?__acrt_stdio_parse_mode_t@@YA_NAEAU__acrt_stdio_stream_mode@@@Z 0000000140040930 f i libucrtd:openfile.obj
 0001:0003f960       ?__acrt_stdio_parse_mode_x@@YA_NAEAU__acrt_stdio_stream_mode@@@Z 0000000140040960 f i libucrtd:openfile.obj
 0001:0003f990       _openfile                  0000000140040990 f   libucrtd:openfile.obj
 0001:000407e0       _read                      00000001400417e0 f   libucrtd:read.obj
 0001:00040b30       _read_nolock               0000000140041b30 f   libucrtd:read.obj
 0001:00041d80       __acrt_stdio_refill_and_read_narrow_nolock 0000000140042d80 f   libucrtd:_filbuf.obj
 0001:000421c0       _lseeki64                  00000001400431c0 f   libucrtd:lseek.obj
 0001:000421f0       _lseeki64_nolock           00000001400431f0 f   libucrtd:lseek.obj
 0001:000425c0       __acrt_initialize_lowio    00000001400435c0 f   libucrtd:ioinit.obj
 0001:00042610       __acrt_uninitialize_lowio  0000000140043610 f   libucrtd:ioinit.obj
 0001:00042860       _handle_error              0000000140043860 f   libucrtd:libm_error.obj
 0001:000429f0       _handle_errorf             00000001400439f0 f   libucrtd:libm_error.obj
 0001:00042b80       _handle_nan                0000000140043b80 f   libucrtd:libm_error.obj
 0001:00042bd0       _handle_nanf               0000000140043bd0 f   libucrtd:libm_error.obj
 0001:000436a0       GetCurrentThreadEffectiveToken 00000001400446a0 f i libucrtd:winapi_thunks.obj
 0001:000436b0       __acrt_AppPolicyGetProcessTerminationMethodInternal 00000001400446b0 f   libucrtd:winapi_thunks.obj
 0001:00043700       __acrt_AppPolicyGetShowDeveloperDiagnosticInternal 0000000140044700 f   libucrtd:winapi_thunks.obj
 0001:00043750       __acrt_AppPolicyGetWindowingModelInternal 0000000140044750 f   libucrtd:winapi_thunks.obj
 0001:000437a0       __acrt_AreFileApisANSI     00000001400447a0 f   libucrtd:winapi_thunks.obj
 0001:000437e0       __acrt_CompareStringEx     00000001400447e0 f   libucrtd:winapi_thunks.obj
 0001:000438c0       __acrt_EnumSystemLocalesEx 00000001400448c0 f   libucrtd:winapi_thunks.obj
 0001:00043940       __acrt_FlsAlloc            0000000140044940 f   libucrtd:winapi_thunks.obj
 0001:00043990       __acrt_FlsFree             0000000140044990 f   libucrtd:winapi_thunks.obj
 0001:000439e0       __acrt_FlsGetValue         00000001400449e0 f   libucrtd:winapi_thunks.obj
 0001:00043a30       __acrt_FlsSetValue         0000000140044a30 f   libucrtd:winapi_thunks.obj
 0001:00043a90       __acrt_GetLocaleInfoEx     0000000140044a90 f   libucrtd:winapi_thunks.obj
 0001:00043b10       __acrt_GetUserDefaultLocaleName 0000000140044b10 f   libucrtd:winapi_thunks.obj
 0001:00043b70       __acrt_InitializeCriticalSectionEx 0000000140044b70 f   libucrtd:winapi_thunks.obj
 0001:00043bd0       __acrt_IsValidLocaleName   0000000140044bd0 f   libucrtd:winapi_thunks.obj
 0001:00043c30       __acrt_LCIDToLocaleName    0000000140044c30 f   libucrtd:winapi_thunks.obj
 0001:00043ca0       __acrt_LCMapStringEx       0000000140044ca0 f   libucrtd:winapi_thunks.obj
 0001:00043d80       __acrt_LocaleNameToLCID    0000000140044d80 f   libucrtd:winapi_thunks.obj
 0001:00043dd0       __acrt_MessageBoxW         0000000140044dd0 f   libucrtd:winapi_thunks.obj
 0001:00043e30       __acrt_can_show_message_box 0000000140044e30 f   libucrtd:winapi_thunks.obj
 0001:00043e70       __acrt_can_use_vista_locale_apis 0000000140044e70 f   libucrtd:winapi_thunks.obj
 0001:00043ea0       __acrt_eagerly_load_locale_apis 0000000140044ea0 f   libucrtd:winapi_thunks.obj
 0001:00043ee0       __acrt_get_parent_window   0000000140044ee0 f   libucrtd:winapi_thunks.obj
 0001:00043f60       __acrt_initialize_winapi_thunks 0000000140044f60 f   libucrtd:winapi_thunks.obj
 0001:00043fe0       __acrt_is_interactive      0000000140044fe0 f   libucrtd:winapi_thunks.obj
 0001:000440c0       __acrt_uninitialize_winapi_thunks 00000001400450c0 f   libucrtd:winapi_thunks.obj
 0001:00044740       _mbstowcs_s_l              0000000140045740 f   libucrtd:mbstowcs.obj
 0001:00044d10       mbstowcs_s                 0000000140045d10 f   libucrtd:mbstowcs.obj
 0001:000456a0       _wcstombs_s_l              00000001400466a0 f   libucrtd:wcstombs.obj
 0001:00045be0       wcstombs_s                 0000000140046be0 f   libucrtd:wcstombs.obj
 0001:00045e40       __acrt_GetLocaleInfoA      0000000140046e40 f   libucrtd:getlocaleinfoa.obj
 0001:000462a0       __acrt_GetStringTypeA      00000001400472a0 f   libucrtd:getstringtypea.obj
 0001:00046af0       __acrt_LCMapStringA        0000000140047af0 f   libucrtd:lcmapstringa.obj
 0001:00046ba0       _fcloseall                 0000000140047ba0 f   libucrtd:closeall.obj
 0001:00046e20       _commit                    0000000140047e20 f   libucrtd:commit.obj
 0001:00048a00       _write                     0000000140049a00 f   libucrtd:write.obj
 0001:00048ca0       _write_nolock              0000000140049ca0 f   libucrtd:write.obj
 0001:00049800       __acrt_stdio_flush_and_write_narrow_nolock 000000014004a800 f   libucrtd:_flsbuf.obj
 0001:00049830       ?has_temporary_buffer@__crt_stdio_stream@@QEBA_NXZ 000000014004a830 f i libucrtd:_sftbuf.obj
 0001:00049850       __acrt_should_use_temporary_buffer 000000014004a850 f   libucrtd:_sftbuf.obj
 0001:000498a0       __acrt_stdio_begin_temporary_buffering_nolock 000000014004a8a0 f   libucrtd:_sftbuf.obj
 0001:00049ae0       __acrt_stdio_end_temporary_buffering_nolock 000000014004aae0 f   libucrtd:_sftbuf.obj
 0001:00049b80       __acrt_stdio_allocate_buffer_nolock 000000014004ab80 f   libucrtd:_getbuf.obj
 0001:00049d00       __acrt_initialize_fma3     000000014004ad00 f   libucrtd:fma3_available.obj
 0001:00049db0       _pow_special               000000014004adb0 f   libucrtd:pow_special.obj
 0001:0004a030       _powf_special              000000014004b030 f   libucrtd:pow_special.obj
 0001:0004a370       _raise_exc                 000000014004b370 f   libucrtd:fpexcept.obj
 0001:0004a3d0       _raise_exc_ex              000000014004b3d0 f   libucrtd:fpexcept.obj
 0001:0004aa50       _raise_excf                000000014004ba50 f   libucrtd:fpexcept.obj
 0001:0004aab0       _set_errno_from_matherr    000000014004bab0 f   libucrtd:fpexcept.obj
 0001:0004ab00       _clrfp                     000000014004bb00 f   libucrtd:fpctrl.obj
 0001:0004ab30       _ctrlfp                    000000014004bb30 f   libucrtd:fpctrl.obj
 0001:0004abe0       _set_statfp                000000014004bbe0 f   libucrtd:fpctrl.obj
 0001:0004ac20       _statfp                    000000014004bc20 f   libucrtd:fpctrl.obj
 0001:0004ac50       iswctype                   000000014004bc50 f   libucrtd:iswctype.obj
 0001:0004ace0       fegetround                 000000014004bce0 f   libucrtd:fegetround.obj
 0001:0004ad00       _CrtGetDebugFillThreshold  000000014004bd00 f   libucrtd:debug_fill_threshold.obj
 0001:0004ad10       ??$parse_integer_from_string@JDPEAPEAD@__crt_strtox@@YAJQEBDQEAPEADHQEAU__crt_locale_pointers@@@Z 000000014004bd10 f i libucrtd:strtox.obj
 0001:0004ad60       strtol                     000000014004bd60 f   libucrtd:strtox.obj
 0001:0004ad90       wcstol                     000000014004bd90 f   libucrtd:strtox.obj
 0001:0004adc0       _mbtowc_l                  000000014004bdc0 f   libucrtd:mbtowc.obj
 0001:0004b220       mbtowc                     000000014004c220 f   libucrtd:mbtowc.obj
 0001:0004b250       _wctomb_s_l                000000014004c250 f   libucrtd:wctomb.obj
 0001:0004b7d0       ?__acrt_fp_classify@@YA?AW4__acrt_fp_class@@AEBN@Z 000000014004c7d0 f i libucrtd:cvt.obj
 0001:0004b8d0       ?__acrt_fp_is_negative@@YA_NAEBN@Z 000000014004c8d0 f i libucrtd:cvt.obj
 0001:0004d2a0       ?strrchr@@YAPEADQEADH@Z    000000014004e2a0 f i libucrtd:cvt.obj
 0001:0004d2c0       __acrt_fp_format           000000014004e2c0 f   libucrtd:cvt.obj
 0001:0004d8d0       _get_printf_count_output   000000014004e8d0 f   libucrtd:printf_count_output.obj
 0001:0004d9a0       __acrt_MultiByteToWideChar 000000014004e9a0 f   libucrtd:multibytetowidechar.obj
 0001:0004daa0       __acrt_WideCharToMultiByte 000000014004eaa0 f   libucrtd:widechartomultibyte.obj
 0001:0004dbd0       __ascii_wcsicmp            000000014004ebd0 f   libucrtd:wcsicmp.obj
 0001:0004dc70       _towlower_fast_internal    000000014004ec70 f i libucrtd:wcsicmp.obj
 0001:0004dcc0       _towlower_internal         000000014004ecc0 f i libucrtd:wcsicmp.obj
 0001:0004dd00       _wcsicmp                   000000014004ed00 f   libucrtd:wcsicmp.obj
 0001:0004dea0       _wcsicmp_l                 000000014004eea0 f   libucrtd:wcsicmp.obj
 0001:0004e140       ?initialize@?$dual_state_global@J@__crt_state_management@@QEAAXJ@Z 000000014004f140 f i libucrtd:timeset.obj
 0001:0004e140       ?initialize@?$dual_state_global@H@__crt_state_management@@QEAAXH@Z 000000014004f140 f i libucrtd:timeset.obj
 0001:0004e190       __acrt_initialize_timeset  000000014004f190 f   libucrtd:timeset.obj
 0001:0004e270       _isleadbyte_l              000000014004f270 f i libucrtd:_wctype.obj
 0001:0004e2d0       _set_error_mode            000000014004f2d0 f   libucrtd:set_error_mode.obj
 0001:0004ea50       wcscat_s                   000000014004fa50 f   libucrtd:wcscat_s.obj
 0001:0004f120       wcsncpy_s                  0000000140050120 f   libucrtd:wcsncpy_s.obj
 0001:0004f330       ??$__acrt_wcs_to_mbs_cp@U__crt_win32_buffer_internal_dynamic_resizing@@@@YAHQEB_WAEAV?$__crt_win32_buffer@DU__crt_win32_buffer_internal_dynamic_resizing@@@@I@Z 0000000140050330 f i libucrtd:argv_wildcards.obj
 0001:0004fd80       ??$tcsncpy_s@PEAD_KAEBQEBDAEB_K@?$__crt_char_traits@D@@SAH$$QEAPEAD$$QEA_KAEBQEBDAEB_K@Z 0000000140050d80 f i libucrtd:argv_wildcards.obj
 0001:0004fd80       ??$tcsncpy_s@PEADAEB_KAEBQEBDAEB_K@?$__crt_char_traits@D@@SAH$$QEAPEADAEB_KAEBQEBD1@Z 0000000140050d80 f i libucrtd:argv_wildcards.obj
 0001:0004fd80       ??$tcsncpy_s@AEAPEAD_KAEAPEADAEB_K@?$__crt_char_traits@D@@SAHAEAPEAD$$QEA_K0AEB_K@Z 0000000140050d80 f i libucrtd:argv_wildcards.obj
 0001:0004fdd0       ??$tcspbrk@AEAPEADAEAY02$$CBD@?$__crt_char_traits@D@@SAPEADAEAPEADAEAY02$$CBD@Z 0000000140050dd0 f i libucrtd:argv_wildcards.obj
 0001:0004fe40       ??1?$__crt_unique_handle_t@U__crt_findfile_traits@@@@QEAA@XZ 0000000140050e40 f i libucrtd:argv_wildcards.obj
 0001:0004ff70       ?allocate@?$__crt_win32_buffer@DU__crt_win32_buffer_internal_dynamic_resizing@@@@QEAAH_K@Z 0000000140050f70 f i libucrtd:argv_wildcards.obj
 0001:00050060       ?close@?$__crt_unique_handle_t@U__crt_findfile_traits@@@@QEAAXXZ 0000000140051060 f i libucrtd:argv_wildcards.obj
 0001:000500a0       ?close@__crt_findfile_traits@@SA_NPEAX@Z 00000001400510a0 f i libucrtd:argv_wildcards.obj
 0001:000503b0       ?strpbrk@@YAPEADQEADQEBD@Z 00000001400513b0 f i libucrtd:argv_wildcards.obj
 0001:000503e0       __acrt_expand_narrow_argv_wildcards 00000001400513e0 f   libucrtd:argv_wildcards.obj
 0001:000504a0       ??$initialize_from_array@$$BY10BAA@E@?$dual_state_global@PEAE@__crt_state_management@@QEAAXAEAY10BAA@E@Z 00000001400514a0 f i libucrtd:mbctype.obj
 0001:00050510       ??$initialize_from_array@$$BY10BAB@E@?$dual_state_global@PEAE@__crt_state_management@@QEAAXAEAY10BAB@E@Z 0000000140051510 f i libucrtd:mbctype.obj
 0001:00051080       __acrt_initialize_multibyte 0000000140052080 f   libucrtd:mbctype.obj
 0001:00051150       __acrt_update_thread_multibyte_data 0000000140052150 f   libucrtd:mbctype.obj
 0001:00051180       _setmbcp_nolock            0000000140052180 f   libucrtd:mbctype.obj
 0001:000516e0       _ismbblead                 00000001400526e0 f   libucrtd:ismbbyte.obj
 0001:000516f4       __dcrt_get_narrow_environment_from_os 00000001400526f4 f   libucrtd:get_environment_from_os.obj
 0001:00051dc4       ?wcschr@@YAPEA_WPEA_W_W@Z  0000000140052dc4 f i libucrtd:setenv.obj
 0001:00051dcc       __dcrt_set_variable_in_narrow_environment_nolock 0000000140052dcc f   libucrtd:setenv.obj
 0001:000520c0       __acrt_get_developer_information_policy 00000001400530c0 f   libucrtd:win_policies.obj
 0001:000520e0       __acrt_get_process_end_policy 00000001400530e0 f   libucrtd:win_policies.obj
 0001:000520f0       __acrt_get_windowing_model_policy 00000001400530f0 f   libucrtd:win_policies.obj
 0001:00052110       __acrt_lowio_create_handle_array 0000000140053110 f   libucrtd:osfinfo.obj
 0001:000522d0       __acrt_lowio_destroy_handle_array 00000001400532d0 f   libucrtd:osfinfo.obj
 0001:00052350       __acrt_lowio_ensure_fh_exists 0000000140053350 f   libucrtd:osfinfo.obj
 0001:000524b0       __acrt_lowio_lock_fh       00000001400534b0 f   libucrtd:osfinfo.obj
 0001:000524f0       __acrt_lowio_set_os_handle 00000001400534f0 f   libucrtd:osfinfo.obj
 0001:00052600       __acrt_lowio_unlock_fh     0000000140053600 f   libucrtd:osfinfo.obj
 0001:00052640       _alloc_osfhnd              0000000140053640 f   libucrtd:osfinfo.obj
 0001:00052850       _free_osfhnd               0000000140053850 f   libucrtd:osfinfo.obj
 0001:00052980       _get_osfhandle             0000000140053980 f   libucrtd:osfinfo.obj
 0001:00052b80       __acrt_initialize_fmode    0000000140053b80 f   libucrtd:txtmode.obj
 0001:00052be0       __acrt_locale_free_monetary 0000000140053be0 f   libucrtd:initmon.obj
 0001:00052df0       __acrt_locale_initialize_monetary 0000000140053df0 f   libucrtd:initmon.obj
 0001:000537a0       __acrt_locale_free_numeric 00000001400547a0 f   libucrtd:initnum.obj
 0001:00053880       __acrt_locale_initialize_numeric 0000000140054880 f   libucrtd:initnum.obj
 0001:00054500       __acrt_locale_free_time    0000000140055500 f   libucrtd:inittime.obj
 0001:00054670       __acrt_locale_initialize_time 0000000140055670 f   libucrtd:inittime.obj
 0001:00054ea0       wcsncat_s                  0000000140055ea0 f   libucrtd:wcsncat_s.obj
 0001:00054ee0       wcscmp                     0000000140055ee0 f   libucrtd:wcscmp.obj
 0001:00054f80       wcscspn                    0000000140055f80 f   libucrtd:wcscspn.obj
 0001:00055020       wcspbrk                    0000000140056020 f   libucrtd:wcspbrk.obj
 0001:000550a0       __acrt_add_locale_ref      00000001400560a0 f   libucrtd:locale_refcounting.obj
 0001:00055200       __acrt_free_locale         0000000140056200 f   libucrtd:locale_refcounting.obj
 0001:00055580       __acrt_locale_add_lc_time_reference 0000000140056580 f   libucrtd:locale_refcounting.obj
 0001:000555c0       __acrt_locale_free_lc_time_if_unreferenced 00000001400565c0 f   libucrtd:locale_refcounting.obj
 0001:00055620       __acrt_locale_release_lc_time_reference 0000000140056620 f   libucrtd:locale_refcounting.obj
 0001:00055660       __acrt_release_locale_ref  0000000140056660 f   libucrtd:locale_refcounting.obj
 0001:000557d0       __acrt_update_thread_locale_data 00000001400567d0 f   libucrtd:locale_refcounting.obj
 0001:00055870       _updatetlocinfoEx_nolock   0000000140056870 f   libucrtd:locale_refcounting.obj
 0001:000565f0       __acrt_get_qualified_locale 00000001400575f0 f   libucrtd:get_qualified_locale.obj
 0001:00057710       __acrt_get_qualified_locale_downlevel 0000000140058710 f   libucrtd:getqloc_downlevel.obj
 0001:00057a70       __acrt_execute_initializers 0000000140058a70 f   libucrtd:shared_initialization.obj
 0001:00057b60       __acrt_execute_uninitializers 0000000140058b60 f   libucrtd:shared_initialization.obj
 0001:00057be0       _malloc_base               0000000140058be0 f   libucrtd:malloc_base.obj
 0001:00058870       _itoa_s                    0000000140059870 f   libucrtd:xtoa.obj
 0001:000588d0       _itow_s                    00000001400598d0 f   libucrtd:xtoa.obj
 0001:00058fa0       strcat_s                   0000000140059fa0 f   libucrtd:strcat_s.obj
 0001:00058fd0       __acrt_OutputDebugStringA  0000000140059fd0 f   libucrtd:outputdebugstringa.obj
 0001:00059090       __ascii_wcsnicmp           000000014005a090 f   libucrtd:wcsnicmp.obj
 0001:00059160       _wcsnicmp                  000000014005a160 f   libucrtd:wcsnicmp.obj
 0001:00059310       _wcsnicmp_l                000000014005a310 f   libucrtd:wcsnicmp.obj
 0001:000595f0       __ascii_strnicmp           000000014005a5f0 f   libucrtd:strnicmp.obj
 0001:000596c0       _strnicmp                  000000014005a6c0 f   libucrtd:strnicmp.obj
 0001:00059910       _strnicmp_l                000000014005a910 f   libucrtd:strnicmp.obj
 0001:00059f90       ??$tsopen_nolock@PEAHAEBQEAHAEBQEBDAEBHAEBHAEBHAEBH@?$__crt_char_traits@D@@SAH$$QEAPEAHAEBQEAHAEBQEBDAEBH333@Z 000000014005af90 f i libucrtd:open.obj
 0001:0005ace0       _sopen_dispatch            000000014005bce0 f   libucrtd:open.obj
 0001:0005ad30       _sopen_nolock              000000014005bd30 f   libucrtd:open.obj
 0001:0005ae00       _sopen_s                   000000014005be00 f   libucrtd:open.obj
 0001:0005ae50       _wsopen_nolock             000000014005be50 f   libucrtd:open.obj
 0001:0005b5c0       _isatty                    000000014005c5c0 f   libucrtd:isatty.obj
 0001:0005b810       __acrt_DownlevelLCIDToLocaleName 000000014005c810 f   libucrtd:lcidtoname_downlevel.obj
 0001:0005b910       __acrt_DownlevelLocaleNameToLCID 000000014005c910 f   libucrtd:lcidtoname_downlevel.obj
 0001:0005b9e0       ?__mbrtowc_utf8@__crt_mbstring@@YA_KPEA_WPEBD_KPEAU_Mbstatet@@@Z 000000014005c9e0 f   libucrtd:mbrtowc.obj
 0001:0005ba50       ?__mbsrtowcs_utf8@__crt_mbstring@@YA_KPEA_WPEAPEBD_KPEAU_Mbstatet@@@Z 000000014005ca50 f   libucrtd:mbrtowc.obj
 0001:0005bd50       ?__wcsrtombs_utf8@__crt_mbstring@@YA_KPEADPEAPEB_W_KPEAU_Mbstatet@@@Z 000000014005cd50 f   libucrtd:wcrtomb.obj
 0001:0005c640       strncpy_s                  000000014005d640 f   libucrtd:strncpy_s.obj
 0001:0005c678       _putwch_nolock             000000014005d678 f   libucrtd:putwch.obj
 0001:0005c6d0       _get_fpsr                  000000014005d6d0 f   libucrtd:fpsr.obj
 0001:0005c6e0       _set_fpsr                  000000014005d6e0 f   libucrtd:fpsr.obj
 0001:0005c6ea       _fclrf                     000000014005d6ea f   libucrtd:fpsr.obj
 0001:0005c6fe       _frnd                      000000014005d6fe f   libucrtd:fpsr.obj
 0001:0005c720       __acrt_GetStringTypeW      000000014005d720 f   libucrtd:getstringtypew.obj
 0001:0005c760       ??$__acrt_fenv_shift_bits@W4__acrt_fenv_abstract_status@@@@YA?AW4__acrt_fenv_abstract_status@@W40@0I@Z 000000014005d760 f i libucrtd:_fenvutils.obj
 0001:0005c760       ??$__acrt_fenv_shift_bits@W4__acrt_fenv_abstract_control@@@@YA?AW4__acrt_fenv_abstract_control@@W40@0I@Z 000000014005d760 f i libucrtd:_fenvutils.obj
 0001:0005c790       ??$__acrt_fenv_translate_bit@W4__acrt_fenv_abstract_control@@W4__acrt_fenv_machine_sse_control@@@@YA?AW4__acrt_fenv_abstract_control@@W4__acrt_fenv_machine_sse_control@@0W40@1@Z 000000014005d790 f i libucrtd:_fenvutils.obj
 0001:0005c7f0       ??$__acrt_fenv_translate_bit@W4__acrt_fenv_abstract_status@@W4__acrt_fenv_machine_sse_status@@@@YA?AW4__acrt_fenv_abstract_status@@W4__acrt_fenv_machine_sse_status@@0W40@1@Z 000000014005d7f0 f i libucrtd:_fenvutils.obj
 0001:0005c7f0       ??$__acrt_fenv_translate_bit@W4__acrt_fenv_machine_sse_status@@W4__acrt_fenv_abstract_status@@@@YA?AW4__acrt_fenv_machine_sse_status@@W4__acrt_fenv_abstract_status@@0W40@1@Z 000000014005d7f0 f i libucrtd:_fenvutils.obj
 0001:0005c840       ??$__acrt_fenv_translate_bit@W4__acrt_fenv_machine_sse_control@@W4__acrt_fenv_abstract_control@@@@YA?AW4__acrt_fenv_machine_sse_control@@W4__acrt_fenv_abstract_control@@0W40@1@Z 000000014005d840 f i libucrtd:_fenvutils.obj
 0001:0005c8a0       ??$__acrt_fenv_unshift_bits@W4__acrt_fenv_abstract_control@@@@YA?AW4__acrt_fenv_abstract_control@@W40@0I@Z 000000014005d8a0 f i libucrtd:_fenvutils.obj
 0001:0005c8a0       ??$__acrt_fenv_unshift_bits@W4__acrt_fenv_abstract_status@@@@YA?AW4__acrt_fenv_abstract_status@@W40@0I@Z 000000014005d8a0 f i libucrtd:_fenvutils.obj
 0001:0005cd90       ??I@YA?AW4__acrt_fenv_abstract_control@@W40@0@Z 000000014005dd90 f i libucrtd:_fenvutils.obj
 0001:0005cd90       ??I@YA?AW4__acrt_fenv_abstract_status@@W40@0@Z 000000014005dd90 f i libucrtd:_fenvutils.obj
 0001:0005cd90       ??I@YA?AW4__acrt_fenv_machine_sse_status@@W40@0@Z 000000014005dd90 f i libucrtd:_fenvutils.obj
 0001:0005cdb0       ??I@YA?AW4__acrt_fenv_machine_sse_control@@W40@0@Z 000000014005ddb0 f i libucrtd:_fenvutils.obj
 0001:0005cdd0       ??U@YA?AW4__acrt_fenv_abstract_control@@W40@0@Z 000000014005ddd0 f i libucrtd:_fenvutils.obj
 0001:0005cdd0       ??U@YA?AW4__acrt_fenv_abstract_status@@W40@0@Z 000000014005ddd0 f i libucrtd:_fenvutils.obj
 0001:0005cdf0       ??U@YA?AW4__acrt_fenv_machine_sse_control@@W40@0@Z 000000014005ddf0 f i libucrtd:_fenvutils.obj
 0001:0005ce10       ??_5@YAAEAW4__acrt_fenv_machine_sse_status@@AEAW40@W40@@Z 000000014005de10 f i libucrtd:_fenvutils.obj
 0001:0005ce10       ??_5@YAAEAW4__acrt_fenv_abstract_control@@AEAW40@W40@@Z 000000014005de10 f i libucrtd:_fenvutils.obj
 0001:0005ce10       ??_5@YAAEAW4__acrt_fenv_abstract_status@@AEAW40@W40@@Z 000000014005de10 f i libucrtd:_fenvutils.obj
 0001:0005ce40       ??_5@YAAEAW4__acrt_fenv_machine_sse_control@@AEAW40@W40@@Z 000000014005de40 f i libucrtd:_fenvutils.obj
 0001:0005ce70       ?__acrt_fenv_shift_abstract_sse_control@@YA?AW4__acrt_fenv_abstract_control@@W41@@Z 000000014005de70 f i libucrtd:_fenvutils.obj
 0001:0005cec0       ?__acrt_fenv_shift_abstract_sse_status@@YA?AW4__acrt_fenv_abstract_status@@W41@@Z 000000014005dec0 f i libucrtd:_fenvutils.obj
 0001:0005cef0       ?__acrt_fenv_unshift_abstract_sse_control@@YA?AW4__acrt_fenv_abstract_control@@W41@@Z 000000014005def0 f i libucrtd:_fenvutils.obj
 0001:0005cf40       ?__acrt_fenv_unshift_abstract_sse_status@@YA?AW4__acrt_fenv_abstract_status@@W41@@Z 000000014005df40 f i libucrtd:_fenvutils.obj
 0001:0005d210       __acrt_fenv_get_common_round_control 000000014005e210 f   libucrtd:_fenvutils.obj
 0001:0005d230       __acrt_fenv_get_control    000000014005e230 f   libucrtd:_fenvutils.obj
 0001:0005d260       __acrt_fenv_get_status     000000014005e260 f   libucrtd:_fenvutils.obj
 0001:0005d290       __acrt_fenv_set_control    000000014005e290 f   libucrtd:_fenvutils.obj
 0001:0005d2b0       __acrt_fenv_set_status     000000014005e2b0 f   libucrtd:_fenvutils.obj
 0001:0005d2d0       ?__c32rtomb_utf8@__crt_mbstring@@YA_KPEAD_UPEAU_Mbstatet@@@Z 000000014005e2d0 f   libucrtd:c32rtomb.obj
 0001:0005d550       ?reset_and_return@__crt_mbstring@@YA_K_KPEAU_Mbstatet@@@Z 000000014005e550 f i libucrtd:c32rtomb.obj
 0001:0005d590       ?return_illegal_sequence@__crt_mbstring@@YA_KPEAU_Mbstatet@@@Z 000000014005e590 f i libucrtd:c32rtomb.obj
 0001:0005d5d0       c32rtomb                   000000014005e5d0 f   libucrtd:c32rtomb.obj
 0001:0005d790       __acrt_fp_strflt_to_string 000000014005e790 f   libucrtd:_fptostr.obj
 0001:0005e310       ??8__crt_strtox@@YA_NAEBUbig_integer@0@0@Z 000000014005f310 f i libucrtd:cfout.obj
 0001:0005e380       ??9__crt_strtox@@YA_NAEBUbig_integer@0@0@Z 000000014005f380 f i libucrtd:cfout.obj
 0001:0005e3c0       ?is_zero@__crt_strtox@@YA_NAEBUbig_integer@1@@Z 000000014005f3c0 f i libucrtd:cfout.obj
 0001:0005e3f0       ?make_big_integer_power_of_two@__crt_strtox@@YA?AUbig_integer@1@I@Z 000000014005f3f0 f i libucrtd:cfout.obj
 0001:0005e4c0       __acrt_fltout              000000014005f4c0 f   libucrtd:cfout.obj
 0001:0005e870       _towlower_l                000000014005f870 f   libucrtd:towlower.obj
 0001:0005eb10       qsort                      000000014005fb10 f   libucrtd:qsort.obj
 0001:0005f350       strpbrk                    0000000140060350 f   libucrtd:strpbrk.obj
 0001:0005fc40       _mbsdec                    0000000140060c40 f   libucrtd:mbsdec.obj
 0001:0005fc48       _mbsdec_l                  0000000140060c48 f   libucrtd:mbsdec.obj
 0001:0005fd70       _strnicoll                 0000000140060d70 f   libucrtd:strnicol.obj
 0001:0005fdd0       _strnicoll_l               0000000140060dd0 f   libucrtd:strnicol.obj
 0001:000601b0       __acrt_SetEnvironmentVariableA 00000001400611b0 f   libucrtd:setenvironmentvariablea.obj
 0001:000602c0       ??0__crt_seek_guard@@QEAA@H_J@Z 00000001400612c0 f i libucrtd:chsize.obj
 0001:00060340       ??1__crt_seek_guard@@QEAA@XZ 0000000140061340 f i libucrtd:chsize.obj
 0001:00060370       _chsize_nolock             0000000140061370 f   libucrtd:chsize.obj
 0001:000605f0       ?__mbrtoc32_utf8@__crt_mbstring@@YA_KPEA_UPEBD_KPEAU_Mbstatet@@@Z 00000001400615f0 f   libucrtd:mbrtoc32.obj
 0001:000609b0       ?__c16rtomb_utf8@__crt_mbstring@@YA_KPEAD_SPEAU_Mbstatet@@@Z 00000001400619b0 f   libucrtd:c16rtomb.obj
 0001:00060bc4       __dcrt_lowio_ensure_console_output_initialized 0000000140061bc4 f   libucrtd:initcon.obj
 0001:00060c18       __dcrt_terminate_console_output 0000000140061c18 f   libucrtd:initcon.obj
 0001:00060c34       __dcrt_write_console       0000000140061c34 f   libucrtd:initcon.obj
 0001:00060d00       log10                      0000000140061d00 f   libucrtd:log10.obj
 0001:000612b0       _controlfp_s               00000001400622b0 f   libucrtd:contrlfp.obj
 0001:000613e0       fegetenv                   00000001400623e0 f   libucrtd:fegetenv.obj
 0001:00061410       fesetenv                   0000000140062410 f   libucrtd:fesetenv.obj
 0001:00061490       feholdexcept               0000000140062490 f   libucrtd:feholdexcept.obj
 0001:00061500       __acrt_LCMapStringW        0000000140062500 f   libucrtd:lcmapstringw.obj
 0001:00061c60       __acrt_CompareStringA      0000000140062c60 f   libucrtd:comparestringa.obj
 0001:00061d00       _log10_special             0000000140062d00 f   libucrtd:log_special.obj
 0001:00062060       _clearfp                   0000000140063060 f   libucrtd:ieee.obj
 0001:00062080       _control87                 0000000140063080 f   libucrtd:ieee.obj
 0001:00062310       _FindPESection             0000000140063310 f   LIBCMTD:pesect.obj
 0001:000623c0       _IsNonwritableInCurrentImage 00000001400633c0 f   LIBCMTD:pesect.obj
 0001:00062450       _ValidateImageBase         0000000140063450 f   LIBCMTD:pesect.obj
 0001:000624d0       __GSHandlerCheck_SEH       00000001400634d0 f   LIBCMTD:gshandlerseh.obj
 0001:00062590       __GSHandlerCheck_EH        0000000140063590 f   LIBCMTD:gshandlereh.obj
 0001:00062640       _local_unwind              0000000140063640 f   libvcruntimed:jmpuwind.obj
 0001:00062670       strrchr                    0000000140063670 f   libvcruntimed:strrchr.obj
 0001:00062a90       strchr                     0000000140063a90 f   libvcruntimed:strchr.obj
 0001:00062c20       wcschr                     0000000140063c20 f   libvcruntimed:wcschr.obj
 0001:00062d90       _guard_dispatch_icall_nop  0000000140063d90 f   LIBCMTD:guard_dispatch.obj
 0001:00062db0       _guard_xfg_dispatch_icall_nop 0000000140063db0 f   LIBCMTD:guard_xfg_dispatch.obj
 0002:00000000       __imp_GetProcAddress       0000000140065000     kernel32:KERNEL32.dll
 0002:00000008       __imp_LoadLibraryA         0000000140065008     kernel32:KERNEL32.dll
 0002:00000010       __imp_EnterCriticalSection 0000000140065010     kernel32:KERNEL32.dll
 0002:00000018       __imp_LeaveCriticalSection 0000000140065018     kernel32:KERNEL32.dll
 0002:00000020       __imp_InitializeCriticalSectionEx 0000000140065020     kernel32:KERNEL32.dll
 0002:00000028       __imp_DeleteCriticalSection 0000000140065028     kernel32:KERNEL32.dll
 0002:00000030       __imp_EncodePointer        0000000140065030     kernel32:KERNEL32.dll
 0002:00000038       __imp_DecodePointer        0000000140065038     kernel32:KERNEL32.dll
 0002:00000040       __imp_MultiByteToWideChar  0000000140065040     kernel32:KERNEL32.dll
 0002:00000048       __imp_WideCharToMultiByte  0000000140065048     kernel32:KERNEL32.dll
 0002:00000050       __imp_LCMapStringEx        0000000140065050     kernel32:KERNEL32.dll
 0002:00000058       __imp_GetStringTypeW       0000000140065058     kernel32:KERNEL32.dll
 0002:00000060       __imp_GetCPInfo            0000000140065060     kernel32:KERNEL32.dll
 0002:00000068       __imp_RtlCaptureContext    0000000140065068     kernel32:KERNEL32.dll
 0002:00000070       __imp_RtlLookupFunctionEntry 0000000140065070     kernel32:KERNEL32.dll
 0002:00000078       __imp_RtlVirtualUnwind     0000000140065078     kernel32:KERNEL32.dll
 0002:00000080       __imp_UnhandledExceptionFilter 0000000140065080     kernel32:KERNEL32.dll
 0002:00000088       __imp_SetUnhandledExceptionFilter 0000000140065088     kernel32:KERNEL32.dll
 0002:00000090       __imp_GetCurrentProcess    0000000140065090     kernel32:KERNEL32.dll
 0002:00000098       __imp_TerminateProcess     0000000140065098     kernel32:KERNEL32.dll
 0002:000000a0       __imp_IsProcessorFeaturePresent 00000001400650a0     kernel32:KERNEL32.dll
 0002:000000a8       __imp_QueryPerformanceCounter 00000001400650a8     kernel32:KERNEL32.dll
 0002:000000b0       __imp_GetCurrentProcessId  00000001400650b0     kernel32:KERNEL32.dll
 0002:000000b8       __imp_GetCurrentThreadId   00000001400650b8     kernel32:KERNEL32.dll
 0002:000000c0       __imp_GetSystemTimeAsFileTime 00000001400650c0     kernel32:KERNEL32.dll
 0002:000000c8       __imp_InitializeSListHead  00000001400650c8     kernel32:KERNEL32.dll
 0002:000000d0       __imp_IsDebuggerPresent    00000001400650d0     kernel32:KERNEL32.dll
 0002:000000d8       __imp_GetStartupInfoW      00000001400650d8     kernel32:KERNEL32.dll
 0002:000000e0       __imp_GetModuleHandleW     00000001400650e0     kernel32:KERNEL32.dll
 0002:000000e8       __imp_SetEndOfFile         00000001400650e8     kernel32:KERNEL32.dll
 0002:000000f0       __imp_RtlPcToFileHeader    00000001400650f0     kernel32:KERNEL32.dll
 0002:000000f8       __imp_RaiseException       00000001400650f8     kernel32:KERNEL32.dll
 0002:00000100       __imp_RtlUnwindEx          0000000140065100     kernel32:KERNEL32.dll
 0002:00000108       __imp_GetLastError         0000000140065108     kernel32:KERNEL32.dll
 0002:00000110       __imp_SetLastError         0000000140065110     kernel32:KERNEL32.dll
 0002:00000118       __imp_InitializeCriticalSectionAndSpinCount 0000000140065118     kernel32:KERNEL32.dll
 0002:00000120       __imp_TlsAlloc             0000000140065120     kernel32:KERNEL32.dll
 0002:00000128       __imp_TlsGetValue          0000000140065128     kernel32:KERNEL32.dll
 0002:00000130       __imp_TlsSetValue          0000000140065130     kernel32:KERNEL32.dll
 0002:00000138       __imp_TlsFree              0000000140065138     kernel32:KERNEL32.dll
 0002:00000140       __imp_FreeLibrary          0000000140065140     kernel32:KERNEL32.dll
 0002:00000148       __imp_LoadLibraryExW       0000000140065148     kernel32:KERNEL32.dll
 0002:00000150       __imp_HeapAlloc            0000000140065150     kernel32:KERNEL32.dll
 0002:00000158       __imp_HeapSize             0000000140065158     kernel32:KERNEL32.dll
 0002:00000160       __imp_HeapValidate         0000000140065160     kernel32:KERNEL32.dll
 0002:00000168       __imp_GetSystemInfo        0000000140065168     kernel32:KERNEL32.dll
 0002:00000170       __imp_GetModuleFileNameW   0000000140065170     kernel32:KERNEL32.dll
 0002:00000178       __imp_GetModuleHandleExW   0000000140065178     kernel32:KERNEL32.dll
 0002:00000180       __imp_ReadFile             0000000140065180     kernel32:KERNEL32.dll
 0002:00000188       __imp_GetStdHandle         0000000140065188     kernel32:KERNEL32.dll
 0002:00000190       __imp_WriteFile            0000000140065190     kernel32:KERNEL32.dll
 0002:00000198       __imp_ExitProcess          0000000140065198     kernel32:KERNEL32.dll
 0002:000001a0       __imp_GetCommandLineA      00000001400651a0     kernel32:KERNEL32.dll
 0002:000001a8       __imp_GetCommandLineW      00000001400651a8     kernel32:KERNEL32.dll
 0002:000001b0       __imp_HeapFree             00000001400651b0     kernel32:KERNEL32.dll
 0002:000001b8       __imp_HeapReAlloc          00000001400651b8     kernel32:KERNEL32.dll
 0002:000001c0       __imp_HeapQueryInformation 00000001400651c0     kernel32:KERNEL32.dll
 0002:000001c8       __imp_GetProcessHeap       00000001400651c8     kernel32:KERNEL32.dll
 0002:000001d0       __imp_GetFileType          00000001400651d0     kernel32:KERNEL32.dll
 0002:000001d8       __imp_OutputDebugStringW   00000001400651d8     kernel32:KERNEL32.dll
 0002:000001e0       __imp_WriteConsoleW        00000001400651e0     kernel32:KERNEL32.dll
 0002:000001e8       __imp_CloseHandle          00000001400651e8     kernel32:KERNEL32.dll
 0002:000001f0       __imp_GetConsoleMode       00000001400651f0     kernel32:KERNEL32.dll
 0002:000001f8       __imp_ReadConsoleW         00000001400651f8     kernel32:KERNEL32.dll
 0002:00000200       __imp_SetFilePointerEx     0000000140065200     kernel32:KERNEL32.dll
 0002:00000208       __imp_CompareStringW       0000000140065208     kernel32:KERNEL32.dll
 0002:00000210       __imp_LCMapStringW         0000000140065210     kernel32:KERNEL32.dll
 0002:00000218       __imp_GetLocaleInfoW       0000000140065218     kernel32:KERNEL32.dll
 0002:00000220       __imp_IsValidLocale        0000000140065220     kernel32:KERNEL32.dll
 0002:00000228       __imp_GetUserDefaultLCID   0000000140065228     kernel32:KERNEL32.dll
 0002:00000230       __imp_EnumSystemLocalesW   0000000140065230     kernel32:KERNEL32.dll
 0002:00000238       __imp_FlushFileBuffers     0000000140065238     kernel32:KERNEL32.dll
 0002:00000240       __imp_GetConsoleOutputCP   0000000140065240     kernel32:KERNEL32.dll
 0002:00000248       __imp_GetFileSizeEx        0000000140065248     kernel32:KERNEL32.dll
 0002:00000250       __imp_FindClose            0000000140065250     kernel32:KERNEL32.dll
 0002:00000258       __imp_FindFirstFileExW     0000000140065258     kernel32:KERNEL32.dll
 0002:00000260       __imp_FindNextFileW        0000000140065260     kernel32:KERNEL32.dll
 0002:00000268       __imp_IsValidCodePage      0000000140065268     kernel32:KERNEL32.dll
 0002:00000270       __imp_GetACP               0000000140065270     kernel32:KERNEL32.dll
 0002:00000278       __imp_GetOEMCP             0000000140065278     kernel32:KERNEL32.dll
 0002:00000280       __imp_GetEnvironmentStringsW 0000000140065280     kernel32:KERNEL32.dll
 0002:00000288       __imp_FreeEnvironmentStringsW 0000000140065288     kernel32:KERNEL32.dll
 0002:00000290       __imp_SetEnvironmentVariableW 0000000140065290     kernel32:KERNEL32.dll
 0002:00000298       __imp_SetStdHandle         0000000140065298     kernel32:KERNEL32.dll
 0002:000002a0       __imp_CreateFileW          00000001400652a0     kernel32:KERNEL32.dll
 0002:000002a8       __imp_RtlUnwind            00000001400652a8     kernel32:KERNEL32.dll
 0002:000002b0       \177KERNEL32_NULL_THUNK_DATA 00000001400652b0     kernel32:KERNEL32.dll
 0002:000002b8       __guard_check_icall_fptr   00000001400652b8     LIBCMTD:guard_support.obj
 0002:000002c0       __guard_xfg_check_icall_fptr 00000001400652c0     LIBCMTD:guard_support.obj
 0002:000002c8       __guard_dispatch_icall_fptr 00000001400652c8     LIBCMTD:guard_support.obj
 0002:000002d0       __guard_xfg_dispatch_icall_fptr 00000001400652d0     LIBCMTD:guard_support.obj
 0002:000002d8       __guard_xfg_table_dispatch_icall_fptr 00000001400652d8     LIBCMTD:guard_support.obj
 0002:000002e0       __xc_a                     00000001400652e0     LIBCMTD:initializers.obj
 0002:00000490       __xc_z                     0000000140065490     LIBCMTD:initializers.obj
 0002:00000498       __xi_a                     0000000140065498     LIBCMTD:initializers.obj
 0002:000004b0       __acrt_stdio_initializer   00000001400654b0     libucrtd:stdio_initializer.obj
 0002:000004b8       __acrt_tran_fma3_initializer 00000001400654b8     libucrtd:fma3_initializer.obj
 0002:000004c0       __acrt_timeset_initializer 00000001400654c0     libucrtd:timeset_initializer.obj
 0002:000004c8       __acrt_multibyte_initializer 00000001400654c8     libucrtd:multibyte_initializer.obj
 0002:000004d0       __acrt_fmode_initializer   00000001400654d0     libucrtd:fmode_initializer.obj
 0002:000004d8       __xi_z                     00000001400654d8     LIBCMTD:initializers.obj
 0002:000004e0       __xp_a                     00000001400654e0     LIBCMTD:initializers.obj
 0002:000004e8       __acrt_locale_terminator   00000001400654e8     libucrtd:locale_initializer.obj
 0002:000004f0       __dcrt_console_output_terminator 00000001400654f0     libucrtd:console_output_initializer.obj
 0002:000004f8       __acrt_stdio_terminator    00000001400654f8     libucrtd:stdio_initializer.obj
 0002:00000500       __xp_z                     0000000140065500     LIBCMTD:initializers.obj
 0002:00000508       __xt_a                     0000000140065508     LIBCMTD:initializers.obj
 0002:00000510       __xt_z                     0000000140065510     LIBCMTD:initializers.obj
 0002:00001408       ??_7exception@std@@6B@     0000000140066408     main.obj
 0002:00001418       ??_C@_0BC@EOODALEL@Unknown?5exception@ 0000000140066418     main.obj
 0002:00001438       ??_7bad_alloc@std@@6B@     0000000140066438     main.obj
 0002:00001450       ??_7bad_array_new_length@std@@6B@ 0000000140066450     main.obj
 0002:00001460       ??_C@_0BF@KINCDENJ@bad?5array?5new?5length@ 0000000140066460     main.obj
 0002:00001478       ??_C@_0BB@FCMFBGOM@invalid?5argument@ 0000000140066478     main.obj
 0002:0000148c       ??_C@_02DKCKIIND@?$CFs@    000000014006648c     main.obj
 0002:00001490       ??_C@_0FJ@PHNJHBDN@D?3?2?4DEV?2Microsoft?5Visual?5Studio@ 0000000140066490     main.obj
 0002:000014f0       ??_C@_1LC@NCDJPKGH@?$AAD?$AA?3?$AA?2?$AA?4?$AAD?$AAE?$AAV?$AA?2?$AAM?$AAi?$AAc?$AAr?$AAo?$AAs?$AAo@ 00000001400664f0     main.obj
 0002:000015b0       ??_C@_1EK@NIFDJFDG@?$AAs?$AAt?$AAd?$AA?3?$AA?3?$AA_?$AAA?$AAd?$AAj?$AAu?$AAs?$AAt?$AA_?$AAm?$AAa@ 00000001400665b0     main.obj
 0002:00001600       ??_C@_1CG@JNLFBNGN@?$AA?$CC?$AAi?$AAn?$AAv?$AAa?$AAl?$AAi?$AAd?$AA?5?$AAa?$AAr?$AAg?$AAu?$AAm?$AAe@ 0000000140066600     main.obj
 0002:00001628       ??_C@_0BA@JFNIOLAK@string?5too?5long@ 0000000140066628     main.obj
 0002:00001640       ??_7runtime_error@std@@6B@ 0000000140066640     main.obj
 0002:00001658       ??_7_System_error@std@@6B@ 0000000140066658     main.obj
 0002:00001668       ??_C@_02LMMGGCAJ@?3?5@     0000000140066668     main.obj
 0002:00001678       ??_7system_error@std@@6B@  0000000140066678     main.obj
 0002:00001688       ??_C@_00CNPNBAHC@@         0000000140066688     main.obj
 0002:00001698       ??_7_Iostream_error_category2@std@@6B@ 0000000140066698     main.obj
 0002:000016c8       ??_C@_08LLGCOLLL@iostream@ 00000001400666c8     main.obj
 0002:000016d8       ?_Iostream_error@?4??message@_Iostream_error_category2@std@@UEBA?AV?$basic_string@DU?$char_traits@D@std@@V?$allocator@D@2@@3@H@Z@4QBDB 00000001400666d8     main.obj
 0002:000016f8       ??_7bad_cast@std@@6B@      00000001400666f8     main.obj
 0002:00001708       ??_C@_08EPJLHIJG@bad?5cast@ 0000000140066708     main.obj
 0002:00001720       ??_7_Facet_base@std@@6B@   0000000140066720     main.obj
 0002:00001738       ??_C@_0BA@ELKIONDK@bad?5locale?5name@ 0000000140066738     main.obj
 0002:00001750       ??_C@_0FJ@FPBFEDJK@D?3?2?4DEV?2Microsoft?5Visual?5Studio@ 0000000140066750     main.obj
 0002:000017b8       ??_7facet@locale@std@@6B@  00000001400667b8     main.obj
 0002:000017d8       ??_7ctype_base@std@@6B@    00000001400667d8     main.obj
 0002:000017f8       ??_7?$ctype@D@std@@6B@     00000001400667f8     main.obj
 0002:00001858       ??_7failure@ios_base@std@@6B@ 0000000140066858     main.obj
 0002:00001868       ??_C@_0BF@PHHKMMFD@ios_base?3?3badbit?5set@ 0000000140066868     main.obj
 0002:00001880       ??_C@_0BG@FMKFHCIL@ios_base?3?3failbit?5set@ 0000000140066880     main.obj
 0002:00001898       ??_C@_0BF@OOHOMBOF@ios_base?3?3eofbit?5set@ 0000000140066898     main.obj
 0002:000018b0       ??_C@_0BJ@HAJGEHKO@transposed?5pointer?5range@ 00000001400668b0     main.obj
 0002:000018d0       ??_C@_0FK@JLGEJBDA@D?3?2?4DEV?2Microsoft?5Visual?5Studio@ 00000001400668d0     main.obj
 0002:00001930       ??_C@_1LE@HKBEBJFJ@?$AAD?$AA?3?$AA?2?$AA?4?$AAD?$AAE?$AAV?$AA?2?$AAM?$AAi?$AAc?$AAr?$AAo?$AAs?$AAo@ 0000000140066930     main.obj
 0002:000019e8       ??_C@_1CG@LJCPDKEJ@?$AAs?$AAt?$AAd?$AA?3?$AA?3?$AA_?$AAV?$AAe?$AAr?$AAi?$AAf?$AAy?$AA_?$AAr?$AAa@ 00000001400669e8     main.obj
 0002:00001a10       ??_C@_1DG@FJIKMGFD@?$AA?$CC?$AAt?$AAr?$AAa?$AAn?$AAs?$AAp?$AAo?$AAs?$AAe?$AAd?$AA?5?$AAp?$AAo?$AAi@ 0000000140066a10     main.obj
 0002:00001a48       __real@3c23d70a            0000000140066a48     main.obj
 0002:00001a4c       __real@3f800000            0000000140066a4c     main.obj
 0002:00001a50       __real@4010000000000000    0000000140066a50     main.obj
 0002:00001a58       __real@437f0000            0000000140066a58     main.obj
 0002:00001a60       __real@43e0000000000000    0000000140066a60     main.obj
 0002:00001a68       ??_C@_0P@GHFPNOJB@bad?5allocation@ 0000000140066a68     libcpmtd:xthrow.obj
 0002:00001a80       ??_7logic_error@std@@6B@   0000000140066a80     libcpmtd:xthrow.obj
 0002:00001a98       ??_7length_error@std@@6B@  0000000140066a98     libcpmtd:xthrow.obj
 0002:00001ab0       ??_7out_of_range@std@@6B@  0000000140066ab0     libcpmtd:xthrow.obj
 0002:00002220       ??_C@_0BN@LKKBCCDB@address?5family?5not?5supported@ 0000000140067220     libcpmtd:syserror.obj
 0002:00002240       ??_C@_0P@LDMLAFHI@address?5in?5use@ 0000000140067240     libcpmtd:syserror.obj
 0002:00002250       ??_C@_0BG@DHPCNBJB@address?5not?5available@ 0000000140067250     libcpmtd:syserror.obj
 0002:00002268       ??_C@_0BC@DFIBIBIL@already?5connected@ 0000000140067268     libcpmtd:syserror.obj
 0002:00002280       ??_C@_0BH@CAKOHOMI@argument?5list?5too?5long@ 0000000140067280     libcpmtd:syserror.obj
 0002:00002298       ??_C@_0BH@CGIMPKIM@argument?5out?5of?5domain@ 0000000140067298     libcpmtd:syserror.obj
 0002:000022b0       ??_C@_0M@KGHGGJGL@bad?5address@ 00000001400672b0     libcpmtd:syserror.obj
 0002:000022c0       ??_C@_0BE@MPJPGCEO@bad?5file?5descriptor@ 00000001400672c0     libcpmtd:syserror.obj
 0002:000022d8       ??_C@_0M@PMMIEFCP@bad?5message@ 00000001400672d8     libcpmtd:syserror.obj
 0002:000022e8       ??_C@_0M@KPHOFDBE@broken?5pipe@ 00000001400672e8     libcpmtd:syserror.obj
 0002:000022f8       ??_C@_0BD@MGNDDEGM@connection?5aborted@ 00000001400672f8     libcpmtd:syserror.obj
 0002:00002310       ??_C@_0BP@KAIHPOGN@connection?5already?5in?5progress@ 0000000140067310     libcpmtd:syserror.obj
 0002:00002330       ??_C@_0BD@PJLIIJEL@connection?5refused@ 0000000140067330     libcpmtd:syserror.obj
 0002:00002348       ??_C@_0BB@IECNJNOI@connection?5reset@ 0000000140067348     libcpmtd:syserror.obj
 0002:00002360       ??_C@_0BC@PPHBOELF@cross?5device?5link@ 0000000140067360     libcpmtd:syserror.obj
 0002:00002378       ??_C@_0BN@KDMIFEIP@destination?5address?5required@ 0000000140067378     libcpmtd:syserror.obj
 0002:00002398       ??_C@_0BI@NGCEHDD@device?5or?5resource?5busy@ 0000000140067398     libcpmtd:syserror.obj
 0002:000023b0       ??_C@_0BE@JIDOCPHM@directory?5not?5empty@ 00000001400673b0     libcpmtd:syserror.obj
 0002:000023c8       ??_C@_0BI@BNCLIGPB@executable?5format?5error@ 00000001400673c8     libcpmtd:syserror.obj
 0002:000023e0       ??_C@_0M@MIDIAGJP@file?5exists@ 00000001400673e0     libcpmtd:syserror.obj
 0002:000023f0       ??_C@_0P@DNAJLBJK@file?5too?5large@ 00000001400673f0     libcpmtd:syserror.obj
 0002:00002400       ??_C@_0BC@EJHOMAAK@filename?5too?5long@ 0000000140067400     libcpmtd:syserror.obj
 0002:00002418       ??_C@_0BH@KEFGLDAF@function?5not?5supported@ 0000000140067418     libcpmtd:syserror.obj
 0002:00002430       ??_C@_0BB@DHFDFGDM@host?5unreachable@ 0000000140067430     libcpmtd:syserror.obj
 0002:00002448       ??_C@_0BD@JPHBMONG@identifier?5removed@ 0000000140067448     libcpmtd:syserror.obj
 0002:00002460       ??_C@_0BG@CDNPAGJK@illegal?5byte?5sequence@ 0000000140067460     libcpmtd:syserror.obj
 0002:00002478       ??_C@_0CD@BNPLBMNA@inappropriate?5io?5control?5operat@ 0000000140067478     libcpmtd:syserror.obj
 0002:000024a0       ??_C@_0M@EGEKIIMP@interrupted@ 00000001400674a0     libcpmtd:syserror.obj
 0002:000024b0       ??_C@_0N@OHAFKDEK@invalid?5seek@ 00000001400674b0     libcpmtd:syserror.obj
 0002:000024c0       ??_C@_08GLNPIFBN@io?5error@ 00000001400674c0     libcpmtd:syserror.obj
 0002:000024d0       ??_C@_0P@FLLDBIDK@is?5a?5directory@ 00000001400674d0     libcpmtd:syserror.obj
 0002:000024e0       ??_C@_0N@IFLPBIOP@message?5size@ 00000001400674e0     libcpmtd:syserror.obj
 0002:000024f0       ??_C@_0N@KIIEAAIO@network?5down@ 00000001400674f0     libcpmtd:syserror.obj
 0002:00002500       ??_C@_0O@FNPDBHEE@network?5reset@ 0000000140067500     libcpmtd:syserror.obj
 0002:00002510       ??_C@_0BE@IFNCKGE@network?5unreachable@ 0000000140067510     libcpmtd:syserror.obj
 0002:00002528       ??_C@_0BA@PFFCAOFK@no?5buffer?5space@ 0000000140067528     libcpmtd:syserror.obj
 0002:00002538       ??_C@_0BB@IEPBLJHK@no?5child?5process@ 0000000140067538     libcpmtd:syserror.obj
 0002:00002550       ??_C@_07PLECNNKG@no?5link@ 0000000140067550     libcpmtd:syserror.obj
 0002:00002558       ??_C@_0BC@NJECKMKE@no?5lock?5available@ 0000000140067558     libcpmtd:syserror.obj
 0002:00002570       ??_C@_0BF@PBGGPKKE@no?5message?5available@ 0000000140067570     libcpmtd:syserror.obj
 0002:00002588       ??_C@_0L@EDOLMPAK@no?5message@ 0000000140067588     libcpmtd:syserror.obj
 0002:00002598       ??_C@_0BD@EAMBFIDF@no?5protocol?5option@ 0000000140067598     libcpmtd:syserror.obj
 0002:000025b0       ??_C@_0BD@IJDJKDEA@no?5space?5on?5device@ 00000001400675b0     libcpmtd:syserror.obj
 0002:000025c8       ??_C@_0BE@MKFDAFMP@no?5stream?5resources@ 00000001400675c8     libcpmtd:syserror.obj
 0002:000025e0       ??_C@_0BK@IMCPHCBI@no?5such?5device?5or?5address@ 00000001400675e0     libcpmtd:syserror.obj
 0002:00002600       ??_C@_0P@FDINDDOK@no?5such?5device@ 0000000140067600     libcpmtd:syserror.obj
 0002:00002610       ??_C@_0BK@NDOCBPGE@no?5such?5file?5or?5directory@ 0000000140067610     libcpmtd:syserror.obj
 0002:00002630       ??_C@_0BA@ENLPPKBN@no?5such?5process@ 0000000140067630     libcpmtd:syserror.obj
 0002:00002640       ??_C@_0BA@DOCPFFJG@not?5a?5directory@ 0000000140067640     libcpmtd:syserror.obj
 0002:00002650       ??_C@_0N@POEIPGGF@not?5a?5socket@ 0000000140067650     libcpmtd:syserror.obj
 0002:00002660       ??_C@_0N@LGAPMMPI@not?5a?5stream@ 0000000140067660     libcpmtd:syserror.obj
 0002:00002670       ??_C@_0O@GLMIBBEG@not?5connected@ 0000000140067670     libcpmtd:syserror.obj
 0002:00002680       ??_C@_0BC@ENOOLCNF@not?5enough?5memory@ 0000000140067680     libcpmtd:syserror.obj
 0002:00002698       ??_C@_0O@NHEDABJP@not?5supported@ 0000000140067698     libcpmtd:syserror.obj
 0002:000026a8       ??_C@_0BD@MOLBPMEA@operation?5canceled@ 00000001400676a8     libcpmtd:syserror.obj
 0002:000026c0       ??_C@_0BG@KDKHOPCO@operation?5in?5progress@ 00000001400676c0     libcpmtd:syserror.obj
 0002:000026d8       ??_C@_0BI@OHIEJAAB@operation?5not?5permitted@ 00000001400676d8     libcpmtd:syserror.obj
 0002:000026f0       ??_C@_0BI@LNEGIFLN@operation?5not?5supported@ 00000001400676f0     libcpmtd:syserror.obj
 0002:00002708       ??_C@_0BG@OEMDKMEE@operation?5would?5block@ 0000000140067708     libcpmtd:syserror.obj
 0002:00002720       ??_C@_0L@BLPOFLNJ@owner?5dead@ 0000000140067720     libcpmtd:syserror.obj
 0002:00002730       ??_C@_0BC@CIJDGCDI@permission?5denied@ 0000000140067730     libcpmtd:syserror.obj
 0002:00002748       ??_C@_0P@FNPOCJBE@protocol?5error@ 0000000140067748     libcpmtd:syserror.obj
 0002:00002758       ??_C@_0BH@JPPPLHJB@protocol?5not?5supported@ 0000000140067758     libcpmtd:syserror.obj
 0002:00002770       ??_C@_0BG@EICBIHDP@read?5only?5file?5system@ 0000000140067770     libcpmtd:syserror.obj
 0002:00002788       ??_C@_0BO@BJBOMOEJ@resource?5deadlock?5would?5occur@ 0000000140067788     libcpmtd:syserror.obj
 0002:000027a8       ??_C@_0BP@LKNGHENJ@resource?5unavailable?5try?5again@ 00000001400677a8     libcpmtd:syserror.obj
 0002:000027c8       ??_C@_0BE@GOIPJJHG@result?5out?5of?5range@ 00000001400677c8     libcpmtd:syserror.obj
 0002:000027e0       ??_C@_0BG@MPLKFPAE@state?5not?5recoverable@ 00000001400677e0     libcpmtd:syserror.obj
 0002:000027f8       ??_C@_0P@DIIFGFCG@stream?5timeout@ 00000001400677f8     libcpmtd:syserror.obj
 0002:00002808       ??_C@_0P@IPFDMIFL@text?5file?5busy@ 0000000140067808     libcpmtd:syserror.obj
 0002:00002818       ??_C@_09KJPPMAOI@timed?5out@ 0000000140067818     libcpmtd:syserror.obj
 0002:00002828       ??_C@_0BO@HACHBEKI@too?5many?5files?5open?5in?5system@ 0000000140067828     libcpmtd:syserror.obj
 0002:00002848       ??_C@_0BE@GHAFMPAH@too?5many?5files?5open@ 0000000140067848     libcpmtd:syserror.obj
 0002:00002860       ??_C@_0P@HCOMKFCC@too?5many?5links@ 0000000140067860     libcpmtd:syserror.obj
 0002:00002870       ??_C@_0BO@EFGOJEF@too?5many?5symbolic?5link?5levels@ 0000000140067870     libcpmtd:syserror.obj
 0002:00002890       ??_C@_0BA@KGKGOOJA@value?5too?5large@ 0000000140067890     libcpmtd:syserror.obj
 0002:000028a0       ??_C@_0BE@MIEJDDNH@wrong?5protocol?5type@ 00000001400678a0     libcpmtd:syserror.obj
 0002:000028b8       ??_C@_0O@BFJCFAAK@unknown?5error@ 00000001400678b8     libcpmtd:syserror.obj
 0002:000028c8       ??_C@_0DM@CBONNKBG@d?3?2a01?2_work?26?2s?2src?2vctools?2cr@ 00000001400678c8     libcpmtd:locale0.obj
 0002:00002910       ??_7_Locimp@locale@std@@6B@ 0000000140067910     libcpmtd:locale0.obj
 0002:00002928       ??_C@_01NBENCBCI@?$CK@     0000000140067928     libcpmtd:locale0.obj
 0002:0000292c       ??_C@_01GFHCPBMG@C@        000000014006792c     libcpmtd:locale0.obj
 0002:00002930       ??_C@_0DJ@HENMAIEA@d?3?2a01?2_work?26?2s?2src?2vctools?2cr@ 0000000140067930     libcpmtd:locale0.obj
 0002:00002970       ??_C@_0DN@MGKJAJP@d?3?2a01?2_work?26?2s?2src?2vctools?2cr@ 0000000140067970     libcpmtd:_tolower.obj
 0002:000029ad       ?nothrow@std@@3Unothrow_t@1@B 00000001400679ad     libcpmtd:nothrow.obj
 0002:000029b8       ??_7codecvt_base@std@@6B@  00000001400679b8     libcpmtd:cin.obj
 0002:000029f0       ??_7ios_base@std@@6B@      00000001400679f0     libcpmtd:cin.obj
 0002:00002a00       ??_7?$basic_streambuf@DU?$char_traits@D@std@@@std@@6B@ 0000000140067a00     libcpmtd:cin.obj
 0002:00002a80       ??_7?$basic_filebuf@DU?$char_traits@D@std@@@std@@6B@ 0000000140067a80     libcpmtd:cin.obj
 0002:00002b00       ??_7?$basic_ios@DU?$char_traits@D@std@@@std@@6B@ 0000000140067b00     libcpmtd:cin.obj
 0002:00002b10       ??_7?$basic_istream@DU?$char_traits@D@std@@@std@@6B@ 0000000140067b10     libcpmtd:cin.obj
 0002:00002b18       ??_8?$basic_istream@DU?$char_traits@D@std@@@std@@7B@ 0000000140067b18     libcpmtd:cin.obj
 0002:00002b28       ??_7?$codecvt@DDU_Mbstatet@@@std@@6B@ 0000000140067b28     libcpmtd:cin.obj
 0002:00002b78       ??_C@_0DI@MMLDHEG@d?3?2a01?2_work?26?2s?2src?2vctools?2cr@ 0000000140067b78     libcpmtd:cin.obj
 0002:00002bb0       ??_C@_1HA@DOLCPANI@?$AAd?$AA?3?$AA?2?$AAa?$AA0?$AA1?$AA?2?$AA_?$AAw?$AAo?$AAr?$AAk?$AA?2?$AA6?$AA?2@ 0000000140067bb0     libcpmtd:cin.obj
 0002:00002c20       ??_C@_0BP@PFIPNLNI@front?$CI?$CJ?5called?5on?5empty?5string@ 0000000140067c20     libcpmtd:cin.obj
 0002:00002c40       ??_C@_1LC@BJDDPGPA@?$AAs?$AAt?$AAd?$AA?3?$AA?3?$AAb?$AAa?$AAs?$AAi?$AAc?$AA_?$AAs?$AAt?$AAr?$AAi@ 0000000140067c40     libcpmtd:cin.obj
 0002:00002d00       ??_C@_1EC@DINNLDHA@?$AA?$CC?$AAf?$AAr?$AAo?$AAn?$AAt?$AA?$CI?$AA?$CJ?$AA?5?$AAc?$AAa?$AAl?$AAl?$AAe?$AAd@ 0000000140067d00     libcpmtd:cin.obj
 0002:00002d48       ??_C@_0BI@CFPLBAOH@invalid?5string?5position@ 0000000140067d48     libcpmtd:cin.obj
 0002:00002d68       ??_7?$basic_ostream@DU?$char_traits@D@std@@@std@@6B@ 0000000140067d68     libcpmtd:cout.obj
 0002:00002d70       ??_8?$basic_ostream@DU?$char_traits@D@std@@@std@@7B@ 0000000140067d70     libcpmtd:cout.obj
 0002:00002e80       ??_C@_17CNPHIMPH@?$AA?$CF?$AAl?$AAs@ 0000000140067e80     libcpmtd:StlLCMapStringA.obj
 0002:00002e90       ??_C@_1FE@KNPCCODH@?$AA?$CI?$AA?$CC?$AAC?$AAo?$AAr?$AAr?$AAu?$AAp?$AAt?$AAe?$AAd?$AA?5?$AAp?$AAo?$AAi@ 0000000140067e90     libcpmtd:StlLCMapStringA.obj
 0002:00002ef0       ??_C@_1IC@BADOEGOD@?$AAd?$AA?3?$AA?2?$AAa?$AA0?$AA1?$AA?2?$AA_?$AAw?$AAo?$AAr?$AAk?$AA?2?$AA6?$AA?2@ 0000000140067ef0     libcpmtd:StlLCMapStringA.obj
 0002:00002f80       ??_C@_0EE@LCICOIND@d?3?2a01?2_work?26?2s?2src?2vctools?2cr@ 0000000140067f80     libcpmtd:StlLCMapStringA.obj
 0002:00002fc8       ?_BADOFF@std@@3_JB         0000000140067fc8     libcpmtd:ios.obj
 0002:00002fd0       ??_C@_11LOCGONAA@@         0000000140067fd0     libcpmtd:wlocale.obj
 0002:00002fd4       ??_C@_13IMODFHAA@?$AA?9@   0000000140067fd4     libcpmtd:wlocale.obj
 0002:00002fd8       ??_C@_01JOAMLHOP@?9@       0000000140067fd8     libcpmtd:wlocale.obj
 0002:00003088       ??_7type_info@@6B@         0000000140068088     LIBCMTD:std_type_info_static.obj
 0002:000030a0       ??_C@_1FK@OACNEHHA@?$AAt?$AAo?$AA?9?$AA?$DO?$AA_?$AAW?$AAh?$AAa?$AAt?$AA?5?$AA?$DN?$AA?$DN?$AA?5?$AAn?$AAu@ 00000001400680a0     libvcruntimed:std_exception.obj
 0002:00003100       ??_C@_1II@HDIONFLJ@?$AAd?$AA?3?$AA?2?$AAa?$AA0?$AA1?$AA?2?$AA_?$AAw?$AAo?$AAr?$AAk?$AA?2?$AA6?$AA?2@ 0000000140068100     libvcruntimed:std_exception.obj
 0002:00003188       ?s_negLengthTab@FH4@@3QBCB 0000000140068188     libvcruntimed:risctrnsctrl.obj
 0002:00003198       ?s_shiftTab@FH4@@3QBEB     0000000140068198     libvcruntimed:risctrnsctrl.obj
 0002:000032e8       _pDestructExceptionObject  00000001400682e8     libvcruntimed:ehhelpers.obj
 0002:000032f0       ??_C@_0EM@PIKBDMFF@d?3?2a01?2_work?26?2s?2src?2vctools?2cr@ 00000001400682f0     libvcruntimed:per_thread_data.obj
 0002:00003348       ??_7bad_exception@std@@6B@ 0000000140068348     libvcruntimed:frame.obj
 0002:00003358       ??_C@_0O@DPKOEFFH@bad?5exception@ 0000000140068358     libvcruntimed:frame.obj
 0002:00003a70       ??_C@_08EHJDFFNH@__based?$CI@ 0000000140068a70     libvcruntimed:undname.obj
 0002:00003a80       ??_C@_07KOLFKCDI@__cdecl@  0000000140068a80     libvcruntimed:undname.obj
 0002:00003a88       ??_C@_08GHMPAG@__pascal@   0000000140068a88     libvcruntimed:undname.obj
 0002:00003a98       ??_C@_09IFJBGAPI@__stdcall@ 0000000140068a98     libvcruntimed:undname.obj
 0002:00003aa8       ??_C@_0L@NPHFGOKO@__thiscall@ 0000000140068aa8     libvcruntimed:undname.obj
 0002:00003ab8       ??_C@_0L@JMKHOMEK@__fastcall@ 0000000140068ab8     libvcruntimed:undname.obj
 0002:00003ac8       ??_C@_0N@BCKKPABJ@__vectorcall@ 0000000140068ac8     libvcruntimed:undname.obj
 0002:00003ad8       ??_C@_09HIJEGCPM@__clrcall@ 0000000140068ad8     libvcruntimed:undname.obj
 0002:00003ae4       ??_C@_06GHPCKEAG@__eabi@   0000000140068ae4     libvcruntimed:undname.obj
 0002:00003af0       ??_C@_09IOPIDJLG@__swift_1@ 0000000140068af0     libvcruntimed:undname.obj
 0002:00003b00       ??_C@_09KFNFGKHF@__swift_2@ 0000000140068b00     libvcruntimed:undname.obj
 0002:00003b10       ??_C@_07JOMMBBKO@__ptr64@  0000000140068b10     libvcruntimed:undname.obj
 0002:00003b18       ??_C@_0L@PILCLIHE@__restrict@ 0000000140068b18     libvcruntimed:undname.obj
 0002:00003b28       ??_C@_0M@GFIIJFMG@__unaligned@ 0000000140068b28     libvcruntimed:undname.obj
 0002:00003b38       ??_C@_09DHDLOLLB@restrict?$CI@ 0000000140068b38     libvcruntimed:undname.obj
 0002:00003b44       ??_C@_04NIHEBCM@?5new@     0000000140068b44     libvcruntimed:undname.obj
 0002:00003b50       ??_C@_07FPCDHGMM@?5delete@ 0000000140068b50     libvcruntimed:undname.obj
 0002:00003b58       ??_C@_01NEMOKFLO@?$DN@     0000000140068b58     libvcruntimed:undname.obj
 0002:00003b5c       ??_C@_02GPIOPFAK@?$DO?$DO@ 0000000140068b5c     libvcruntimed:undname.obj
 0002:00003b60       ??_C@_02FODMEDOG@?$DM?$DM@ 0000000140068b60     libvcruntimed:undname.obj
 0002:00003b64       ??_C@_01DCLJPIOD@?$CB@     0000000140068b64     libvcruntimed:undname.obj
 0002:00003b68       ??_C@_02EGOFBIJA@?$DN?$DN@ 0000000140068b68     libvcruntimed:undname.obj
 0002:00003b6c       ??_C@_02FDNJECIE@?$CB?$DN@ 0000000140068b6c     libvcruntimed:undname.obj
 0002:00003b70       ??_C@_02GPECMEKF@?$FL?$FN@ 0000000140068b70     libvcruntimed:undname.obj
 0002:00003b78       ??_C@_08LHJFAFGD@operator@ 0000000140068b78     libvcruntimed:undname.obj
 0002:00003b84       ??_C@_02HBOOOICD@?9?$DO@   0000000140068b84     libvcruntimed:undname.obj
 0002:00003b88       ??_C@_02ECNGHCIF@?$CL?$CL@ 0000000140068b88     libvcruntimed:undname.obj
 0002:00003b8c       ??_C@_02BAABKJLB@?9?9@     0000000140068b8c     libvcruntimed:undname.obj
 0002:00003b90       ??_C@_01MIFGBAGJ@?$CL@     0000000140068b90     libvcruntimed:undname.obj
 0002:00003b94       ??_C@_01HNPIGOCE@?$CG@     0000000140068b94     libvcruntimed:undname.obj
 0002:00003b98       ??_C@_03MNHNFDLC@?9?$DO?$CK@ 0000000140068b98     libvcruntimed:undname.obj
 0002:00003b9c       ??_C@_01KMDKNFGN@?1@       0000000140068b9c     libvcruntimed:undname.obj
 0002:00003ba0       ??_C@_01FGNFDNOH@?$CF@     0000000140068ba0     libvcruntimed:undname.obj
 0002:00003ba4       ??_C@_01MNNFJEPP@?$DM@     0000000140068ba4     libvcruntimed:undname.obj
 0002:00003ba8       ??_C@_02EHCHHCKH@?$DM?$DN@ 0000000140068ba8     libvcruntimed:undname.obj
 0002:00003bac       ??_C@_01PPODPGHN@?$DO@     0000000140068bac     libvcruntimed:undname.obj
 0002:00003bb0       ??_C@_02EEKDKGMJ@?$DO?$DN@ 0000000140068bb0     libvcruntimed:undname.obj
 0002:00003bb4       ??_C@_01IHBHIGKO@?0@       0000000140068bb4     libvcruntimed:undname.obj
 0002:00003bb8       ??_C@_02HCKGKOFO@?$CI?$CJ@ 0000000140068bb8     libvcruntimed:undname.obj
 0002:00003bbc       ??_C@_01PJKLJHI@?$HO@      0000000140068bbc     libvcruntimed:undname.obj
 0002:00003bc0       ??_C@_01JKBOJNNK@?$FO@     0000000140068bc0     libvcruntimed:undname.obj
 0002:00003bc4       ??_C@_01DNKMNLPK@?$HM@     0000000140068bc4     libvcruntimed:undname.obj
 0002:00003bc8       ??_C@_02PPKAJPJL@?$CG?$CG@ 0000000140068bc8     libvcruntimed:undname.obj
 0002:00003bcc       ??_C@_02NONPIBCD@?$HM?$HM@ 0000000140068bcc     libvcruntimed:undname.obj
 0002:00003bd0       ??_C@_02FPIMKNGF@?$CK?$DN@ 0000000140068bd0     libvcruntimed:undname.obj
 0002:00003bd4       ??_C@_02FOEOMHFC@?$CL?$DN@ 0000000140068bd4     libvcruntimed:undname.obj
 0002:00003bd8       ??_C@_02FKMDLLOA@?9?$DN@   0000000140068bd8     libvcruntimed:undname.obj
 0002:00003bdc       ??_C@_02FJEHGPIO@?1?$DN@   0000000140068bdc     libvcruntimed:undname.obj
 0002:00003be0       ??_C@_02FENAOKFI@?$CF?$DN@ 0000000140068be0     libvcruntimed:undname.obj
 0002:00003be4       ??_C@_03IKFCCPFF@?$DO?$DO?$DN@ 0000000140068be4     libvcruntimed:undname.obj
 0002:00003be8       ??_C@_03CDNPDDLA@?$DM?$DM?$DN@ 0000000140068be8     libvcruntimed:undname.obj
 0002:00003bec       ??_C@_02FGJGFEAB@?$CG?$DN@ 0000000140068bec     libvcruntimed:undname.obj
 0002:00003bf0       ??_C@_02DHLNPPGH@?$HM?$DN@ 0000000140068bf0     libvcruntimed:undname.obj
 0002:00003bf4       ??_C@_02MHEGNOJ@?$FO?$DN@  0000000140068bf4     libvcruntimed:undname.obj
 0002:00003bf8       ??_C@_09IFPLHPGF@?$GAvftable?8@ 0000000140068bf8     libvcruntimed:undname.obj
 0002:00003c08       ??_C@_09BLBHBJP@?$GAvbtable?8@ 0000000140068c08     libvcruntimed:undname.obj
 0002:00003c18       ??_C@_07FEEIOKP@?$GAvcall?8@ 0000000140068c18     libvcruntimed:undname.obj
 0002:00003c20       ??_C@_08LLFFHHDJ@?$GAtypeof?8@ 0000000140068c20     libvcruntimed:undname.obj
 0002:00003c30       ??_C@_0BF@KDPPACIK@?$GAlocal?5static?5guard?8@ 0000000140068c30     libvcruntimed:undname.obj
 0002:00003c48       ??_C@_08OBABFOLI@?$GAstring?8@ 0000000140068c48     libvcruntimed:undname.obj
 0002:00003c58       ??_C@_0BD@JDLKDPAB@?$GAvbase?5destructor?8@ 0000000140068c58     libvcruntimed:undname.obj
 0002:00003c70       ??_C@_0BN@DEGPLNFK@?$GAvector?5deleting?5destructor?8@ 0000000140068c70     libvcruntimed:undname.obj
 0002:00003c90       ??_C@_0BO@OBMKPJIG@?$GAdefault?5constructor?5closure?8@ 0000000140068c90     libvcruntimed:undname.obj
 0002:00003cb0       ??_C@_0BN@IMDCHIKM@?$GAscalar?5deleting?5destructor?8@ 0000000140068cb0     libvcruntimed:undname.obj
 0002:00003cd0       ??_C@_0BO@PFGOCPJJ@?$GAvector?5constructor?5iterator?8@ 0000000140068cd0     libvcruntimed:undname.obj
 0002:00003cf0       ??_C@_0BN@LFPFMEDL@?$GAvector?5destructor?5iterator?8@ 0000000140068cf0     libvcruntimed:undname.obj
 0002:00003d10       ??_C@_0CE@IKBNEHA@?$GAvector?5vbase?5constructor?5itera@ 0000000140068d10     libvcruntimed:undname.obj
 0002:00003d38       ??_C@_0BL@NILFHHPC@?$GAvirtual?5displacement?5map?8@ 0000000140068d38     libvcruntimed:undname.obj
 0002:00003d58       ??_C@_0CB@JONCMFFK@?$GAeh?5vector?5constructor?5iterator@ 0000000140068d58     libvcruntimed:undname.obj
 0002:00003d80       ??_C@_0CA@GCEOPDGL@?$GAeh?5vector?5destructor?5iterator?8@ 0000000140068d80     libvcruntimed:undname.obj
 0002:00003da0       ??_C@_0CH@OOJPLCPH@?$GAeh?5vector?5vbase?5constructor?5it@ 0000000140068da0     libvcruntimed:undname.obj
 0002:00003dc8       ??_C@_0BL@LLKPOHJI@?$GAcopy?5constructor?5closure?8@ 0000000140068dc8     libvcruntimed:undname.obj
 0002:00003de8       ??_C@_0BA@KBCDOMBN@?$GAudt?5returning?8@ 0000000140068de8     libvcruntimed:undname.obj
 0002:00003df8       ??_C@_03KLGMFNMG@?$GAEH@   0000000140068df8     libvcruntimed:undname.obj
 0002:00003dfc       ??_C@_05KHLCHHI@?$GARTTI@  0000000140068dfc     libvcruntimed:undname.obj
 0002:00003e08       ??_C@_0BA@KKLDJDLB@?$GAlocal?5vftable?8@ 0000000140068e08     libvcruntimed:undname.obj
 0002:00003e18       ??_C@_0CE@IIHCMGGL@?$GAlocal?5vftable?5constructor?5clos@ 0000000140068e18     libvcruntimed:undname.obj
 0002:00003e3c       ??_C@_06FHBGPFGH@?5new?$FL?$FN@ 0000000140068e3c     libvcruntimed:undname.obj
 0002:00003e48       ??_C@_09LBNFPBCA@?5delete?$FL?$FN@ 0000000140068e48     libvcruntimed:undname.obj
 0002:00003e58       ??_C@_0P@HJKNJFNN@?$GAomni?5callsig?8@ 0000000140068e58     libvcruntimed:undname.obj
 0002:00003e68       ??_C@_0BL@CNOONJFP@?$GAplacement?5delete?5closure?8@ 0000000140068e68     libvcruntimed:undname.obj
 0002:00003e88       ??_C@_0BN@CKNJLHMB@?$GAplacement?5delete?$FL?$FN?5closure?8@ 0000000140068e88     libvcruntimed:undname.obj
 0002:00003ea8       ??_C@_0CG@CFDHKGGD@?$GAmanaged?5vector?5constructor?5ite@ 0000000140068ea8     libvcruntimed:undname.obj
 0002:00003ed0       ??_C@_0CF@IMGKMJNO@?$GAmanaged?5vector?5destructor?5iter@ 0000000140068ed0     libvcruntimed:undname.obj
 0002:00003ef8       ??_C@_0CG@HLDDJMAG@?$GAeh?5vector?5copy?5constructor?5ite@ 0000000140068ef8     libvcruntimed:undname.obj
 0002:00003f20       ??_C@_0CM@FCBBDIGB@?$GAeh?5vector?5vbase?5copy?5construct@ 0000000140068f20     libvcruntimed:undname.obj
 0002:00003f50       ??_C@_0BL@CLIPGLGB@?$GAdynamic?5initializer?5for?5?8@ 0000000140068f50     libvcruntimed:undname.obj
 0002:00003f70       ??_C@_0CB@PDBIFEP@?$GAdynamic?5atexit?5destructor?5for?5@ 0000000140068f70     libvcruntimed:undname.obj
 0002:00003f98       ??_C@_0CD@CGAJBKEJ@?$GAvector?5copy?5constructor?5iterat@ 0000000140068f98     libvcruntimed:undname.obj
 0002:00003fc0       ??_C@_0CJ@GJELGAMM@?$GAvector?5vbase?5copy?5constructor?5@ 0000000140068fc0     libvcruntimed:undname.obj
 0002:00003ff0       ??_C@_0CL@FGIJHLCE@?$GAmanaged?5vector?5copy?5constructo@ 0000000140068ff0     libvcruntimed:undname.obj
 0002:00004020       ??_C@_0BM@PMGGMLDN@?$GAlocal?5static?5thread?5guard?8@ 0000000140069020     libvcruntimed:undname.obj
 0002:00004040       ??_C@_0N@BDNMDMOL@operator?5?$CC?$CC?5@ 0000000140069040     libvcruntimed:undname.obj
 0002:00004050       ??_C@_0BC@GGEBGALA@operator?5co_await@ 0000000140069050     libvcruntimed:undname.obj
 0002:00004068       ??_C@_0M@GAAIMMOH@operator?$DM?$DN?$DO@ 0000000140069068     libvcruntimed:undname.obj
 0002:00004078       ??_C@_0BC@DAFEJGAK@?5Type?5Descriptor?8@ 0000000140069078     libvcruntimed:undname.obj
 0002:00004090       ??_C@_0BM@LDKODKLH@?5Base?5Class?5Descriptor?5at?5?$CI@ 0000000140069090     libvcruntimed:undname.obj
 0002:000040b0       ??_C@_0BD@LGICGFMM@?5Base?5Class?5Array?8@ 00000001400690b0     libvcruntimed:undname.obj
 0002:000040c8       ??_C@_0BN@MECKDCOJ@?5Class?5Hierarchy?5Descriptor?8@ 00000001400690c8     libvcruntimed:undname.obj
 0002:000040e8       ??_C@_0BK@CFCOFLF@?5Complete?5Object?5Locator?8@ 00000001400690e8     libvcruntimed:undname.obj
 0002:00004108       ??_C@_0BG@JNJLAMPM@?$GAanonymous?5namespace?8@ 0000000140069108     libvcruntimed:undname.obj
 0002:00004138       ??_C@_1DM@KHCHBNEB@?$AAa?$AAp?$AAi?$AA?9?$AAm?$AAs?$AA?9?$AAw?$AAi?$AAn?$AA?9?$AAc?$AAo?$AAr?$AAe@ 0000000140069138     libvcruntimed:winapi_downlevel.obj
 0002:00004178       ??_C@_1DK@LPPGFMPP@?$AAa?$AAp?$AAi?$AA?9?$AAm?$AAs?$AA?9?$AAw?$AAi?$AAn?$AA?9?$AAc?$AAo?$AAr?$AAe@ 0000000140069178     libvcruntimed:winapi_downlevel.obj
 0002:000041b8       ??_C@_1BC@GDMECMAK@?$AAk?$AAe?$AAr?$AAn?$AAe?$AAl?$AA3?$AA2@ 00000001400691b8     libvcruntimed:winapi_downlevel.obj
 0002:000041d0       ??_C@_1BA@PFFKHIOG@?$AAa?$AAp?$AAi?$AA?9?$AAm?$AAs?$AA?9@ 00000001400691d0     libvcruntimed:winapi_downlevel.obj
 0002:000041e0       ??_C@_1EM@LBIFGLGH@?$AAc?$AAa?$AAc?$AAh?$AAe?$AAd?$AA_?$AAh?$AAa?$AAn?$AAd?$AAl?$AAe?$AA?5?$AA?$DN@ 00000001400691e0     libvcruntimed:winapi_downlevel.obj
 0002:00004230       ??_C@_1JK@BNLKABDE@?$AAd?$AA?3?$AA?2?$AAa?$AA0?$AA1?$AA?2?$AA_?$AAw?$AAo?$AAr?$AAk?$AA?2?$AA6?$AA?2@ 0000000140069230     libvcruntimed:winapi_downlevel.obj
 0002:000042d0       ??_C@_1DI@MAHEDLDB@?$AAc?$AAa?$AAc?$AAh?$AAe?$AAd?$AA_?$AAh?$AAa?$AAn?$AAd?$AAl?$AAe?$AA?5?$AA?$DN@ 00000001400692d0     libvcruntimed:winapi_downlevel.obj
 0002:00004310       ??_C@_1FC@IBNCGNKL@?$AAc?$AAa?$AAc?$AAh?$AAe?$AAd?$AA_?$AAf?$AAp?$AA?5?$AA?$DN?$AA?$DN?$AA?5?$AAi?$AAn@ 0000000140069310     libvcruntimed:winapi_downlevel.obj
 0002:00004368       ??_C@_1CI@GDJBAGLP@?$AAc?$AAa?$AAc?$AAh?$AAe?$AAd?$AA_?$AAf?$AAp?$AA?5?$AA?$DN?$AA?$DN?$AA?5?$AAn?$AAe@ 0000000140069368     libvcruntimed:winapi_downlevel.obj
 0002:00004398       ??_C@_08KNHFBNJ@FlsAlloc@  0000000140069398     libvcruntimed:winapi_downlevel.obj
 0002:000043b0       ??_C@_07PEJMOBNF@FlsFree@  00000001400693b0     libvcruntimed:winapi_downlevel.obj
 0002:000043c0       ??_C@_0M@GDNOONDI@FlsGetValue@ 00000001400693c0     libvcruntimed:winapi_downlevel.obj
 0002:000043d8       ??_C@_0M@JCPCPOEF@FlsSetValue@ 00000001400693d8     libvcruntimed:winapi_downlevel.obj
 0002:000043f0       ??_C@_0BM@HCFOFFN@InitializeCriticalSectionEx@ 00000001400693f0     libvcruntimed:winapi_downlevel.obj
 0002:00004438       ??_C@_04HJMOFLDF@Free@     0000000140069438     libucrtd:debug_heap.obj
 0002:00004440       ??_C@_06EFAGIKOH@Normal@   0000000140069440     libucrtd:debug_heap.obj
 0002:00004448       ??_C@_03OGPFLFLO@CRT@      0000000140069448     libucrtd:debug_heap.obj
 0002:0000444c       ??_C@_06KMEJCCGM@Ignore@   000000014006944c     libucrtd:debug_heap.obj
 0002:00004454       ??_C@_06PJIGMIJB@Client@   0000000140069454     libucrtd:debug_heap.obj
 0002:00004460       ??_C@_1CE@LJFEPPMP@?$AA_?$AAC?$AAr?$AAt?$AAC?$AAh?$AAe?$AAc?$AAk?$AAM?$AAe?$AAm?$AAo?$AAr?$AAy@ 0000000140069460     libucrtd:debug_heap.obj
 0002:00004490       ??_C@_1GG@OCLHPJPK@?$AAm?$AAi?$AAn?$AAk?$AAe?$AAr?$AAn?$AAe?$AAl?$AA?2?$AAc?$AAr?$AAt?$AAs?$AA?2@ 0000000140069490     libucrtd:debug_heap.obj
 0002:000044f8       ??_C@_0DF@BBEGIFEK@Client?5hook?5allocation?5failure?5@ 00000001400694f8     libucrtd:debug_heap.obj
 0002:00004530       ??_C@_0CB@CCLOLAHO@Client?5hook?5allocation?5failure?4@ 0000000140069530     libucrtd:debug_heap.obj
 0002:00004558       ??_C@_0DC@JEMAGEKG@Error?3?5memory?5allocation?3?5bad?5m@ 0000000140069558     libucrtd:debug_heap.obj
 0002:00004590       ??_C@_0DI@KKJPDPGM@Client?5hook?5re?9allocation?5failu@ 0000000140069590     libucrtd:debug_heap.obj
 0002:000045c8       ??_C@_0CE@DOFMDOL@Client?5hook?5re?9allocation?5failu@ 00000001400695c8     libucrtd:debug_heap.obj
 0002:000045f0       ??_C@_0FA@EFEIGJKG@Error?3?5memory?5allocation?3?5bad?5m@ 00000001400695f0     libucrtd:debug_heap.obj
 0002:00004640       ??_C@_0EM@LGFLMAGJ@The?5Block?5at?50x?$CFp?5was?5allocated@ 0000000140069640     libucrtd:debug_heap.obj
 0002:00004690       ??_C@_1DM@DEDLGNML@?$AA_?$AAC?$AAr?$AAt?$AAI?$AAs?$AAV?$AAa?$AAl?$AAi?$AAd?$AAH?$AAe?$AAa?$AAp@ 0000000140069690     libucrtd:debug_heap.obj
 0002:000046d0       ??_C@_1PC@MCGKJLN@?$AAo?$AAl?$AAd?$AA_?$AAh?$AAe?$AAa?$AAd?$AA?9?$AA?$DO?$AA_?$AAl?$AAi?$AAn?$AAe@ 00000001400696d0     libucrtd:debug_heap.obj
 0002:000047c8       ??_C@_0DA@HFBKENN@Error?3?5possible?5heap?5corruption@ 00000001400697c8     libucrtd:debug_heap.obj
 0002:00004800       ??_C@_1JM@MCMEPJEP@?$AAr?$AAe?$AAa?$AAl?$AAl?$AAo?$AAc?$AAa?$AAt?$AAi?$AAo?$AAn?$AA_?$AAi?$AAs@ 0000000140069800     libucrtd:debug_heap.obj
 0002:000048a0       ??_C@_1DM@LNOPKAIJ@?$AA_?$AA_?$AAa?$AAc?$AAr?$AAt?$AA_?$AAl?$AAa?$AAs?$AAt?$AA_?$AAb?$AAl?$AAo@ 00000001400698a0     libucrtd:debug_heap.obj
 0002:000048e0       ??_C@_1DO@HABCJBHO@?$AA_?$AA_?$AAa?$AAc?$AAr?$AAt?$AA_?$AAf?$AAi?$AAr?$AAs?$AAt?$AA_?$AAb?$AAl@ 00000001400698e0     libucrtd:debug_heap.obj
 0002:00004920       ??_C@_1CC@CKEAHJPH@?$AAb?$AAl?$AAo?$AAc?$AAk?$AA?5?$AA?$CB?$AA?$DN?$AA?5?$AAn?$AAu?$AAl?$AAl?$AAp?$AAt@ 0000000140069920     libucrtd:debug_heap.obj
 0002:00004950       ??_C@_0EJ@HEIBCIMJ@The?5Block?5at?50x?$CFp?5was?5allocated@ 0000000140069950     libucrtd:debug_heap.obj
 0002:000049a0       ??_C@_0BL@KEIPLFAC@Client?5hook?5free?5failure?4?6@ 00000001400699a0     libucrtd:debug_heap.obj
 0002:000049c0       ??_C@_1FA@KDNEBILF@?$AAi?$AAs?$AA_?$AAb?$AAl?$AAo?$AAc?$AAk?$AA_?$AAt?$AAy?$AAp?$AAe?$AA_?$AAv@ 00000001400699c0     libucrtd:debug_heap.obj
 0002:00004a10       ??_C@_0KI@JGFOHMEB@HEAP?5CORRUPTION?5DETECTED?3?5befor@ 0000000140069a10     libucrtd:debug_heap.obj
 0002:00004ac0       ??_C@_0IK@PJCGLBOB@HEAP?5CORRUPTION?5DETECTED?3?5befor@ 0000000140069ac0     libucrtd:debug_heap.obj
 0002:00004b50       ??_C@_0KE@MBMNHHHN@HEAP?5CORRUPTION?5DETECTED?3?5after@ 0000000140069b50     libucrtd:debug_heap.obj
 0002:00004c00       ??_C@_0IG@LEMBDCJK@HEAP?5CORRUPTION?5DETECTED?3?5after@ 0000000140069c00     libucrtd:debug_heap.obj
 0002:00004c90       ??_C@_1OK@GFEOEJAF@?$AAh?$AAe?$AAa?$AAd?$AAe?$AAr?$AA?9?$AA?$DO?$AA_?$AAl?$AAi?$AAn?$AAe?$AA_?$AAn@ 0000000140069c90     libucrtd:debug_heap.obj
 0002:00004d80       ??_C@_1ME@GFALMLNA@?$AAh?$AAe?$AAa?$AAd?$AAe?$AAr?$AA?9?$AA?$DO?$AA_?$AAb?$AAl?$AAo?$AAc?$AAk?$AA_@ 0000000140069d80     libucrtd:debug_heap.obj
 0002:00004e48       ??_C@_1DI@ILNOPEPI@?$AA_?$AA_?$AAa?$AAc?$AAr?$AAt?$AA_?$AAl?$AAa?$AAs?$AAt?$AA_?$AAb?$AAl?$AAo@ 0000000140069e48     libucrtd:debug_heap.obj
 0002:00004e80       ??_C@_1DK@KEHFGDIJ@?$AA_?$AA_?$AAa?$AAc?$AAr?$AAt?$AA_?$AAf?$AAi?$AAr?$AAs?$AAt?$AA_?$AAb?$AAl@ 0000000140069e80     libucrtd:debug_heap.obj
 0002:00004ec0       ??_C@_1BG@MBKOGDLD@?$AA_?$AAm?$AAs?$AAi?$AAz?$AAe?$AA_?$AAd?$AAb?$AAg@ 0000000140069ec0     libucrtd:debug_heap.obj
 0002:00004ed8       ??_C@_07OHKEFPKJ@DAMAGED@  0000000140069ed8     libucrtd:debug_heap.obj
 0002:00004ee0       ??_C@_0KA@IHNJJKPL@HEAP?5CORRUPTION?5DETECTED?3?5on?5to@ 0000000140069ee0     libucrtd:debug_heap.obj
 0002:00004f80       ??_C@_0IC@BBJIOOJH@HEAP?5CORRUPTION?5DETECTED?3?5on?5to@ 0000000140069f80     libucrtd:debug_heap.obj
 0002:00005010       ??_C@_0EG@DGJMPDBH@?$CFhs?5located?5at?50x?$CFp?5is?5?$CFIu?5byte@ 000000014006a010     libucrtd:debug_heap.obj
 0002:00005058       ??_C@_0CI@JMLBEDHJ@?$CFhs?5located?5at?50x?$CFp?5is?5?$CFIu?5byte@ 000000014006a058     libucrtd:debug_heap.obj
 0002:00005080       ??_C@_0EG@GPFHANHO@Cycle?5in?5block?5list?5detected?5wh@ 000000014006a080     libucrtd:debug_heap.obj
 0002:000050c8       ??_C@_0BJ@ELMAOCAJ@Heap?5validation?5failed?4?6@ 000000014006a0c8     libucrtd:debug_heap.obj
 0002:000050f0       ??_C@_1IE@BBIFDGEB@?$AAn?$AAe?$AAw?$AA_?$AAb?$AAi?$AAt?$AAs?$AA?5?$AA?$DN?$AA?$DN?$AA?5?$AA_?$AAC?$AAR@ 000000014006a0f0     libucrtd:debug_heap.obj
 0002:00005178       ??_C@_1BO@GJFDNMNF@?$AA_?$AAC?$AAr?$AAt?$AAS?$AAe?$AAt?$AAD?$AAb?$AAg?$AAF?$AAl?$AAa?$AAg@ 000000014006a178     libucrtd:debug_heap.obj
 0002:00005198       ??_C@_1CC@BBKMONGA@?$AAs?$AAt?$AAa?$AAt?$AAe?$AA?5?$AA?$CB?$AA?$DN?$AA?5?$AAn?$AAu?$AAl?$AAl?$AAp?$AAt@ 000000014006a198     libucrtd:debug_heap.obj
 0002:000051c0       ??_C@_1CE@NJJKELF@?$AA_?$AAC?$AAr?$AAt?$AAM?$AAe?$AAm?$AAC?$AAh?$AAe?$AAc?$AAk?$AAp?$AAo?$AAi@ 000000014006a1c0     libucrtd:debug_heap.obj
 0002:000051e8       ??_C@_0DP@LEFMFBOD@Bad?5memory?5block?5found?5at?50x?$CFp?4@ 000000014006a1e8     libucrtd:debug_heap.obj
 0002:00005228       ??_C@_0CB@EAAIGELO@Bad?5memory?5block?5found?5at?50x?$CFp?4@ 000000014006a228     libucrtd:debug_heap.obj
 0002:0000524c       ??_C@_05MKKEDADM@?$CF?42X?5@ 000000014006a24c     libucrtd:debug_heap.obj
 0002:00005258       ??_C@_1CC@DIJAHFFJ@?$AAp?$AAr?$AAi?$AAn?$AAt?$AA_?$AAb?$AAl?$AAo?$AAc?$AAk?$AA_?$AAd?$AAa?$AAt@ 000000014006a258     libucrtd:debug_heap.obj
 0002:00005280       ??_C@_1BI@KALLJECN@?$AA?$CI?$AA?$CK?$AA_?$AAe?$AAr?$AAr?$AAn?$AAo?$AA?$CI?$AA?$CJ?$AA?$CJ@ 000000014006a280     libucrtd:debug_heap.obj
 0002:00005298       ??_C@_0BA@HJBKCELP@?5Data?3?5?$DM?$CFs?$DO?5?$CFs?6@ 000000014006a298     libucrtd:debug_heap.obj
 0002:000052a8       ??_C@_0BE@KCIPKCIA@Dumping?5objects?5?9?$DO?6@ 000000014006a2a8     libucrtd:debug_heap.obj
 0002:000052c0       ??_C@_0BE@OIEFNFL@?$CDFile?5Error?$CD?$CI?$CFd?$CJ?5?3?5@ 000000014006a2c0     libucrtd:debug_heap.obj
 0002:000052d8       ??_C@_0L@JMEFFCCJ@?$CFhs?$CI?$CFd?$CJ?5?3?5@ 000000014006a2d8     libucrtd:debug_heap.obj
 0002:000052e4       ??_C@_06PKLGBFGM@?$HL?$CFld?$HN?5@ 000000014006a2e4     libucrtd:debug_heap.obj
 0002:000052f0       ??_C@_0DD@GHNAAKBB@client?5block?5at?50x?$CFp?0?5subtype?5?$CF@ 000000014006a2f0     libucrtd:debug_heap.obj
 0002:00005328       ??_C@_0CH@FAGDDGPN@normal?5block?5at?50x?$CFp?0?5?$CFIu?5bytes@ 000000014006a328     libucrtd:debug_heap.obj
 0002:00005350       ??_C@_0DA@MDLBNIBM@crt?5block?5at?50x?$CFp?0?5subtype?5?$CFx?0?5@ 000000014006a350     libucrtd:debug_heap.obj
 0002:00005380       ??_C@_0BH@GFGKJDCO@Object?5dump?5complete?4?6@ 000000014006a380     libucrtd:debug_heap.obj
 0002:00005398       ??_C@_0BI@JBFPOEJA@Detected?5memory?5leaks?$CB?6@ 000000014006a398     libucrtd:debug_heap.obj
 0002:000053c8       ??_C@_1BA@GLMCNLEM@?$AAW?$AAa?$AAr?$AAn?$AAi?$AAn?$AAg@ 000000014006a3c8     libucrtd:dbgrpt.obj
 0002:000053d8       ??_C@_1M@ILHOPKA@?$AAE?$AAr?$AAr?$AAo?$AAr@ 000000014006a3d8     libucrtd:dbgrpt.obj
 0002:000053e8       ??_C@_1CC@CGHMNGDG@?$AAA?$AAs?$AAs?$AAe?$AAr?$AAt?$AAi?$AAo?$AAn?$AA?5?$AAF?$AAa?$AAi?$AAl?$AAe@ 000000014006a3e8     libucrtd:dbgrpt.obj
 0002:00005420       ??_C@_1OG@PMPPFHAF@?$AA?6?$AA?6?$AAF?$AAo?$AAr?$AA?5?$AAi?$AAn?$AAf?$AAo?$AAr?$AAm?$AAa?$AAt?$AAi@ 000000014006a420     libucrtd:dbgrpt.obj
 0002:00005510       ??_C@_1MG@LJLILFFD@?$AAD?$AAe?$AAb?$AAu?$AAg?$AA?5?$AA?$CF?$AAl?$AAs?$AA?$CB?$AA?6?$AA?6?$AAP?$AAr?$AAo@ 000000014006a510     libucrtd:dbgrpt.obj
 0002:000055e0       ??_C@_1MG@OODCADGL@?$AAD?$AAe?$AAb?$AAu?$AAg?$AA?5?$AA?$CF?$AAl?$AAs?$AA?$CB?$AA?6?$AA?6?$AAP?$AAr?$AAo@ 000000014006a5e0     libucrtd:dbgrpt.obj
 0002:000056a8       ??_C@_0BH@DNAGHKFM@?$DMprogram?5name?5unknown?$DO@ 000000014006a6a8     libucrtd:dbgrpt.obj
 0002:000056c0       ??_C@_1CO@EAEJAADC@?$AA?$DM?$AAp?$AAr?$AAo?$AAg?$AAr?$AAa?$AAm?$AA?5?$AAn?$AAa?$AAm?$AAe?$AA?5?$AAu@ 000000014006a6c0     libucrtd:dbgrpt.obj
 0002:000056f0       ??_C@_1FO@GMJDLAJD@?$AAm?$AAi?$AAn?$AAk?$AAe?$AAr?$AAn?$AAe?$AAl?$AA?2?$AAc?$AAr?$AAt?$AAs?$AA?2@ 000000014006a6f0     libucrtd:dbgrpt.obj
 0002:00005750       ??_C@_1CM@EHMOGBJJ@?$AAc?$AAo?$AAm?$AAm?$AAo?$AAn?$AA_?$AAm?$AAe?$AAs?$AAs?$AAa?$AAg?$AAe?$AA_@ 000000014006a750     libucrtd:dbgrpt.obj
 0002:00005780       ??_C@_1PE@ECNALGCA@?$AAt?$AAr?$AAa?$AAi?$AAt?$AAs?$AA?3?$AA?3?$AAt?$AAc?$AAs?$AAc?$AAp?$AAy?$AA_@ 000000014006a780     libucrtd:dbgrpt.obj
 0002:00005878       ??_C@_1BK@PEDCIPMA@?$AAE?$AAx?$AAp?$AAr?$AAe?$AAs?$AAs?$AAi?$AAo?$AAn?$AA?3?$AA?5@ 000000014006a878     libucrtd:dbgrpt.obj
 0002:00005894       ??_C@_15IABLJNFO@?$AA?6?$AA?6@ 000000014006a894     libucrtd:dbgrpt.obj
 0002:000058a0       ??_C@_1BA@GLLGCPCK@?$AA?6?$AAL?$AAi?$AAn?$AAe?$AA?3?$AA?5@ 000000014006a8a0     libucrtd:dbgrpt.obj
 0002:000058b0       ??_C@_1BA@LNHECFIM@?$AA?6?$AAF?$AAi?$AAl?$AAe?$AA?3?$AA?5@ 000000014006a8b0     libucrtd:dbgrpt.obj
 0002:000058c0       ??_C@_17LGKOMLJ@?$AA?4?$AA?4?$AA?4@ 000000014006a8c0     libucrtd:dbgrpt.obj
 0002:000058c8       ??_C@_1BE@CGCJKGHI@?$AA?6?$AAM?$AAo?$AAd?$AAu?$AAl?$AAe?$AA?3?$AA?5@ 000000014006a8c8     libucrtd:dbgrpt.obj
 0002:000058e0       ??_C@_1JM@IBOIJEOO@?$AAw?$AAc?$AAs?$AAc?$AAp?$AAy?$AA_?$AAs?$AA?$CI?$AAm?$AAe?$AAs?$AAs?$AAa?$AAg@ 000000014006a8e0     libucrtd:dbgrpt.obj
 0002:00005980       ??_C@_1FG@BBOLDHGF@?$AA_?$AAC?$AAr?$AAt?$AAD?$AAb?$AAg?$AAR?$AAe?$AAp?$AAo?$AAr?$AAt?$AA?3?$AA?5@ 000000014006a980     libucrtd:dbgrpt.obj
 0002:000059e0       ??_C@_1EK@MBDPDCGA@?$AAM?$AAi?$AAc?$AAr?$AAo?$AAs?$AAo?$AAf?$AAt?$AA?5?$AAV?$AAi?$AAs?$AAu?$AAa@ 000000014006a9e0     libucrtd:dbgrpt.obj
 0002:00005a30       ??_C@_1BO@MHPFFFJJ@?$AAs?$AAt?$AAr?$AAe?$AAa?$AAm?$AA?4?$AAv?$AAa?$AAl?$AAi?$AAd?$AA?$CI?$AA?$CJ@ 000000014006aa30     libucrtd:fclose.obj
 0002:00005a50       ??_C@_1GA@DKNOMDCL@?$AAm?$AAi?$AAn?$AAk?$AAe?$AAr?$AAn?$AAe?$AAl?$AA?2?$AAc?$AAr?$AAt?$AAs?$AA?2@ 000000014006aa50     libucrtd:fclose.obj
 0002:00005ab0       ??_C@_1O@EGMJNCOI@?$AAf?$AAc?$AAl?$AAo?$AAs?$AAe@ 000000014006aab0     libucrtd:fclose.obj
 0002:00005ac0       ??_C@_1BO@JINCABEC@?$AA_?$AAf?$AAc?$AAl?$AAo?$AAs?$AAe?$AA_?$AAn?$AAo?$AAl?$AAo?$AAc?$AAk@ 000000014006aac0     libucrtd:fclose.obj
 0002:00005ae0       ??_C@_1CK@LLOEFJJG@?$AAf?$AAi?$AAl?$AAe?$AA_?$AAn?$AAa?$AAm?$AAe?$AA?5?$AA?$CB?$AA?$DN?$AA?5?$AAn?$AAu@ 000000014006aae0     libucrtd:fopen.obj
 0002:00005b10       ??_C@_1FO@JKHHBFCN@?$AAm?$AAi?$AAn?$AAk?$AAe?$AAr?$AAn?$AAe?$AAl?$AA?2?$AAc?$AAr?$AAt?$AAs?$AA?2@ 000000014006ab10     libucrtd:fopen.obj
 0002:00005b70       ??_C@_1BM@HBDCPLIA@?$AAc?$AAo?$AAm?$AAm?$AAo?$AAn?$AA_?$AAf?$AAs?$AAo?$AAp?$AAe?$AAn@ 000000014006ab70     libucrtd:fopen.obj
 0002:00005b90       ??_C@_1CA@HJKPLBCC@?$AAm?$AAo?$AAd?$AAe?$AA?5?$AA?$CB?$AA?$DN?$AA?5?$AAn?$AAu?$AAl?$AAl?$AAp?$AAt?$AAr@ 000000014006ab90     libucrtd:fopen.obj
 0002:00005bb0       ??_C@_1BG@HEFEIBLN@?$AA?$CK?$AAm?$AAo?$AAd?$AAe?$AA?5?$AA?$CB?$AA?$DN?$AA?5?$AA0@ 000000014006abb0     libucrtd:fopen.obj
 0002:00005bc8       ??_C@_1CE@JMFACANE@?$AAr?$AAe?$AAs?$AAu?$AAl?$AAt?$AA?5?$AA?$CB?$AA?$DN?$AA?5?$AAn?$AAu?$AAl?$AAl?$AAp@ 000000014006abc8     libucrtd:fopen.obj
 0002:00005bf0       ??_C@_1CE@JLIJLEKO@?$AAs?$AAt?$AAr?$AAe?$AAa?$AAm?$AA?5?$AA?$CB?$AA?$DN?$AA?5?$AAn?$AAu?$AAl?$AAl?$AAp@ 000000014006abf0     libucrtd:fread.obj
 0002:00005c20       ??_C@_1FO@CIJKACCM@?$AAm?$AAi?$AAn?$AAk?$AAe?$AAr?$AAn?$AAe?$AAl?$AA?2?$AAc?$AAr?$AAt?$AAs?$AA?2@ 000000014006ac20     libucrtd:fread.obj
 0002:00005c80       ??_C@_1BA@CMLCEIGG@?$AAf?$AAr?$AAe?$AAa?$AAd?$AA_?$AAs@ 000000014006ac80     libucrtd:fread.obj
 0002:00005c90       ??_C@_1CE@MCCHPLBM@?$AAb?$AAu?$AAf?$AAf?$AAe?$AAr?$AA?5?$AA?$CB?$AA?$DN?$AA?5?$AAn?$AAu?$AAl?$AAl?$AAp@ 000000014006ac90     libucrtd:fread.obj
 0002:00005cb8       ??_C@_1CA@IDPOGFL@?$AA_?$AAf?$AAr?$AAe?$AAa?$AAd?$AA_?$AAn?$AAo?$AAl?$AAo?$AAc?$AAk?$AA_?$AAs@ 000000014006acb8     libucrtd:fread.obj
 0002:00005ce0       ??_C@_1FG@KLKDPCLL@?$AAe?$AAl?$AAe?$AAm?$AAe?$AAn?$AAt?$AA_?$AAc?$AAo?$AAu?$AAn?$AAt?$AA?5?$AA?$DM@ 000000014006ace0     libucrtd:fread.obj
 0002:00005d40       ??_C@_1LG@DCNDJCHK@?$AA?$CI?$AA?$CC?$AAI?$AAn?$AAc?$AAo?$AAn?$AAs?$AAi?$AAs?$AAt?$AAe?$AAn?$AAt?$AA?5@ 000000014006ad40     libucrtd:fread.obj
 0002:00005df8       ??_C@_1DA@DKEFLDMG@?$AA?$CI?$AA?$CC?$AAb?$AAu?$AAf?$AAf?$AAe?$AAr?$AA?5?$AAt?$AAo?$AAo?$AA?5?$AAs?$AAm@ 000000014006adf8     libucrtd:fread.obj
 0002:00005e30       ??_C@_1FO@KMPAKEKH@?$AAm?$AAi?$AAn?$AAk?$AAe?$AAr?$AAn?$AAe?$AAl?$AA?2?$AAc?$AAr?$AAt?$AAs?$AA?2@ 000000014006ae30     libucrtd:fseek.obj
 0002:00005e90       ??_C@_1BK@HEPGDNON@?$AAc?$AAo?$AAm?$AAm?$AAo?$AAn?$AA_?$AAf?$AAs?$AAe?$AAe?$AAk@ 000000014006ae90     libucrtd:fseek.obj
 0002:00005eb0       ??_C@_1HO@BJGCGJL@?$AAw?$AAh?$AAe?$AAn?$AAc?$AAe?$AA?5?$AA?$DN?$AA?$DN?$AA?5?$AAS?$AAE?$AAE?$AAK?$AA_@ 000000014006aeb0     libucrtd:fseek.obj
 0002:00005f30       ??_C@_1CO@LBNDLIPC@?$AAs?$AAt?$AAr?$AAe?$AAa?$AAm?$AA?4?$AAp?$AAu?$AAb?$AAl?$AAi?$AAc?$AA_?$AAs@ 000000014006af30     libucrtd:ftell.obj
 0002:00005f60       ??_C@_1FO@JHBALIAM@?$AAm?$AAi?$AAn?$AAk?$AAe?$AAr?$AAn?$AAe?$AAl?$AA?2?$AAc?$AAr?$AAt?$AAs?$AA?2@ 000000014006af60     libucrtd:ftell.obj
 0002:00005fc0       ??_C@_1CI@MOKEPKDC@?$AAc?$AAo?$AAm?$AAm?$AAo?$AAn?$AA_?$AAf?$AAt?$AAe?$AAl?$AAl?$AA_?$AAn?$AAo@ 000000014006afc0     libucrtd:ftell.obj
 0002:00005ff0       ??_C@_1GM@EDHJGDLB@?$AA?$CI?$AAb?$AAu?$AAf?$AAf?$AAe?$AAr?$AA_?$AAl?$AAa?$AAs?$AAt?$AA?5?$AA?9?$AA?5@ 000000014006aff0     libucrtd:ftell.obj
 0002:00006060       ??_C@_1BK@CMPCEPOF@?$AAc?$AAo?$AAm?$AAm?$AAo?$AAn?$AA_?$AAf?$AAt?$AAe?$AAl?$AAl@ 000000014006b060     libucrtd:ftell.obj
 0002:00006080       __real@3ff0000000000000    000000014006b080     libucrtd:ceil.obj
 0002:00006090       ??_C@_1GI@BNKDKMPA@?$AAm?$AAi?$AAn?$AAk?$AAe?$AAr?$AAn?$AAe?$AAl?$AA?2?$AAc?$AAr?$AAt?$AAs?$AA?2@ 000000014006b090     libucrtd:setlocale.obj
 0002:000060f8       ??_C@_1CA@DEKPAMPG@?$AAc?$AAa?$AAl?$AAl?$AA_?$AAw?$AAs?$AAe?$AAt?$AAl?$AAo?$AAc?$AAa?$AAl?$AAe@ 000000014006b0f8     libucrtd:setlocale.obj
 0002:00006120       ??_C@_1HC@ODOEFNJK@?$AAm?$AAb?$AAs?$AAt?$AAo?$AAw?$AAc?$AAs?$AA_?$AAs?$AA?$CI?$AA?$CG?$AAs?$AAi?$AAz@ 000000014006b120     libucrtd:setlocale.obj
 0002:00006198       ??_C@_0DE@PCFEELDP@minkernel?2crts?2ucrt?2src?2appcrt?2@ 000000014006b198     libucrtd:setlocale.obj
 0002:000061d0       ??_C@_1JE@MHNHEPNK@?$AAm?$AAb?$AAs?$AAt?$AAo?$AAw?$AAc?$AAs?$AA_?$AAs?$AA?$CI?$AAn?$AAu?$AAl?$AAl@ 000000014006b1d0     libucrtd:setlocale.obj
 0002:00006270       ??_C@_1IE@HOKOLPME@?$AAs?$AAe?$AAt?$AAl?$AAo?$AAc?$AAa?$AAl?$AAe?$AA?3?$AA?3?$AA?$DM?$AAl?$AAa?$AAm@ 000000014006b270     libucrtd:setlocale.obj
 0002:00006300       ??_C@_1HC@PEEAAELA@?$AA_?$AAw?$AAc?$AAs?$AAt?$AAo?$AAm?$AAb?$AAs?$AA_?$AAs?$AA_?$AAl?$AA?$CI?$AA?$CG@ 000000014006b300     libucrtd:setlocale.obj
 0002:00006380       ??_C@_1JG@HLMJFODK@?$AA_?$AAw?$AAc?$AAs?$AAt?$AAo?$AAm?$AAb?$AAs?$AA_?$AAs?$AA_?$AAl?$AA?$CI?$AAn@ 000000014006b380     libucrtd:setlocale.obj
 0002:00006420       ??_C@_1BKK@KDHKGOLM@?$AA?$CI?$AAp?$AAt?$AAl?$AAo?$AAc?$AAi?$AA?9?$AA?$DO?$AAl?$AAc?$AA_?$AAc?$AAa?$AAt@ 000000014006b420     libucrtd:setlocale.obj
 0002:000065d0       ??_C@_1GC@MIDGGPKO@?$AAm?$AAi?$AAn?$AAk?$AAe?$AAr?$AAn?$AAe?$AAl?$AA?2?$AAc?$AAr?$AAt?$AAs?$AA?2@ 000000014006b5d0     libucrtd:wcsdup.obj
 0002:00006638       ??_C@_1BI@JDKFAFNF@?$AA_?$AAw?$AAc?$AAs?$AAd?$AAu?$AAp?$AA_?$AAd?$AAb?$AAg@ 000000014006b638     libucrtd:wcsdup.obj
 0002:00006650       ??_C@_1FG@LKKABMLN@?$AAw?$AAc?$AAs?$AAc?$AAp?$AAy?$AA_?$AAs?$AA?$CI?$AAm?$AAe?$AAm?$AAo?$AAr?$AAy@ 000000014006b650     libucrtd:wcsdup.obj
 0002:000066b0       __newctype                 000000014006b6b0     libucrtd:ctype.obj
 0002:000069b0       __newclmap                 000000014006b9b0     libucrtd:ctype.obj
 0002:00006b30       __newcumap                 000000014006bb30     libucrtd:ctype.obj
 0002:00006cb0       _wctype                    000000014006bcb0     libucrtd:ctype.obj
 0002:00006eb8       ??_C@_0DE@PKCHMIOF@minkernel?2crts?2ucrt?2src?2appcrt?2@ 000000014006beb8     libucrtd:initctype.obj
 0002:00006ef0       ??_C@_1GI@DPHPBMAL@?$AAm?$AAi?$AAn?$AAk?$AAe?$AAr?$AAn?$AAe?$AAl?$AA?2?$AAc?$AAr?$AAt?$AAs?$AA?2@ 000000014006bef0     libucrtd:initctype.obj
 0002:00006f58       ??_C@_1DG@NMBGBDM@?$AAp?$AAl?$AAo?$AAc?$AAi?$AA?9?$AA?$DO?$AAc?$AAt?$AAy?$AAp?$AAe?$AA1?$AA_?$AAr@ 000000014006bf58     libucrtd:initctype.obj
 0002:00006f90       ??_C@_0CP@GDJHIDC@minkernel?2crts?2ucrt?2src?2appcrt?2@ 000000014006bf90     libucrtd:_file.obj
 0002:00006fc0       ??_C@_1DC@OGOLMDEL@?$AAp?$AAu?$AAb?$AAl?$AAi?$AAc?$AA_?$AAs?$AAt?$AAr?$AAe?$AAa?$AAm?$AA?5?$AA?$CB@ 000000014006bfc0     libucrtd:_file.obj
 0002:00007000       ??_C@_1FO@IEGKHABE@?$AAm?$AAi?$AAn?$AAk?$AAe?$AAr?$AAn?$AAe?$AAl?$AA?2?$AAc?$AAr?$AAt?$AAs?$AA?2@ 000000014006c000     libucrtd:_file.obj
 0002:00007060       ??_C@_1DI@PJGMCDLC@?$AA_?$AAg?$AAe?$AAt?$AA_?$AAs?$AAt?$AAr?$AAe?$AAa?$AAm?$AA_?$AAb?$AAu?$AAf@ 000000014006c060     libucrtd:_file.obj
 0002:000070a0       ??_C@_1BDG@MKBKGHOH@?$AA?$CI?$AA?5?$AA?$CI?$AA_?$AAS?$AAt?$AAr?$AAe?$AAa?$AAm?$AA?4?$AAi?$AAs?$AA_?$AAs@ 000000014006c0a0     libucrtd:fgetc.obj
 0002:000071e0       ??_C@_1FO@HEEKIEFN@?$AAm?$AAi?$AAn?$AAk?$AAe?$AAr?$AAn?$AAe?$AAl?$AA?2?$AAc?$AAr?$AAt?$AAs?$AA?2@ 000000014006c1e0     libucrtd:fgetc.obj
 0002:00007240       ??_C@_1BM@ODJEACKA@?$AA_?$AAf?$AAg?$AAe?$AAt?$AAc?$AA_?$AAn?$AAo?$AAl?$AAo?$AAc?$AAk@ 000000014006c240     libucrtd:fgetc.obj
 0002:00007260       ??_C@_1M@FBFFFGJE@?$AAf?$AAg?$AAe?$AAt?$AAc@ 000000014006c260     libucrtd:fgetc.obj
 0002:00007270       ??_C@_1GC@KIBACKPA@?$AAm?$AAi?$AAn?$AAk?$AAe?$AAr?$AAn?$AAe?$AAl?$AA?2?$AAc?$AAr?$AAt?$AAs?$AA?2@ 000000014006c270     libucrtd:fgetpos.obj
 0002:000072d8       ??_C@_1BA@PDKPGILH@?$AAf?$AAg?$AAe?$AAt?$AAp?$AAo?$AAs@ 000000014006c2d8     libucrtd:fgetpos.obj
 0002:000072e8       ??_C@_1CI@HCABHFJ@?$AAp?$AAo?$AAs?$AAi?$AAt?$AAi?$AAo?$AAn?$AA?5?$AA?$CB?$AA?$DN?$AA?5?$AAn?$AAu?$AAl@ 000000014006c2e8     libucrtd:fgetpos.obj
 0002:00007310       ??_C@_1FO@FNOAOMLP@?$AAm?$AAi?$AAn?$AAk?$AAe?$AAr?$AAn?$AAe?$AAl?$AA?2?$AAc?$AAr?$AAt?$AAs?$AA?2@ 000000014006c310     libucrtd:fputc.obj
 0002:00007370       ??_C@_1M@OIJMPNCO@?$AAf?$AAp?$AAu?$AAt?$AAc@ 000000014006c370     libucrtd:fputc.obj
 0002:00007380       ??_C@_1GC@FNEGPDLB@?$AAm?$AAi?$AAn?$AAk?$AAe?$AAr?$AAn?$AAe?$AAl?$AA?2?$AAc?$AAr?$AAt?$AAs?$AA?2@ 000000014006c380     libucrtd:fsetpos.obj
 0002:000073e8       ??_C@_1BA@IMLBNLMA@?$AAf?$AAs?$AAe?$AAt?$AAp?$AAo?$AAs@ 000000014006c3e8     libucrtd:fsetpos.obj
 0002:00007400       ??_C@_1GA@JFCHAOOC@?$AAm?$AAi?$AAn?$AAk?$AAe?$AAr?$AAn?$AAe?$AAl?$AA?2?$AAc?$AAr?$AAt?$AAs?$AA?2@ 000000014006c400     libucrtd:fwrite.obj
 0002:00007460       ??_C@_1O@KLNKIMAP@?$AAf?$AAw?$AAr?$AAi?$AAt?$AAe@ 000000014006c460     libucrtd:fwrite.obj
 0002:00007470       ??_C@_1BO@JGPKCBCE@?$AA_?$AAf?$AAw?$AAr?$AAi?$AAt?$AAe?$AA_?$AAn?$AAo?$AAl?$AAo?$AAc?$AAk@ 000000014006c470     libucrtd:fwrite.obj
 0002:00007490       ??_C@_1JG@PCJFJNAC@?$AA?$CI?$AA?$CC?$AAF?$AAl?$AAu?$AAs?$AAh?$AA?5?$AAb?$AAe?$AAt?$AAw?$AAe?$AAe?$AAn@ 000000014006c490     libucrtd:fwrite.obj
 0002:00007528       ??_C@_0DB@BJFCCEBD@minkernel?2crts?2ucrt?2src?2appcrt?2@ 000000014006c528     libucrtd:setvbuf.obj
 0002:00007560       ??_C@_1GC@NAMEPLDD@?$AAm?$AAi?$AAn?$AAk?$AAe?$AAr?$AAn?$AAe?$AAl?$AA?2?$AAc?$AAr?$AAt?$AAs?$AA?2@ 000000014006c560     libucrtd:setvbuf.obj
 0002:000075c8       ??_C@_1BA@OGODIODK@?$AAs?$AAe?$AAt?$AAv?$AAb?$AAu?$AAf@ 000000014006c5c8     libucrtd:setvbuf.obj
 0002:000075e0       ??_C@_1GG@CBGCKJPC@?$AAt?$AAy?$AAp?$AAe?$AA?5?$AA?$DN?$AA?$DN?$AA?5?$AA_?$AAI?$AAO?$AAN?$AAB?$AAF?$AA?5@ 000000014006c5e0     libucrtd:setvbuf.obj
 0002:00007650       ??_C@_1HK@PBPJKDDM@?$AA2?$AA?5?$AA?$DM?$AA?$DN?$AA?5?$AAb?$AAu?$AAf?$AAf?$AAe?$AAr?$AA_?$AAs?$AAi?$AAz@ 000000014006c650     libucrtd:setvbuf.obj
 0002:000076d0       ??_C@_1GA@JPJEOEOF@?$AAm?$AAi?$AAn?$AAk?$AAe?$AAr?$AAn?$AAe?$AAl?$AA?2?$AAc?$AAr?$AAt?$AAs?$AA?2@ 000000014006c6d0     libucrtd:ungetc.obj
 0002:00007730       ??_C@_1O@JDPLECOK@?$AAu?$AAn?$AAg?$AAe?$AAt?$AAc@ 000000014006c730     libucrtd:ungetc.obj
 0002:00007740       ??_C@_1BO@OLMLKKEA@?$AA_?$AAu?$AAn?$AAg?$AAe?$AAt?$AAc?$AA_?$AAn?$AAo?$AAl?$AAo?$AAc?$AAk@ 000000014006c740     libucrtd:ungetc.obj
 0002:00009580       ?large_power_data@?1??multiply_by_power_of_ten@__crt_strtox@@YA_NAEAUbig_integer@2@I@Z@4QBIB 000000014006e580     libucrtd:strtod.obj
 0002:00009e90       ?large_power_indices@?1??multiply_by_power_of_ten@__crt_strtox@@YA_NAEAUbig_integer@2@I@Z@4QBUunpack_index@?1??12@YA_N0I@Z@B 000000014006ee90     libucrtd:strtod.obj
 0002:00009f28       ?small_powers_of_ten@?1??multiply_by_power_of_ten@__crt_strtox@@YA_NAEAUbig_integer@2@I@Z@4QBIB 000000014006ef28     libucrtd:strtod.obj
 0002:00009f50       ??_C@_1DI@GICAMMFM@?$AA?$CI?$AA?$CC?$AAD?$AAi?$AAv?$AAi?$AAs?$AAi?$AAo?$AAn?$AA?5?$AAb?$AAy?$AA?5?$AAz@ 000000014006ef50     libucrtd:strtod.obj
 0002:00009f90       ??_C@_1GO@BFGDDONN@?$AAm?$AAi?$AAn?$AAk?$AAe?$AAr?$AAn?$AAe?$AAl?$AA?2?$AAc?$AAr?$AAt?$AAs?$AA?2@ 000000014006ef90     libucrtd:strtod.obj
 0002:0000a000       ??_C@_1GE@DPGDJKLM@?$AAm?$AAi?$AAn?$AAk?$AAe?$AAr?$AAn?$AAe?$AAl?$AA?2?$AAc?$AAr?$AAt?$AAs?$AA?2@ 000000014006f000     libucrtd:strtod.obj
 0002:0000a068       ??_C@_1CE@BLLJFLOH@?$AAs?$AAt?$AAr?$AAi?$AAn?$AAg?$AA?5?$AA?$CB?$AA?$DN?$AA?5?$AAn?$AAu?$AAl?$AAl?$AAp@ 000000014006f068     libucrtd:strtod.obj
 0002:0000a090       ??_C@_1CM@GJENOOEJ@?$AAc?$AA?5?$AA?$DN?$AA?$DN?$AA?5?$AA?8?$AA?2?$AA0?$AA?8?$AA?5?$AA?$HM?$AA?$HM?$AA?5?$AA?$CK?$AA_@ 000000014006f090     libucrtd:strtod.obj
 0002:0000a0c0       ??_C@_1HA@CONLANFI@?$AA_?$AA_?$AAc?$AAr?$AAt?$AA_?$AAs?$AAt?$AAr?$AAt?$AAo?$AAx?$AA?3?$AA?3?$AAc@ 000000014006f0c0     libucrtd:strtod.obj
 0002:0000a130       ??_C@_1BM@PNEBBBDO@?$AA_?$AAp?$AA?5?$AA?$CB?$AA?$DN?$AA?5?$AAn?$AAu?$AAl?$AAl?$AAp?$AAt?$AAr@ 000000014006f130     libucrtd:strtod.obj
 0002:0000a150       ??_C@_1HG@FCDBLOEG@?$AA_?$AA_?$AAc?$AAr?$AAt?$AA_?$AAs?$AAt?$AAr?$AAt?$AAo?$AAx?$AA?3?$AA?3?$AAc@ 000000014006f150     libucrtd:strtod.obj
 0002:0000a1d0       ??_C@_1GK@MNHIDABG@?$AA_?$AA_?$AAc?$AAr?$AAt?$AA_?$AAs?$AAt?$AAr?$AAt?$AAo?$AAx?$AA?3?$AA?3?$AAc@ 000000014006f1d0     libucrtd:strtod.obj
 0002:0000a240       ??_C@_1HA@MKKIHBHP@?$AA_?$AA_?$AAc?$AAr?$AAt?$AA_?$AAs?$AAt?$AAr?$AAt?$AAo?$AAx?$AA?3?$AA?3?$AAc@ 000000014006f240     libucrtd:strtod.obj
 0002:0000a2b0       ?format_validation_lookup_table_spectre@__crt_stdio_output@@3V?$spectre_mitigated_lookup_table@Ustate_transition_pair@__crt_stdio_output@@$0IA@@1@B 000000014006f2b0     libucrtd:output.obj
 0002:0000a6b0       ??_C@_1GC@LCDLABEA@?$AAm?$AAi?$AAn?$AAk?$AAe?$AAr?$AAn?$AAe?$AAl?$AA?2?$AAc?$AAr?$AAt?$AAs?$AA?2@ 000000014006f6b0     libucrtd:output.obj
 0002:0000a720       ??_C@_1GA@MOBAPGIO@?$AAm?$AAi?$AAn?$AAk?$AAe?$AAr?$AAn?$AAe?$AAl?$AA?2?$AAc?$AAr?$AAt?$AAs?$AA?2@ 000000014006f720     libucrtd:output.obj
 0002:0000a780       ??_C@_1CE@EAKLPBKK@?$AAf?$AAo?$AAr?$AAm?$AAa?$AAt?$AA?5?$AA?$CB?$AA?$DN?$AA?5?$AAn?$AAu?$AAl?$AAl?$AAp@ 000000014006f780     libucrtd:output.obj
 0002:0000a7a8       ??_C@_1CA@PIMGHCEK@?$AAc?$AAo?$AAm?$AAm?$AAo?$AAn?$AA_?$AAv?$AAs?$AAp?$AAr?$AAi?$AAn?$AAt?$AAf@ 000000014006f7a8     libucrtd:output.obj
 0002:0000a7d0       ??_C@_1EO@EGEEFEFM@?$AAb?$AAu?$AAf?$AAf?$AAe?$AAr?$AA_?$AAc?$AAo?$AAu?$AAn?$AAt?$AA?5?$AA?$DN?$AA?$DN@ 000000014006f7d0     libucrtd:output.obj
 0002:0000a820       ??_C@_1CE@JEILLNB@?$AAc?$AAo?$AAm?$AAm?$AAo?$AAn?$AA_?$AAv?$AAs?$AAp?$AAr?$AAi?$AAn?$AAt?$AAf@ 000000014006f820     libucrtd:output.obj
 0002:0000a850       ??_C@_1EM@OAFHAOLH@?$AAb?$AAu?$AAf?$AAf?$AAe?$AAr?$AA?5?$AA?$CB?$AA?$DN?$AA?5?$AAn?$AAu?$AAl?$AAl?$AAp@ 000000014006f850     libucrtd:output.obj
 0002:0000a8a0       ??_C@_1DA@HPBFKMEB@?$AA?$CI?$AA?$CC?$AAB?$AAu?$AAf?$AAf?$AAe?$AAr?$AA?5?$AAt?$AAo?$AAo?$AA?5?$AAs?$AAm@ 000000014006f8a0     libucrtd:output.obj
 0002:0000a8d0       ??_C@_1CG@LHFJHFBB@?$AAc?$AAo?$AAm?$AAm?$AAo?$AAn?$AA_?$AAv?$AAs?$AAn?$AAp?$AAr?$AAi?$AAn?$AAt@ 000000014006f8d0     libucrtd:output.obj
 0002:0000a8f8       ??_C@_1CM@JOIJBMEM@?$AA_?$AAf?$AAo?$AAr?$AAm?$AAa?$AAt?$AA_?$AAi?$AAt?$AA?5?$AA?$CB?$AA?$DN?$AA?5?$AAn@ 000000014006f8f8     libucrtd:output.obj
 0002:0000a930       ??_C@_1HA@DMAAKIJP@?$AAm?$AAi?$AAn?$AAk?$AAe?$AAr?$AAn?$AAe?$AAl?$AA?2?$AAc?$AAr?$AAt?$AAs?$AA?2@ 000000014006f930     libucrtd:output.obj
 0002:0000a9a0       ??_C@_1EE@DMAIGNBG@?$AA?$CI?$AA?$CC?$AAI?$AAn?$AAc?$AAo?$AAr?$AAr?$AAe?$AAc?$AAt?$AA?5?$AAf?$AAo?$AAr@ 000000014006f9a0     libucrtd:output.obj
 0002:0000a9f0       ??_C@_1FG@OBJBDPAC@?$AA?$CI?$AA?$CC?$AAN?$AA?5?$AAl?$AAe?$AAn?$AAg?$AAt?$AAh?$AA?5?$AAm?$AAo?$AAd?$AAi@ 000000014006f9f0     libucrtd:output.obj
 0002:0000aa50       ??_C@_1EC@GJPNJDCN@?$AA_?$AAl?$AAe?$AAn?$AAg?$AAt?$AAh?$AA?5?$AA?$DN?$AA?$DN?$AA?5?$AAl?$AAe?$AAn?$AAg@ 000000014006fa50     libucrtd:output.obj
 0002:0000aa98       ??_C@_1DG@CEJKFDMO@?$AAs?$AAt?$AAa?$AAt?$AAe?$AA_?$AAc?$AAa?$AAs?$AAe?$AA_?$AAn?$AAo?$AAr?$AAm@ 000000014006fa98     libucrtd:output.obj
 0002:0000aad0       ??_C@_1CI@DDKMNCPP@?$AA_?$AAc?$AAo?$AAn?$AAt?$AAe?$AAx?$AAt?$AA?5?$AA?$CB?$AA?$DN?$AA?5?$AAn?$AAu?$AAl@ 000000014006fad0     libucrtd:output.obj
 0002:0000ab00       ??_C@_1HK@IIPGOADH@?$AA_?$AA_?$AAc?$AAr?$AAt?$AA_?$AAs?$AAt?$AAd?$AAi?$AAo?$AA_?$AAo?$AAu?$AAt@ 000000014006fb00     libucrtd:output.obj
 0002:0000ab80       ??_C@_1HE@IACOMEJF@?$AA_?$AA_?$AAc?$AAr?$AAt?$AA_?$AAs?$AAt?$AAd?$AAi?$AAo?$AA_?$AAo?$AAu?$AAt@ 000000014006fb80     libucrtd:output.obj
 0002:0000ac00       ??_C@_1GC@BNMHNGKM@?$AA_?$AAs?$AAt?$AAa?$AAt?$AAe?$AA?5?$AA?$DN?$AA?$DN?$AA?5?$AAs?$AAt?$AAa?$AAt?$AAe@ 000000014006fc00     libucrtd:output.obj
 0002:0000ac70       ??_C@_1BEC@NDOOKIMC@?$AA_?$AA_?$AAc?$AAr?$AAt?$AA_?$AAs?$AAt?$AAd?$AAi?$AAo?$AA_?$AAo?$AAu?$AAt@ 000000014006fc70     libucrtd:output.obj
 0002:0000adc0       ??_C@_1EK@PNGFDECN@?$AA?$CI?$AA?$CC?$AA?8?$AAn?$AA?8?$AA?5?$AAf?$AAo?$AAr?$AAm?$AAa?$AAt?$AA?5?$AAs?$AAp@ 000000014006fdc0     libucrtd:output.obj
 0002:0000ae10       ??_C@_1EO@GHKFGFKL@?$AA?$CI?$AA?$CC?$AAI?$AAn?$AAv?$AAa?$AAl?$AAi?$AAd?$AA?5?$AAi?$AAn?$AAt?$AAe?$AAg@ 000000014006fe10     libucrtd:output.obj
 0002:0000ae60       ??_C@_1BDG@KOLEFKPF@?$AA_?$AA_?$AAc?$AAr?$AAt?$AA_?$AAs?$AAt?$AAd?$AAi?$AAo?$AA_?$AAo?$AAu?$AAt@ 000000014006fe60     libucrtd:output.obj
 0002:0000af98       ??_C@_1O@CEDCILHN@?$AA?$CI?$AAn?$AAu?$AAl?$AAl?$AA?$CJ@ 000000014006ff98     libucrtd:output.obj
 0002:0000afa8       ??_C@_06OJHGLDPL@?$CInull?$CJ@ 000000014006ffa8     libucrtd:output.obj
 0002:0000afb0       ??_C@_1CK@LGDCECDH@?$AA_?$AAf?$AAo?$AAr?$AAm?$AAa?$AAt?$AA_?$AAc?$AAh?$AAa?$AAr?$AA?5?$AA?$CB?$AA?$DN@ 000000014006ffb0     libucrtd:output.obj
 0002:0000afe0       ??_C@_0DI@KIFBHMNO@minkernel?2crts?2ucrt?2inc?2corecrt@ 000000014006ffe0     libucrtd:output.obj
 0002:0000b020       ??_C@_1BMK@JGIBNIA@?$AA_?$AA_?$AAc?$AAr?$AAt?$AA_?$AAs?$AAt?$AAd?$AAi?$AAo?$AA_?$AAo?$AAu?$AAt@ 0000000140070020     libucrtd:output.obj
 0002:0000b1f0       ??_C@_1BLC@INKIGOCN@?$AA_?$AA_?$AAc?$AAr?$AAt?$AA_?$AAs?$AAt?$AAd?$AAi?$AAo?$AA_?$AAo?$AAu?$AAt@ 00000001400701f0     libucrtd:output.obj
 0002:0000b3b0       ??_C@_1BNK@KHNJGCCP@?$AA_?$AA_?$AAc?$AAr?$AAt?$AA_?$AAs?$AAt?$AAd?$AAi?$AAo?$AA_?$AAo?$AAu?$AAt@ 00000001400703b0     libucrtd:output.obj
 0002:0000b590       ??_C@_1BNO@OHFFMOOJ@?$AA_?$AA_?$AAc?$AAr?$AAt?$AA_?$AAs?$AAt?$AAd?$AAi?$AAo?$AA_?$AAo?$AAu?$AAt@ 0000000140070590     libucrtd:output.obj
 0002:0000b770       ??_C@_1BMC@FAGJFBLI@?$AA_?$AA_?$AAc?$AAr?$AAt?$AA_?$AAs?$AAt?$AAd?$AAi?$AAo?$AA_?$AAo?$AAu?$AAt@ 0000000140070770     libucrtd:output.obj
 0002:0000b940       ??_C@_1BMG@CGPDIFDK@?$AA_?$AA_?$AAc?$AAr?$AAt?$AA_?$AAs?$AAt?$AAd?$AAi?$AAo?$AA_?$AAo?$AAu?$AAt@ 0000000140070940     libucrtd:output.obj
 0002:0000bb10       ??_C@_1BNC@OHPDPPJK@?$AA_?$AA_?$AAc?$AAr?$AAt?$AA_?$AAs?$AAt?$AAd?$AAi?$AAo?$AA_?$AAo?$AAu?$AAt@ 0000000140070b10     libucrtd:output.obj
 0002:0000bcf0       ??_C@_1BLK@FOLFMPJH@?$AA_?$AA_?$AAc?$AAr?$AAt?$AA_?$AAs?$AAt?$AAd?$AAi?$AAo?$AA_?$AAo?$AAu?$AAt@ 0000000140070cf0     libucrtd:output.obj
 0002:0000beb0       ??_C@_1BNO@NAODCKFA@?$AA_?$AA_?$AAc?$AAr?$AAt?$AA_?$AAs?$AAt?$AAd?$AAi?$AAo?$AA_?$AAo?$AAu?$AAt@ 0000000140070eb0     libucrtd:output.obj
 0002:0000c090       ??_C@_1BMG@BBEFGBID@?$AA_?$AA_?$AAc?$AAr?$AAt?$AA_?$AAs?$AAt?$AAd?$AAi?$AAo?$AA_?$AAo?$AAu?$AAt@ 0000000140071090     libucrtd:output.obj
 0002:0000c260       ??_C@_1BNC@JPKLPOHO@?$AA_?$AA_?$AAc?$AAr?$AAt?$AA_?$AAs?$AAt?$AAd?$AAi?$AAo?$AA_?$AAo?$AAu?$AAt@ 0000000140071260     libucrtd:output.obj
 0002:0000c438       ??_C@_1DA@LLLMNMKI@?$AAa?$AAb?$AAo?$AAr?$AAt?$AA?$CI?$AA?$CJ?$AA?5?$AAh?$AAa?$AAs?$AA?5?$AAb?$AAe?$AAe@ 0000000140071438     libucrtd:abort.obj
 0002:0000c4b8       ??_C@_0DI@DNFGFCIK@minkernel?2crts?2ucrt?2inc?2corecrt@ 00000001400714b8     libucrtd:strftime.obj
 0002:0000c4f0       ??_C@_13LBAGMAIH@?$AA?6@   00000001400714f0     libucrtd:wcsftime.obj
 0002:0000c500       __acrt_exception_action_table 0000000140071500     libucrtd:exception_filter.obj
 0002:0000c5c0       __acrt_signal_action_table_count 00000001400715c0     libucrtd:exception_filter.obj
 0002:0000c5c8       __acrt_signal_action_first_fpe_index 00000001400715c8     libucrtd:exception_filter.obj
 0002:0000c5d0       __acrt_signal_action_fpe_count 00000001400715d0     libucrtd:exception_filter.obj
 0002:0000c5e0       ??_C@_1IC@DCNEKBE@?$AAm?$AAi?$AAn?$AAk?$AAe?$AAr?$AAn?$AAe?$AAl?$AA?2?$AAc?$AAr?$AAt?$AAs?$AA?2@ 00000001400715e0     libucrtd:report_runtime_error.obj
 0002:0000c668       ??_C@_1DI@BLFJHKKP@?$AA_?$AA_?$AAa?$AAc?$AAr?$AAt?$AA_?$AAr?$AAe?$AAp?$AAo?$AAr?$AAt?$AA_?$AAr@ 0000000140071668     libucrtd:report_runtime_error.obj
 0002:0000c6a0       ??_C@_1LE@MHPGJGKE@?$AAw?$AAc?$AAs?$AAc?$AAp?$AAy?$AA_?$AAs?$AA?$CI?$AAo?$AAu?$AAt?$AAm?$AAs?$AAg@ 00000001400716a0     libucrtd:report_runtime_error.obj
 0002:0000c758       ??_C@_1DE@JNGNBFGO@?$AAR?$AAu?$AAn?$AAt?$AAi?$AAm?$AAe?$AA?5?$AAE?$AAr?$AAr?$AAo?$AAr?$AA?$CB?$AA?6@ 0000000140071758     libucrtd:report_runtime_error.obj
 0002:0000c790       ??_C@_1HK@FJJNAABO@?$AAw?$AAc?$AAs?$AAc?$AAp?$AAy?$AA_?$AAs?$AA?$CI?$AAp?$AAr?$AAo?$AAg?$AAn?$AAa@ 0000000140071790     libucrtd:report_runtime_error.obj
 0002:0000c810       ??_C@_1HI@FLHKGEBE@?$AAw?$AAc?$AAs?$AAn?$AAc?$AAp?$AAy?$AA_?$AAs?$AA?$CI?$AAp?$AAc?$AAh?$AA?0?$AA?5@ 0000000140071810     libucrtd:report_runtime_error.obj
 0002:0000c890       ??_C@_1IG@MNNKBLBI@?$AAw?$AAc?$AAs?$AAc?$AAa?$AAt?$AA_?$AAs?$AA?$CI?$AAo?$AAu?$AAt?$AAm?$AAs?$AAg@ 0000000140071890     libucrtd:report_runtime_error.obj
 0002:0000c920       ??_C@_1IG@DFBBBDAN@?$AAw?$AAc?$AAs?$AAc?$AAa?$AAt?$AA_?$AAs?$AA?$CI?$AAo?$AAu?$AAt?$AAm?$AAs?$AAg@ 0000000140071920     libucrtd:report_runtime_error.obj
 0002:0000c9a8       ??_C@_0DI@KNDIGDEP@minkernel?2crts?2ucrt?2src?2appcrt?2@ 00000001400719a8     libucrtd:argv_parsing.obj
 0002:0000c9e0       ??_C@_1JO@PGBIJBAM@?$AAm?$AAo?$AAd?$AAe?$AA?5?$AA?$DN?$AA?$DN?$AA?5?$AA_?$AAc?$AAr?$AAt?$AA_?$AAa?$AAr@ 00000001400719e0     libucrtd:argv_parsing.obj
 0002:0000ca80       ??_C@_1HA@JMLCANEE@?$AAm?$AAi?$AAn?$AAk?$AAe?$AAr?$AAn?$AAe?$AAl?$AA?2?$AAc?$AAr?$AAt?$AAs?$AA?2@ 0000000140071a80     libucrtd:argv_parsing.obj
 0002:0000caf0       ??_C@_1CM@LHOJELIC@?$AAc?$AAo?$AAm?$AAm?$AAo?$AAn?$AA_?$AAc?$AAo?$AAn?$AAf?$AAi?$AAg?$AAu?$AAr@ 0000000140071af0     libucrtd:argv_parsing.obj
 0002:0000cb20       ??_C@_0EG@LEHKHOEH@minkernel?2crts?2ucrt?2src?2desktop@ 0000000140071b20     libucrtd:environment_initialization.obj
 0002:0000cb70       ??_C@_1IM@IMOFFPLG@?$AAm?$AAi?$AAn?$AAk?$AAe?$AAr?$AAn?$AAe?$AAl?$AA?2?$AAc?$AAr?$AAt?$AAs?$AA?2@ 0000000140071b70     libucrtd:environment_initialization.obj
 0002:0000cc00       ??_C@_1CG@MNNNBNAK@?$AAc?$AAr?$AAe?$AAa?$AAt?$AAe?$AA_?$AAe?$AAn?$AAv?$AAi?$AAr?$AAo?$AAn?$AAm@ 0000000140071c00     libucrtd:environment_initialization.obj
 0002:0000cc30       ??_C@_1HI@OOPIFFGA@?$AAt?$AAr?$AAa?$AAi?$AAt?$AAs?$AA?3?$AA?3?$AAt?$AAc?$AAs?$AAc?$AAp?$AAy?$AA_@ 0000000140071c30     libucrtd:environment_initialization.obj
 0002:0000cca8       ??_C@_1BI@BGOHAHKC@?$AAm?$AAs?$AAc?$AAo?$AAr?$AAe?$AAe?$AA?4?$AAd?$AAl?$AAl@ 0000000140071ca8     libucrtd:exit.obj
 0002:0000ccc0       ??_C@_0P@MIGLKIOC@CorExitProcess@ 0000000140071cc0     libucrtd:exit.obj
 0002:0000ccd0       ??_C@_1GC@CIJNGKLD@?$AAm?$AAi?$AAn?$AAk?$AAe?$AAr?$AAn?$AAe?$AAl?$AA?2?$AAc?$AAr?$AAt?$AAs?$AA?2@ 0000000140071cd0     libucrtd:setmode.obj
 0002:0000cd40       ??_C@_1FO@LPCLHKGE@?$AA?$CI?$AAf?$AAh?$AA?5?$AA?$DO?$AA?$DN?$AA?5?$AA0?$AA?5?$AA?$CG?$AA?$CG?$AA?5?$AA?$CI?$AAu?$AAn@ 0000000140071d40     libucrtd:setmode.obj
 0002:0000cda0       ??_C@_1CM@OKGMMMDH@?$AA?$CI?$AA_?$AAo?$AAs?$AAf?$AAi?$AAl?$AAe?$AA?$CI?$AAf?$AAh?$AA?$CJ?$AA?5?$AA?$CG?$AA?5@ 0000000140071da0     libucrtd:setmode.obj
 0002:0000cdd0       ??_C@_1JE@ECKHFIFP@?$AA?$CI?$AA?$CC?$AAI?$AAn?$AAv?$AAa?$AAl?$AAi?$AAd?$AA?5?$AAf?$AAi?$AAl?$AAe?$AA?5@ 0000000140071dd0     libucrtd:setmode.obj
 0002:0000ce70       ??_C@_1HC@GNDCDMJL@?$AAm?$AAo?$AAd?$AAe?$AA?5?$AA?$DN?$AA?$DN?$AA?5?$AA_?$AAO?$AA_?$AAT?$AAE?$AAX?$AAT@ 0000000140071e70     libucrtd:setmode.obj
 0002:0000cee8       ??_C@_1BG@IEEHLOCL@?$AA_?$AAs?$AAe?$AAt?$AA_?$AAf?$AAm?$AAo?$AAd?$AAe@ 0000000140071ee8     libucrtd:setmode.obj
 0002:0000cf00       ??_C@_1CC@ODGEBJBO@?$AAp?$AAM?$AAo?$AAd?$AAe?$AA?5?$AA?$CB?$AA?$DN?$AA?5?$AAn?$AAu?$AAl?$AAl?$AAp?$AAt@ 0000000140071f00     libucrtd:setmode.obj
 0002:0000cf28       ??_C@_1BG@CKGMPOFH@?$AA_?$AAg?$AAe?$AAt?$AA_?$AAf?$AAm?$AAo?$AAd?$AAe@ 0000000140071f28     libucrtd:setmode.obj
 0002:0000cfc0       __lc_category              0000000140071fc0     libucrtd:wsetlocale.obj
 0002:0000d050       ??_C@_1O@GIFLHMA@?$AAL?$AAC?$AA_?$AAA?$AAL?$AAL@ 0000000140072050     libucrtd:wsetlocale.obj
 0002:0000d060       ??_C@_1BG@PPOMIBNJ@?$AAL?$AAC?$AA_?$AAC?$AAO?$AAL?$AAL?$AAA?$AAT?$AAE@ 0000000140072060     libucrtd:wsetlocale.obj
 0002:0000d078       ??_C@_1BC@FFJGAPJM@?$AAL?$AAC?$AA_?$AAC?$AAT?$AAY?$AAP?$AAE@ 0000000140072078     libucrtd:wsetlocale.obj
 0002:0000d090       ??_C@_1BI@PCKFNJFB@?$AAL?$AAC?$AA_?$AAM?$AAO?$AAN?$AAE?$AAT?$AAA?$AAR?$AAY@ 0000000140072090     libucrtd:wsetlocale.obj
 0002:0000d0a8       ??_C@_1BG@ENIEDKID@?$AAL?$AAC?$AA_?$AAN?$AAU?$AAM?$AAE?$AAR?$AAI?$AAC@ 00000001400720a8     libucrtd:wsetlocale.obj
 0002:0000d0c0       ??_C@_1BA@HAAOMIIG@?$AAL?$AAC?$AA_?$AAT?$AAI?$AAM?$AAE@ 00000001400720c0     libucrtd:wsetlocale.obj
 0002:0000d0d0       ??_C@_1GA@LDEGDKD@?$AA?$CI?$AA?$CC?$AAI?$AAn?$AAv?$AAa?$AAl?$AAi?$AAd?$AA?5?$AAp?$AAa?$AAr?$AAa?$AAm@ 00000001400720d0     libucrtd:wsetlocale.obj
 0002:0000d130       ??_C@_1GK@DPKNLBIE@?$AAm?$AAi?$AAn?$AAk?$AAe?$AAr?$AAn?$AAe?$AAl?$AA?2?$AAc?$AAr?$AAt?$AAs?$AA?2@ 0000000140072130     libucrtd:wsetlocale.obj
 0002:0000d1a0       ??_C@_1CI@FGIONOJM@?$AA_?$AAc?$AAo?$AAn?$AAf?$AAi?$AAg?$AAt?$AAh?$AAr?$AAe?$AAa?$AAd?$AAl?$AAo@ 00000001400721a0     libucrtd:wsetlocale.obj
 0002:0000d1c8       ??_C@_0DF@MKMHJGEJ@minkernel?2crts?2ucrt?2src?2appcrt?2@ 00000001400721c8     libucrtd:wsetlocale.obj
 0002:0000d200       ??_C@_1FG@OHLFEKMC@?$AAL?$AAC?$AA_?$AAM?$AAI?$AAN?$AA?5?$AA?$DM?$AA?$DN?$AA?5?$AA_?$AAc?$AAa?$AAt?$AAe@ 0000000140072200     libucrtd:wsetlocale.obj
 0002:0000d258       ??_C@_1BI@KJNPAEHL@?$AA_?$AAw?$AAs?$AAe?$AAt?$AAl?$AAo?$AAc?$AAa?$AAl?$AAe@ 0000000140072258     libucrtd:wsetlocale.obj
 0002:0000d270       ??_C@_15NBPDDFIP@?$AA?$DN?$AA?$DL@ 0000000140072270     libucrtd:wsetlocale.obj
 0002:0000d278       ??_C@_13PJJBFPED@?$AA?$DL@ 0000000140072278     libucrtd:wsetlocale.obj
 0002:0000d280       ??_C@_1CG@DKJCBBPP@?$AA_?$AAw?$AAs?$AAe?$AAt?$AAl?$AAo?$AAc?$AAa?$AAl?$AAe?$AA_?$AAn?$AAo?$AAl@ 0000000140072280     libucrtd:wsetlocale.obj
 0002:0000d2b0       ??_C@_1IG@NGDCPCDE@?$AAw?$AAc?$AAs?$AAn?$AAc?$AAp?$AAy?$AA_?$AAs?$AA?$CI?$AAl?$AAc?$AAt?$AAe?$AAm@ 00000001400722b0     libucrtd:wsetlocale.obj
 0002:0000d338       ??_C@_1CI@ODOPEMNJ@?$AA_?$AAw?$AAs?$AAe?$AAt?$AAl?$AAo?$AAc?$AAa?$AAl?$AAe?$AA_?$AAs?$AAe?$AAt@ 0000000140072338     libucrtd:wsetlocale.obj
 0002:0000d360       ??_C@_1EM@MHOCNIAA@?$AAw?$AAc?$AAs?$AAc?$AAp?$AAy?$AA_?$AAs?$AA?$CI?$AAp?$AAc?$AAh?$AA_?$AAc?$AAa@ 0000000140072360     libucrtd:wsetlocale.obj
 0002:0000d3ac       ??_C@_13NMPKAAJP@?$AA?$DN@ 00000001400723ac     libucrtd:wsetlocale.obj
 0002:0000d3b0       ??_C@_1CI@LKOPFFBD@?$AA_?$AAw?$AAs?$AAe?$AAt?$AAl?$AAo?$AAc?$AAa?$AAl?$AAe?$AA_?$AAg?$AAe?$AAt@ 00000001400723b0     libucrtd:wsetlocale.obj
 0002:0000d3d8       ??_C@_1DC@HMLJMODP@?$AAw?$AAc?$AAs?$AAc?$AAa?$AAt?$AA_?$AAs?$AA?$CI?$AAp?$AAc?$AAh?$AA?0?$AA?5?$AAc@ 00000001400723d8     libucrtd:wsetlocale.obj
 0002:0000d410       ??_C@_1CK@ENLABMHL@?$AAp?$AAa?$AAr?$AAs?$AAe?$AA_?$AAb?$AAc?$AAp?$AA4?$AA7?$AA_?$AAl?$AAa?$AAn@ 0000000140072410     libucrtd:wsetlocale.obj
 0002:0000d440       ??_C@_1NM@HLCCHHMI@?$AAw?$AAc?$AAs?$AAn?$AAc?$AAp?$AAy?$AA_?$AAs?$AA?$CI?$AAn?$AAa?$AAm?$AAe?$AAs@ 0000000140072440     libucrtd:wsetlocale.obj
 0002:0000d520       ??_C@_1OE@CBMMNIKI@?$AAw?$AAc?$AAs?$AAn?$AAc?$AAp?$AAy?$AA_?$AAs?$AA?$CI?$AAn?$AAa?$AAm?$AAe?$AAs@ 0000000140072520     libucrtd:wsetlocale.obj
 0002:0000d608       ??_C@_1CG@EJAKMGFL@?$AAp?$AAa?$AAr?$AAs?$AAe?$AA_?$AAb?$AAc?$AAp?$AA4?$AA7?$AA_?$AAs?$AAc?$AAr@ 0000000140072608     libucrtd:wsetlocale.obj
 0002:0000d630       ??_C@_1LM@BMOGFEFE@?$AAw?$AAc?$AAs?$AAn?$AAc?$AAa?$AAt?$AA_?$AAs?$AA?$CI?$AAn?$AAa?$AAm?$AAe?$AAs@ 0000000140072630     libucrtd:wsetlocale.obj
 0002:0000d6f0       ??_C@_1OE@EBFAEEFC@?$AAw?$AAc?$AAs?$AAn?$AAc?$AAa?$AAt?$AA_?$AAs?$AA?$CI?$AAn?$AAa?$AAm?$AAe?$AAs@ 00000001400726f0     libucrtd:wsetlocale.obj
 0002:0000d7d8       ??_C@_1CG@DHJLMPNE@?$AAp?$AAa?$AAr?$AAs?$AAe?$AA_?$AAb?$AAc?$AAp?$AA4?$AA7?$AA_?$AAr?$AAe?$AAg@ 00000001400727d8     libucrtd:wsetlocale.obj
 0002:0000d800       ??_C@_1NI@HCNCOMAB@?$AAw?$AAc?$AAs?$AAn?$AAc?$AAp?$AAy?$AA_?$AAs?$AA?$CI?$AAn?$AAa?$AAm?$AAe?$AAs@ 0000000140072800     libucrtd:wsetlocale.obj
 0002:0000d8d8       ??_C@_1CM@BFJANLBJ@?$AAp?$AAa?$AAr?$AAs?$AAe?$AA_?$AAb?$AAc?$AAp?$AA4?$AA7?$AA_?$AAc?$AAo?$AAd@ 00000001400728d8     libucrtd:wsetlocale.obj
 0002:0000d910       ??_C@_1NM@EHBAOOJF@?$AAw?$AAc?$AAs?$AAn?$AAc?$AAp?$AAy?$AA_?$AAs?$AA?$CI?$AAn?$AAa?$AAm?$AAe?$AAs@ 0000000140072910     libucrtd:wsetlocale.obj
 0002:0000d9f0       ??_C@_17EFJLDFDO@?$AA?9?$AA_?$AA?4@ 00000001400729f0     libucrtd:wsetlocale.obj
 0002:0000da00       ??_C@_1IC@GOFECMPC@?$AA_?$AAe?$AAx?$AAp?$AAa?$AAn?$AAd?$AAl?$AAo?$AAc?$AAa?$AAl?$AAe?$AA_?$AAl@ 0000000140072a00     libucrtd:wsetlocale.obj
 0002:0000da90       ??_C@_1BCI@NFIGLKLE@?$AAw?$AAc?$AAs?$AAn?$AAc?$AAp?$AAy?$AA_?$AAs?$AA?$CI?$AAl?$AAo?$AAc?$AAa?$AAl@ 0000000140072a90     libucrtd:wsetlocale.obj
 0002:0000dbc0       ??_C@_1IE@NLIFNJDL@?$AA_?$AAe?$AAx?$AAp?$AAa?$AAn?$AAd?$AAl?$AAo?$AAc?$AAa?$AAl?$AAe?$AA_?$AAl@ 0000000140072bc0     libucrtd:wsetlocale.obj
 0002:0000dc50       ??_C@_1BDA@BKILNJJG@?$AAw?$AAc?$AAs?$AAn?$AAc?$AAp?$AAy?$AA_?$AAs?$AA?$CI?$AA_?$AAp?$AAs?$AAe?$AAt@ 0000000140072c50     libucrtd:wsetlocale.obj
 0002:0000dd80       ??_C@_1GI@FBIHHKPD@?$AA_?$AAe?$AAx?$AAp?$AAa?$AAn?$AAd?$AAl?$AAo?$AAc?$AAa?$AAl?$AAe?$AA_?$AAl@ 0000000140072d80     libucrtd:wsetlocale.obj
 0002:0000ddf0       ??_C@_1BCM@CLIFPJEI@?$AAw?$AAc?$AAs?$AAn?$AAc?$AAp?$AAy?$AA_?$AAs?$AA?$CI?$AA_?$AAp?$AAs?$AAe?$AAt@ 0000000140072df0     libucrtd:wsetlocale.obj
 0002:0000df20       ??_C@_1JE@NMNMNJCJ@?$AA_?$AAe?$AAx?$AAp?$AAa?$AAn?$AAd?$AAl?$AAo?$AAc?$AAa?$AAl?$AAe?$AA_?$AAl@ 0000000140072f20     libucrtd:wsetlocale.obj
 0002:0000dfc0       ??_C@_1LM@FAJKEGBG@?$AAw?$AAc?$AAs?$AAn?$AAc?$AAp?$AAy?$AA_?$AAs?$AA?$CI?$AA_?$AAl?$AAo?$AAc?$AAa@ 0000000140072fc0     libucrtd:wsetlocale.obj
 0002:0000e080       ??_C@_1BM@OIIBLEFG@?$AA_?$AAe?$AAx?$AAp?$AAa?$AAn?$AAd?$AAl?$AAo?$AAc?$AAa?$AAl?$AAe@ 0000000140073080     libucrtd:wsetlocale.obj
 0002:0000e0a0       ??_C@_1EI@OCINLCHN@?$AAw?$AAc?$AAs?$AAc?$AAp?$AAy?$AA_?$AAs?$AA?$CI?$AAo?$AAu?$AAt?$AAp?$AAu?$AAt@ 00000001400730a0     libucrtd:wsetlocale.obj
 0002:0000e0e8       ??_C@_13FHBKNHDA@?$AAC@    00000001400730e8     libucrtd:wsetlocale.obj
 0002:0000e0f0       ??_C@_1IG@MKDIEKFD@?$AAw?$AAc?$AAs?$AAn?$AAc?$AAp?$AAy?$AA_?$AAs?$AA?$CI?$AAc?$AAa?$AAc?$AAh?$AAe@ 00000001400730f0     libucrtd:wsetlocale.obj
 0002:0000e180       ??_C@_1IC@FCCDBGLL@?$AAw?$AAc?$AAs?$AAn?$AAc?$AAp?$AAy?$AA_?$AAs?$AA?$CI?$AAc?$AAa?$AAc?$AAh?$AAe@ 0000000140073180     libucrtd:wsetlocale.obj
 0002:0000e210       ??_C@_1FA@HOOAAHFF@?$AAw?$AAc?$AAs?$AAc?$AAp?$AAy?$AA_?$AAs?$AA?$CI?$AAo?$AAu?$AAt?$AAp?$AAu?$AAt@ 0000000140073210     libucrtd:wsetlocale.obj
 0002:0000e260       ??_C@_1BC@LEOKFFML@?$AA_?$AAw?$AAc?$AAs?$AAc?$AAa?$AAt?$AAs@ 0000000140073260     libucrtd:wsetlocale.obj
 0002:0000e280       ??_C@_1CAG@PIBCFPMG@?$AAw?$AAc?$AAs?$AAc?$AAa?$AAt?$AA_?$AAs?$AA?$CI?$AAo?$AAu?$AAt?$AAs?$AAt?$AAr@ 0000000140073280     libucrtd:wsetlocale.obj
 0002:0000e488       ??_C@_1BK@GNCHCGCN@?$AA_?$AA_?$AAl?$AAc?$AA_?$AAw?$AAc?$AAs?$AAt?$AAo?$AAl?$AAc@ 0000000140073488     libucrtd:wsetlocale.obj
 0002:0000e4b0       ??_C@_1MI@MGHKCMFH@?$AAw?$AAc?$AAs?$AAn?$AAc?$AAp?$AAy?$AA_?$AAs?$AA?$CI?$AAn?$AAa?$AAm?$AAe?$AAs@ 00000001400734b0     libucrtd:wsetlocale.obj
 0002:0000e578       ??_C@_17MBJJLFDM@?$AA_?$AA?4?$AA?0@ 0000000140073578     libucrtd:wsetlocale.obj
 0002:0000e580       ??_C@_1LO@GGCCDNLJ@?$AAw?$AAc?$AAs?$AAn?$AAc?$AAp?$AAy?$AA_?$AAs?$AA?$CI?$AAn?$AAa?$AAm?$AAe?$AAs@ 0000000140073580     libucrtd:wsetlocale.obj
 0002:0000e640       ??_C@_1LK@JOIOCOID@?$AAw?$AAc?$AAs?$AAn?$AAc?$AAp?$AAy?$AA_?$AAs?$AA?$CI?$AAn?$AAa?$AAm?$AAe?$AAs@ 0000000140073640     libucrtd:wsetlocale.obj
 0002:0000e700       ??_C@_1LO@OJICFEP@?$AAw?$AAc?$AAs?$AAn?$AAc?$AAp?$AAy?$AA_?$AAs?$AA?$CI?$AAn?$AAa?$AAm?$AAe?$AAs@ 0000000140073700     libucrtd:wsetlocale.obj
 0002:0000e7c0       ??_C@_1BK@HEBMGPEK@?$AA_?$AA_?$AAl?$AAc?$AA_?$AAl?$AAc?$AAt?$AAo?$AAw?$AAc?$AAs@ 00000001400737c0     libucrtd:wsetlocale.obj
 0002:0000e7e0       ??_C@_1GM@FOFMGOEK@?$AAw?$AAc?$AAs?$AAc?$AAp?$AAy?$AA_?$AAs?$AA?$CI?$AAl?$AAo?$AAc?$AAa?$AAl?$AAe@ 00000001400737e0     libucrtd:wsetlocale.obj
 0002:0000e84c       ??_C@_13ENNFDPBH@?$AA_@    000000014007384c     libucrtd:wsetlocale.obj
 0002:0000e850       ??_C@_13JOFGPIOO@?$AA?4@   0000000140073850     libucrtd:wsetlocale.obj
 0002:0000e858       ??_C@_1DA@BBIOOKDN@?$AA_?$AA_?$AAa?$AAc?$AAr?$AAt?$AA_?$AAc?$AAo?$AAp?$AAy?$AA_?$AAl?$AAo?$AAc@ 0000000140073858     libucrtd:wsetlocale.obj
 0002:0000e890       ??_C@_1GI@HBNMCKGD@?$AAw?$AAc?$AAs?$AAn?$AAc?$AAp?$AAy?$AA_?$AAs?$AA?$CI?$AAl?$AAo?$AAc?$AAa?$AAl@ 0000000140073890     libucrtd:wsetlocale.obj
 0002:0000e8f8       ??_C@_1CO@JKFLNGDK@?$AAm?$AAo?$AAd?$AAe?$AA?5?$AA?$DN?$AA?$DN?$AA?5?$AA0?$AA?5?$AA?$HM?$AA?$HM?$AA?5?$AAm?$AAo@ 00000001400738f8     libucrtd:new_mode.obj
 0002:0000e930       ??_C@_1GC@PJMKBHEK@?$AAm?$AAi?$AAn?$AAk?$AAe?$AAr?$AAn?$AAe?$AAl?$AA?2?$AAc?$AAr?$AAt?$AAs?$AA?2@ 0000000140073930     libucrtd:new_mode.obj
 0002:0000e998       ??_C@_1BM@PDPAKJNF@?$AA_?$AAs?$AAe?$AAt?$AA_?$AAn?$AAe?$AAw?$AA_?$AAm?$AAo?$AAd?$AAe@ 0000000140073998     libucrtd:new_mode.obj
 0002:0000e9e0       ??_C@_0DC@NBHMIIKL@minkernel?2crts?2ucrt?2src?2appcrt?2@ 00000001400739e0     libucrtd:onexit.obj
 0002:0000eb20       ??_C@_1GI@BBAEIKL@?$AA?$CI?$AA?$CI?$AAd?$AAe?$AAs?$AAt?$AAi?$AAn?$AAa?$AAt?$AAi?$AAo?$AAn?$AA?$CJ?$AA?$CJ@ 0000000140073b20     libucrtd:strcpy_s.obj
 0002:0000eb90       ??_C@_1HI@PBJPCEBC@?$AAm?$AAi?$AAn?$AAk?$AAe?$AAr?$AAn?$AAe?$AAl?$AA?2?$AAc?$AAr?$AAt?$AAs?$AA?2@ 0000000140073b90     libucrtd:strcpy_s.obj
 0002:0000ec08       ??_C@_1CA@FHIAGDFH@?$AAc?$AAo?$AAm?$AAm?$AAo?$AAn?$AA_?$AAt?$AAc?$AAs?$AAc?$AAp?$AAy?$AA_?$AAs@ 0000000140073c08     libucrtd:strcpy_s.obj
 0002:0000ec28       ??_C@_1CK@EIOKGPJL@?$AA?$CI?$AA?$CI?$AA?$CI?$AAs?$AAo?$AAu?$AAr?$AAc?$AAe?$AA?$CJ?$AA?$CJ?$AA?$CJ?$AA?5?$AA?$CB?$AA?$DN@ 0000000140073c28     libucrtd:strcpy_s.obj
 0002:0000ec58       ??_C@_1CI@HCPHDDLE@?$AAB?$AAu?$AAf?$AAf?$AAe?$AAr?$AA?5?$AAi?$AAs?$AA?5?$AAt?$AAo?$AAo?$AA?5?$AAs@ 0000000140073c58     libucrtd:strcpy_s.obj
 0002:0000ec80       ??_C@_1DM@MADKGDLO@?$AA?$CI?$AAL?$AA?$CC?$AAB?$AAu?$AAf?$AAf?$AAe?$AAr?$AA?5?$AAi?$AAs?$AA?5?$AAt?$AAo@ 0000000140073c80     libucrtd:strcpy_s.obj
 0002:0000ecc0       ??_C@_1EO@MLJCKPIB@?$AAb?$AAa?$AAs?$AAe?$AA?5?$AA?$DN?$AA?$DN?$AA?5?$AA0?$AA?5?$AA?$HM?$AA?$HM?$AA?5?$AA?$CI?$AA2@ 0000000140073cc0     libucrtd:atox.obj
 0002:0000ed10       ??_C@_1DI@BANODKFL@?$AA_?$AA_?$AAc?$AAr?$AAt?$AA_?$AAs?$AAt?$AAr?$AAt?$AAo?$AAx?$AA?3?$AA?3?$AAp@ 0000000140073d10     libucrtd:atox.obj
 0002:0000ed48       ??_C@_0DM@DKIFNNOL@minkernel?2crts?2ucrt?2src?2appcrt?2@ 0000000140073d48     libucrtd:per_thread_data.obj
 0002:0000ed88       ??_C@_1CI@JELMFMDH@?$AAc?$AA?5?$AA?$DO?$AA?$DN?$AA?5?$AA?9?$AA1?$AA?5?$AA?$CG?$AA?$CG?$AA?5?$AAc?$AA?5?$AA?$DM?$AA?$DN@ 0000000140073d88     libucrtd:isctype.obj
 0002:0000edb0       ??_C@_1GG@KPBGDFHJ@?$AAm?$AAi?$AAn?$AAk?$AAe?$AAr?$AAn?$AAe?$AAl?$AA?2?$AAc?$AAr?$AAt?$AAs?$AA?2@ 0000000140073db0     libucrtd:isctype.obj
 0002:0000ee20       ??_C@_1FO@GEKPJHID@?$AAm?$AAi?$AAn?$AAk?$AAe?$AAr?$AAn?$AAe?$AAl?$AA?2?$AAc?$AAr?$AAt?$AAs?$AA?2@ 0000000140073e20     libucrtd:expand.obj
 0002:0000ee80       ??_C@_1BK@JMCGJOCC@?$AA_?$AAe?$AAx?$AAp?$AAa?$AAn?$AAd?$AA_?$AAb?$AAa?$AAs?$AAe@ 0000000140073e80     libucrtd:expand.obj
 0002:0000eea0       __lc_time_c                0000000140073ea0     libucrtd:nlsdata.obj
 0002:0000f160       ??_C@_03KOEHGMDN@Sun@      0000000140074160     libucrtd:nlsdata.obj
 0002:0000f164       ??_C@_03PDAGKDH@Mon@       0000000140074164     libucrtd:nlsdata.obj
 0002:0000f168       ??_C@_03NAGEINEP@Tue@      0000000140074168     libucrtd:nlsdata.obj
 0002:0000f16c       ??_C@_03MHOMLAJA@Wed@      000000014007416c     libucrtd:nlsdata.obj
 0002:0000f170       ??_C@_03IOFIKPDN@Thu@      0000000140074170     libucrtd:nlsdata.obj
 0002:0000f174       ??_C@_03IDIOELNC@Fri@      0000000140074174     libucrtd:nlsdata.obj
 0002:0000f178       ??_C@_03FEFJNEK@Sat@       0000000140074178     libucrtd:nlsdata.obj
 0002:0000f17c       ??_C@_06OOPIFAJ@Sunday@    000000014007417c     libucrtd:nlsdata.obj
 0002:0000f184       ??_C@_06JLEDEDGH@Monday@   0000000140074184     libucrtd:nlsdata.obj
 0002:0000f190       ??_C@_07BAAGCFCM@Tuesday@  0000000140074190     libucrtd:nlsdata.obj
 0002:0000f198       ??_C@_09DLIGFAKA@Wednesday@ 0000000140074198     libucrtd:nlsdata.obj
 0002:0000f1a8       ??_C@_08HACCIKIA@Thursday@ 00000001400741a8     libucrtd:nlsdata.obj
 0002:0000f1b4       ??_C@_06JECMNKMI@Friday@   00000001400741b4     libucrtd:nlsdata.obj
 0002:0000f1c0       ??_C@_08INBOOONO@Saturday@ 00000001400741c0     libucrtd:nlsdata.obj
 0002:0000f1cc       ??_C@_03JIHJHPIE@Jan@      00000001400741cc     libucrtd:nlsdata.obj
 0002:0000f1d0       ??_C@_03HJBDCHOM@Feb@      00000001400741d0     libucrtd:nlsdata.obj
 0002:0000f1d4       ??_C@_03ODNJBKGA@Mar@      00000001400741d4     libucrtd:nlsdata.obj
 0002:0000f1d8       ??_C@_03LEOLGMJP@Apr@      00000001400741d8     libucrtd:nlsdata.obj
 0002:0000f1dc       ??_C@_03CNMDKL@May@        00000001400741dc     libucrtd:nlsdata.obj
 0002:0000f1e0       ??_C@_03IDFGHECI@Jun@      00000001400741e0     libucrtd:nlsdata.obj
 0002:0000f1e4       ??_C@_03LBGABGKK@Jul@      00000001400741e4     libucrtd:nlsdata.obj
 0002:0000f1e8       ??_C@_03IFJFEIGA@Aug@      00000001400741e8     libucrtd:nlsdata.obj
 0002:0000f1ec       ??_C@_03GGCAPAJC@Sep@      00000001400741ec     libucrtd:nlsdata.obj
 0002:0000f1f0       ??_C@_03BMAOKBAD@Oct@      00000001400741f0     libucrtd:nlsdata.obj
 0002:0000f1f4       ??_C@_03JPJOFNIA@Nov@      00000001400741f4     libucrtd:nlsdata.obj
 0002:0000f1f8       ??_C@_03MKABNOCG@Dec@      00000001400741f8     libucrtd:nlsdata.obj
 0002:0000f200       ??_C@_07CGJPFGJA@January@  0000000140074200     libucrtd:nlsdata.obj
 0002:0000f208       ??_C@_08GNJGEPFN@February@ 0000000140074208     libucrtd:nlsdata.obj
 0002:0000f214       ??_C@_05HPCKOFNC@March@    0000000140074214     libucrtd:nlsdata.obj
 0002:0000f21c       ??_C@_05DMJDNLEJ@April@    000000014007421c     libucrtd:nlsdata.obj
 0002:0000f224       ??_C@_04CNLMGBGM@June@     0000000140074224     libucrtd:nlsdata.obj
 0002:0000f22c       ??_C@_04MIEPOIFP@July@     000000014007422c     libucrtd:nlsdata.obj
 0002:0000f234       ??_C@_06LBBHFDDG@August@   0000000140074234     libucrtd:nlsdata.obj
 0002:0000f240       ??_C@_09BHHEALKD@September@ 0000000140074240     libucrtd:nlsdata.obj
 0002:0000f250       ??_C@_07JJNFCEND@October@  0000000140074250     libucrtd:nlsdata.obj
 0002:0000f258       ??_C@_08HCHEGEOA@November@ 0000000140074258     libucrtd:nlsdata.obj
 0002:0000f268       ??_C@_08EDHMEBNP@December@ 0000000140074268     libucrtd:nlsdata.obj
 0002:0000f274       ??_C@_02DEDBPAFC@AM@       0000000140074274     libucrtd:nlsdata.obj
 0002:0000f278       ??_C@_02CJNFDJBF@PM@       0000000140074278     libucrtd:nlsdata.obj
 0002:0000f280       ??_C@_08BPBNCDIB@MM?1dd?1yy@ 0000000140074280     libucrtd:nlsdata.obj
 0002:0000f290       ??_C@_0BE@CKGJFCPC@dddd?0?5MMMM?5dd?0?5yyyy@ 0000000140074290     libucrtd:nlsdata.obj
 0002:0000f2a8       ??_C@_08JCCMCCIL@HH?3mm?3ss@ 00000001400742a8     libucrtd:nlsdata.obj
 0002:0000f2b8       ??_C@_17MBGCMIPB@?$AAS?$AAu?$AAn@ 00000001400742b8     libucrtd:nlsdata.obj
 0002:0000f2c0       ??_C@_17KBOMKBF@?$AAM?$AAo?$AAn@ 00000001400742c0     libucrtd:nlsdata.obj
 0002:0000f2c8       ??_C@_17BMKGEGOJ@?$AAT?$AAu?$AAe@ 00000001400742c8     libucrtd:nlsdata.obj
 0002:0000f2d0       ??_C@_17CJEDCEPE@?$AAW?$AAe?$AAd@ 00000001400742d0     libucrtd:nlsdata.obj
 0002:0000f2d8       ??_C@_17PDPHAADD@?$AAT?$AAh?$AAu@ 00000001400742d8     libucrtd:nlsdata.obj
 0002:0000f2e0       ??_C@_17HFOLPPLP@?$AAF?$AAr?$AAi@ 00000001400742e0     libucrtd:nlsdata.obj
 0002:0000f2e8       ??_C@_17GGIBDPIH@?$AAS?$AAa?$AAt@ 00000001400742e8     libucrtd:nlsdata.obj
 0002:0000f2f0       ??_C@_1O@IHNHDHPB@?$AAS?$AAu?$AAn?$AAd?$AAa?$AAy@ 00000001400742f0     libucrtd:nlsdata.obj
 0002:0000f300       ??_C@_1O@MMNBFLIA@?$AAM?$AAo?$AAn?$AAd?$AAa?$AAy@ 0000000140074300     libucrtd:nlsdata.obj
 0002:0000f310       ??_C@_1BA@ENFBFFEK@?$AAT?$AAu?$AAe?$AAs?$AAd?$AAa?$AAy@ 0000000140074310     libucrtd:nlsdata.obj
 0002:0000f320       ??_C@_1BE@EBOGMDOH@?$AAW?$AAe?$AAd?$AAn?$AAe?$AAs?$AAd?$AAa?$AAy@ 0000000140074320     libucrtd:nlsdata.obj
 0002:0000f338       ??_C@_1BC@HHMNLIHE@?$AAT?$AAh?$AAu?$AAr?$AAs?$AAd?$AAa?$AAy@ 0000000140074338     libucrtd:nlsdata.obj
 0002:0000f350       ??_C@_1O@PDICJHAG@?$AAF?$AAr?$AAi?$AAd?$AAa?$AAy@ 0000000140074350     libucrtd:nlsdata.obj
 0002:0000f360       ??_C@_1BC@ENMNNPAJ@?$AAS?$AAa?$AAt?$AAu?$AAr?$AAd?$AAa?$AAy@ 0000000140074360     libucrtd:nlsdata.obj
 0002:0000f378       ??_C@_17DKNBKCHM@?$AAJ?$AAa?$AAn@ 0000000140074378     libucrtd:nlsdata.obj
 0002:0000f380       ??_C@_17LMDJEKJN@?$AAF?$AAe?$AAb@ 0000000140074380     libucrtd:nlsdata.obj
 0002:0000f388       ??_C@_17CKNLEDEC@?$AAM?$AAa?$AAr@ 0000000140074388     libucrtd:nlsdata.obj
 0002:0000f390       ??_C@_17LFPOIHDD@?$AAA?$AAp?$AAr@ 0000000140074390     libucrtd:nlsdata.obj
 0002:0000f398       ??_C@_17PNNKMEED@?$AAM?$AAa?$AAy@ 0000000140074398     libucrtd:nlsdata.obj
 0002:0000f3a0       ??_C@_17KCJGOCPB@?$AAJ?$AAu?$AAn@ 00000001400743a0     libucrtd:nlsdata.obj
 0002:0000f3a8       ??_C@_17IJPCKHK@?$AAJ?$AAu?$AAl@ 00000001400743a8     libucrtd:nlsdata.obj
 0002:0000f3b0       ??_C@_17ICPELBCN@?$AAA?$AAu?$AAg@ 00000001400743b0     libucrtd:nlsdata.obj
 0002:0000f3b8       ??_C@_17HCHCOKMG@?$AAS?$AAe?$AAp@ 00000001400743b8     libucrtd:nlsdata.obj
 0002:0000f3c0       ??_C@_17FNLKOI@?$AAO?$AAc?$AAt@ 00000001400743c0     libucrtd:nlsdata.obj
 0002:0000f3c8       ??_C@_17BBDMLCIG@?$AAN?$AAo?$AAv@ 00000001400743c8     libucrtd:nlsdata.obj
 0002:0000f3d0       ??_C@_17EGKACKIF@?$AAD?$AAe?$AAc@ 00000001400743d0     libucrtd:nlsdata.obj
 0002:0000f3d8       ??_C@_1BA@EFMEIEBA@?$AAJ?$AAa?$AAn?$AAu?$AAa?$AAr?$AAy@ 00000001400743d8     libucrtd:nlsdata.obj
 0002:0000f3e8       ??_C@_1BC@JGDDFFAM@?$AAF?$AAe?$AAb?$AAr?$AAu?$AAa?$AAr?$AAy@ 00000001400743e8     libucrtd:nlsdata.obj
 0002:0000f400       ??_C@_1M@IKEENEDF@?$AAM?$AAa?$AAr?$AAc?$AAh@ 0000000140074400     libucrtd:nlsdata.obj
 0002:0000f410       ??_C@_1M@GJNLMHFD@?$AAA?$AAp?$AAr?$AAi?$AAl@ 0000000140074410     libucrtd:nlsdata.obj
 0002:0000f420       ??_C@_19EPFLPGAP@?$AAJ?$AAu?$AAn?$AAe@ 0000000140074420     libucrtd:nlsdata.obj
 0002:0000f430       ??_C@_19BIFMLPCD@?$AAJ?$AAu?$AAl?$AAy@ 0000000140074430     libucrtd:nlsdata.obj
 0002:0000f440       ??_C@_1O@PAHLKOAC@?$AAA?$AAu?$AAg?$AAu?$AAs?$AAt@ 0000000140074440     libucrtd:nlsdata.obj
 0002:0000f450       ??_C@_1BE@DKAAMBJL@?$AAS?$AAe?$AAp?$AAt?$AAe?$AAm?$AAb?$AAe?$AAr@ 0000000140074450     libucrtd:nlsdata.obj
 0002:0000f468       ??_C@_1BA@EPANDLNG@?$AAO?$AAc?$AAt?$AAo?$AAb?$AAe?$AAr@ 0000000140074468     libucrtd:nlsdata.obj
 0002:0000f478       ??_C@_1BC@BGLIFPF@?$AAN?$AAo?$AAv?$AAe?$AAm?$AAb?$AAe?$AAr@ 0000000140074478     libucrtd:nlsdata.obj
 0002:0000f490       ??_C@_1BC@FEMKIFH@?$AAD?$AAe?$AAc?$AAe?$AAm?$AAb?$AAe?$AAr@ 0000000140074490     libucrtd:nlsdata.obj
 0002:0000f4a4       ??_C@_15ODEHAHHF@?$AAA?$AAM@ 00000001400744a4     libucrtd:nlsdata.obj
 0002:0000f4ac       ??_C@_15CLMNNGEL@?$AAP?$AAM@ 00000001400744ac     libucrtd:nlsdata.obj
 0002:0000f4b8       ??_C@_1BC@IEBCMHCM@?$AAM?$AAM?$AA?1?$AAd?$AAd?$AA?1?$AAy?$AAy@ 00000001400744b8     libucrtd:nlsdata.obj
 0002:0000f4d0       ??_C@_1CI@KNAKOEBC@?$AAd?$AAd?$AAd?$AAd?$AA?0?$AA?5?$AAM?$AAM?$AAM?$AAM?$AA?5?$AAd?$AAd?$AA?0?$AA?5@ 00000001400744d0     libucrtd:nlsdata.obj
 0002:0000f4f8       ??_C@_1BC@GDGBMEMK@?$AAH?$AAH?$AA?3?$AAm?$AAm?$AA?3?$AAs?$AAs@ 00000001400744f8     libucrtd:nlsdata.obj
 0002:0000f510       ??_C@_1M@BMHNFIME@?$AAe?$AAn?$AA?9?$AAU?$AAS@ 0000000140074510     libucrtd:nlsdata.obj
 0002:0000f520       ??_C@_1GA@LFAOKOOP@?$AAm?$AAi?$AAn?$AAk?$AAe?$AAr?$AAn?$AAe?$AAl?$AA?2?$AAc?$AAr?$AAt?$AAs?$AA?2@ 0000000140074520     libucrtd:dbgrptt.obj
 0002:0000f580       ??_C@_1CA@KHJHLKA@?$AA_?$AAV?$AAC?$AAr?$AAt?$AAD?$AAb?$AAg?$AAR?$AAe?$AAp?$AAo?$AAr?$AAt?$AAA@ 0000000140074580     libucrtd:dbgrptt.obj
 0002:0000f5a0       ??_C@_1FA@JPHJBHEM@?$AA_?$AAi?$AAt?$AAo?$AAa?$AA_?$AAs?$AA?$CI?$AAn?$AAL?$AAi?$AAn?$AAe?$AA?0?$AA?5@ 00000001400745a0     libucrtd:dbgrptt.obj
 0002:0000f5f0       ??_C@_0CG@BNGLOCEO@Second?5Chance?5Assertion?5Failed?3@ 00000001400745f0     libucrtd:dbgrptt.obj
 0002:0000f618       ??_C@_0P@DFJNDPOP@?$DMfile?5unknown?$DO@ 0000000140074618     libucrtd:dbgrptt.obj
 0002:0000f628       ??_C@_07BHGABMGB@?0?5Line?5@ 0000000140074628     libucrtd:dbgrptt.obj
 0002:0000f630       ??_C@_01EEMJAFIK@?6@       0000000140074630     libucrtd:dbgrptt.obj
 0002:0000f640       ??_C@_1JI@GAALPGBM@?$AAs?$AAt?$AAr?$AAc?$AAp?$AAy?$AA_?$AAs?$AA?$CI?$AAs?$AAz?$AAU?$AAs?$AAe?$AAr@ 0000000140074640     libucrtd:dbgrptt.obj
 0002:0000f6d8       ??_C@_0CL@EACFGMNB@_CrtDbgReport?3?5String?5too?5long?5@ 00000001400746d8     libucrtd:dbgrptt.obj
 0002:0000f710       ??_C@_1KK@GIGAEDMO@?$AAs?$AAt?$AAr?$AAc?$AAp?$AAy?$AA_?$AAs?$AA?$CI?$AAs?$AAz?$AAL?$AAi?$AAn?$AAe@ 0000000140074710     libucrtd:dbgrptt.obj
 0002:0000f7c0       ??_C@_0BD@CAENFOHP@Assertion?5failed?3?5@ 00000001400747c0     libucrtd:dbgrptt.obj
 0002:0000f7d8       ??_C@_0BC@LAIDCHCH@Assertion?5failed?$CB@ 00000001400747d8     libucrtd:dbgrptt.obj
 0002:0000f7f0       ??_C@_1FK@NPGBPOFO@?$AAs?$AAt?$AAr?$AAc?$AAa?$AAt?$AA_?$AAs?$AA?$CI?$AAs?$AAz?$AAL?$AAi?$AAn?$AAe@ 00000001400747f0     libucrtd:dbgrptt.obj
 0002:0000f850       ??_C@_1EI@CACDLAFK@?$AAs?$AAt?$AAr?$AAc?$AAa?$AAt?$AA_?$AAs?$AA?$CI?$AAs?$AAz?$AAL?$AAi?$AAn?$AAe@ 0000000140074850     libucrtd:dbgrptt.obj
 0002:0000f898       ??_C@_01LIIJDEN@?$AN@      0000000140074898     libucrtd:dbgrptt.obj
 0002:0000f8a0       ??_C@_1EI@LDHJEDO@?$AAs?$AAt?$AAr?$AAc?$AAa?$AAt?$AA_?$AAs?$AA?$CI?$AAs?$AAz?$AAL?$AAi?$AAn?$AAe@ 00000001400748a0     libucrtd:dbgrptt.obj
 0002:0000f8e8       ??_C@_0M@IPILFDFN@?$CFs?$CI?$CFd?$CJ?5?3?5?$CFs@ 00000001400748e8     libucrtd:dbgrptt.obj
 0002:0000f900       ??_C@_1JG@CPKCIOEE@?$AAs?$AAt?$AAr?$AAc?$AAp?$AAy?$AA_?$AAs?$AA?$CI?$AAs?$AAz?$AAO?$AAu?$AAt?$AAM@ 0000000140074900     libucrtd:dbgrptt.obj
 0002:0000f9a0       ??_C@_1FI@IBIOIHEG@?$AAs?$AAt?$AAr?$AAc?$AAp?$AAy?$AA_?$AAs?$AA?$CI?$AAs?$AAz?$AAO?$AAu?$AAt?$AAM@ 00000001400749a0     libucrtd:dbgrptt.obj
 0002:0000fa00       ??_C@_1IM@OOKIFKOH@?$AAe?$AA?5?$AA?$DN?$AA?5?$AAm?$AAb?$AAs?$AAt?$AAo?$AAw?$AAc?$AAs?$AA_?$AAs?$AA?$CI@ 0000000140074a00     libucrtd:dbgrptt.obj
 0002:0000fa90       ??_C@_1MC@IGEECMDB@?$AAw?$AAc?$AAs?$AAc?$AAp?$AAy?$AA_?$AAs?$AA?$CI?$AAs?$AAz?$AAO?$AAu?$AAt?$AAM@ 0000000140074a90     libucrtd:dbgrptt.obj
 0002:0000fb60       ??_C@_1HO@PJOFIKFE@?$AA_?$AAC?$AAr?$AAt?$AAD?$AAb?$AAg?$AAR?$AAe?$AAp?$AAo?$AAr?$AAt?$AA?3?$AA?5@ 0000000140074b60     libucrtd:dbgrptt.obj
 0002:0000fbe0       ??_C@_1CA@HPALHDOD@?$AA_?$AAV?$AAC?$AAr?$AAt?$AAD?$AAb?$AAg?$AAR?$AAe?$AAp?$AAo?$AAr?$AAt?$AAW@ 0000000140074be0     libucrtd:dbgrptt.obj
 0002:0000fc00       ??_C@_1FA@CNLLOMHI@?$AA_?$AAi?$AAt?$AAo?$AAw?$AA_?$AAs?$AA?$CI?$AAn?$AAL?$AAi?$AAn?$AAe?$AA?0?$AA?5@ 0000000140074c00     libucrtd:dbgrptt.obj
 0002:0000fc50       ??_C@_1EM@MJFLEDMB@?$AAS?$AAe?$AAc?$AAo?$AAn?$AAd?$AA?5?$AAC?$AAh?$AAa?$AAn?$AAc?$AAe?$AA?5?$AAA@ 0000000140074c50     libucrtd:dbgrptt.obj
 0002:0000fca0       ??_C@_1BO@OCHMLCAG@?$AA?$DM?$AAf?$AAi?$AAl?$AAe?$AA?5?$AAu?$AAn?$AAk?$AAn?$AAo?$AAw?$AAn?$AA?$DO@ 0000000140074ca0     libucrtd:dbgrptt.obj
 0002:0000fcc0       ??_C@_1BA@ELMMDCFC@?$AA?0?$AA?5?$AAL?$AAi?$AAn?$AAe?$AA?5@ 0000000140074cc0     libucrtd:dbgrptt.obj
 0002:0000fcd0       ??_C@_1JK@KHFABAEO@?$AAw?$AAc?$AAs?$AAc?$AAp?$AAy?$AA_?$AAs?$AA?$CI?$AAs?$AAz?$AAU?$AAs?$AAe?$AAr@ 0000000140074cd0     libucrtd:dbgrptt.obj
 0002:0000fd70       ??_C@_1KO@DGAHENCH@?$AAw?$AAc?$AAs?$AAc?$AAp?$AAy?$AA_?$AAs?$AA?$CI?$AAs?$AAz?$AAL?$AAi?$AAn?$AAe@ 0000000140074d70     libucrtd:dbgrptt.obj
 0002:0000fe20       ??_C@_1CG@FFFGGODN@?$AAA?$AAs?$AAs?$AAe?$AAr?$AAt?$AAi?$AAo?$AAn?$AA?5?$AAf?$AAa?$AAi?$AAl?$AAe@ 0000000140074e20     libucrtd:dbgrptt.obj
 0002:0000fe48       ??_C@_1CE@OJBNHDMO@?$AAA?$AAs?$AAs?$AAe?$AAr?$AAt?$AAi?$AAo?$AAn?$AA?5?$AAf?$AAa?$AAi?$AAl?$AAe@ 0000000140074e48     libucrtd:dbgrptt.obj
 0002:0000fe70       ??_C@_1FK@HPADHBBD@?$AAw?$AAc?$AAs?$AAc?$AAa?$AAt?$AA_?$AAs?$AA?$CI?$AAs?$AAz?$AAL?$AAi?$AAn?$AAe@ 0000000140074e70     libucrtd:dbgrptt.obj
 0002:0000fed0       ??_C@_1EK@NMDFGHMF@?$AAw?$AAc?$AAs?$AAc?$AAa?$AAt?$AA_?$AAs?$AA?$CI?$AAs?$AAz?$AAL?$AAi?$AAn?$AAe@ 0000000140074ed0     libucrtd:dbgrptt.obj
 0002:0000ff1c       ??_C@_13CMNBPIDO@?$AA?$AN@ 0000000140074f1c     libucrtd:dbgrptt.obj
 0002:0000ff20       ??_C@_1EK@PHCBEDKB@?$AAw?$AAc?$AAs?$AAc?$AAa?$AAt?$AA_?$AAs?$AA?$CI?$AAs?$AAz?$AAL?$AAi?$AAn?$AAe@ 0000000140074f20     libucrtd:dbgrptt.obj
 0002:0000ff70       ??_C@_1BM@GIBPMLNL@?$AA?$CF?$AAl?$AAs?$AA?$CI?$AA?$CF?$AAd?$AA?$CJ?$AA?5?$AA?3?$AA?5?$AA?$CF?$AAl?$AAs@ 0000000140074f70     libucrtd:dbgrptt.obj
 0002:0000ff90       ??_C@_1JI@EACPGHID@?$AAw?$AAc?$AAs?$AAc?$AAp?$AAy?$AA_?$AAs?$AA?$CI?$AAs?$AAz?$AAO?$AAu?$AAt?$AAM@ 0000000140074f90     libucrtd:dbgrptt.obj
 0002:00010030       ??_C@_1FI@DBAIJPJE@?$AAw?$AAc?$AAs?$AAc?$AAp?$AAy?$AA_?$AAs?$AA?$CI?$AAs?$AAz?$AAO?$AAu?$AAt?$AAM@ 0000000140075030     libucrtd:dbgrptt.obj
 0002:00010090       ??_C@_1IK@LEBMBAP@?$AAw?$AAc?$AAs?$AAt?$AAo?$AAm?$AAb?$AAs?$AA_?$AAs?$AA?$CI?$AAn?$AAu?$AAl?$AAl@ 0000000140075090     libucrtd:dbgrptt.obj
 0002:00010120       ??_C@_1MA@LBAMNNOB@?$AAs?$AAt?$AAr?$AAc?$AAp?$AAy?$AA_?$AAs?$AA?$CI?$AAs?$AAz?$AAO?$AAu?$AAt?$AAM@ 0000000140075120     libucrtd:dbgrptt.obj
 0002:000101e0       ??_C@_0DP@GNPEPHJD@_CrtDbgReport?3?5String?5too?5long?5@ 00000001400751e0     libucrtd:dbgrptt.obj
 0002:00010220       ??_C@_1IE@CPGKIAGP@?$AAw?$AAc?$AAs?$AAt?$AAo?$AAm?$AAb?$AAs?$AA_?$AAs?$AA?$CI?$AA?$CG?$AAr?$AAe?$AAt@ 0000000140075220     libucrtd:dbgrptt.obj
 0002:000102a8       ??_C@_1DA@NBILLKNO@?$AAl?$AAo?$AAc?$AAa?$AAl?$AA_?$AAa?$AAc?$AAt?$AAi?$AAo?$AAn?$AA?5?$AA?$CB?$AA?$DN@ 00000001400752a8     libucrtd:signal.obj
 0002:000102e0       ??_C@_1FO@CCGDPEKE@?$AAm?$AAi?$AAn?$AAk?$AAe?$AAr?$AAn?$AAe?$AAl?$AA?2?$AAc?$AAr?$AAt?$AAs?$AA?2@ 00000001400752e0     libucrtd:signal.obj
 0002:00010340       ??_C@_1M@DMJEIKHL@?$AAr?$AAa?$AAi?$AAs?$AAe@ 0000000140075340     libucrtd:signal.obj
 0002:00010350       ??_C@_1DO@MLNEDKGB@?$AA?$CI?$AA?$CC?$AAI?$AAn?$AAv?$AAa?$AAl?$AAi?$AAd?$AA?5?$AAs?$AAi?$AAg?$AAn?$AAa@ 0000000140075350     libucrtd:signal.obj
 0002:00010390       ??_C@_1FO@IPDGALOE@?$AAm?$AAi?$AAn?$AAk?$AAe?$AAr?$AAn?$AAe?$AAl?$AA?2?$AAc?$AAr?$AAt?$AAs?$AA?2@ 0000000140075390     libucrtd:close.obj
 0002:000103f0       ??_C@_1O@EDEJGJBM@?$AA_?$AAc?$AAl?$AAo?$AAs?$AAe@ 00000001400753f0     libucrtd:close.obj
 0002:00010400       ??_C@_1GA@KCAHHNGP@?$AAm?$AAi?$AAn?$AAk?$AAe?$AAr?$AAn?$AAe?$AAl?$AA?2?$AAc?$AAr?$AAt?$AAs?$AA?2@ 0000000140075400     libucrtd:fileno.obj
 0002:00010460       ??_C@_1BA@JGHIEKKM@?$AA_?$AAf?$AAi?$AAl?$AAe?$AAn?$AAo@ 0000000140075460     libucrtd:fileno.obj
 0002:00010470       ??_C@_0DA@OGKFKCBE@minkernel?2crts?2ucrt?2src?2appcrt?2@ 0000000140075470     libucrtd:stream.obj
 0002:000104a0       ??_C@_1GE@GPOPIOIG@?$AAm?$AAi?$AAn?$AAk?$AAe?$AAr?$AAn?$AAe?$AAl?$AA?2?$AAc?$AAr?$AAt?$AAs?$AA?2@ 00000001400754a0     libucrtd:_freebuf.obj
 0002:00010510       ??_C@_1GE@HEEFEAFI@?$AAm?$AAi?$AAn?$AAk?$AAe?$AAr?$AAn?$AAe?$AAl?$AA?2?$AAc?$AAr?$AAt?$AAs?$AA?2@ 0000000140075510     libucrtd:openfile.obj
 0002:00010574       ?ccs@?1???$__acrt_stdio_parse_mode@D@@YA?AU__acrt_stdio_stream_mode@@QEBD@Z@4QBDB 0000000140075574     libucrtd:openfile.obj
 0002:00010578       ?utf8_encoding@?1???$__acrt_stdio_parse_mode@D@@YA?AU__acrt_stdio_stream_mode@@QEBD@Z@4QBDB 0000000140075578     libucrtd:openfile.obj
 0002:00010580       ?utf16_encoding@?1???$__acrt_stdio_parse_mode@D@@YA?AU__acrt_stdio_stream_mode@@QEBD@Z@4QBDB 0000000140075580     libucrtd:openfile.obj
 0002:00010588       ?unicode_encoding@?1???$__acrt_stdio_parse_mode@D@@YA?AU__acrt_stdio_stream_mode@@QEBD@Z@4QBDB 0000000140075588     libucrtd:openfile.obj
 0002:00010590       ??_C@_1DM@FOFGGBBM@?$AA?$CI?$AA?$CC?$AAI?$AAn?$AAv?$AAa?$AAl?$AAi?$AAd?$AA?5?$AAf?$AAi?$AAl?$AAe?$AA?5@ 0000000140075590     libucrtd:openfile.obj
 0002:000105d0       ??_C@_1DA@KPIHAHGC@?$AA_?$AA_?$AAa?$AAc?$AAr?$AAt?$AA_?$AAs?$AAt?$AAd?$AAi?$AAo?$AA_?$AAp?$AAa@ 00000001400755d0     libucrtd:openfile.obj
 0002:00010600       ??_C@_1BI@PDNFEGCG@?$AA?$CK?$AAi?$AAt?$AA?5?$AA?$DN?$AA?$DN?$AA?5?$AA?8?$AA?2?$AA0?$AA?8@ 0000000140075600     libucrtd:openfile.obj
 0002:00010620       ??_C@_1FK@MGHFJLAL@?$AAf?$AAh?$AA?5?$AA?$DO?$AA?$DN?$AA?5?$AA0?$AA?5?$AA?$CG?$AA?$CG?$AA?5?$AA?$CI?$AAu?$AAn?$AAs@ 0000000140075620     libucrtd:read.obj
 0002:00010680       ??_C@_1FM@PHKGHLIO@?$AAm?$AAi?$AAn?$AAk?$AAe?$AAr?$AAn?$AAe?$AAl?$AA?2?$AAc?$AAr?$AAt?$AAs?$AA?2@ 0000000140075680     libucrtd:read.obj
 0002:000106e0       ??_C@_1M@NHJOLLDM@?$AA_?$AAr?$AAe?$AAa?$AAd@ 00000001400756e0     libucrtd:read.obj
 0002:000106f0       ??_C@_1CI@ILOIOBLM@?$AA_?$AAo?$AAs?$AAf?$AAi?$AAl?$AAe?$AA?$CI?$AAf?$AAh?$AA?$CJ?$AA?5?$AA?$CG?$AA?5?$AAF@ 00000001400756f0     libucrtd:read.obj
 0002:00010718       ??_C@_1CO@OPEPDLLF@?$AAb?$AAu?$AAf?$AAf?$AAe?$AAr?$AA_?$AAs?$AAi?$AAz?$AAe?$AA?5?$AA?$DM?$AA?$DN?$AA?5@ 0000000140075718     libucrtd:read.obj
 0002:00010748       ??_C@_1BK@JJBHNDKJ@?$AA_?$AAr?$AAe?$AAa?$AAd?$AA_?$AAn?$AAo?$AAl?$AAo?$AAc?$AAk@ 0000000140075748     libucrtd:read.obj
 0002:00010768       ??_C@_1DM@JEAHBMKI@?$AAr?$AAe?$AAs?$AAu?$AAl?$AAt?$AA_?$AAb?$AAu?$AAf?$AAf?$AAe?$AAr?$AA_?$AAs@ 0000000140075768     libucrtd:read.obj
 0002:000107a8       ??_C@_1DC@MGKAFPFD@?$AAr?$AAe?$AAs?$AAu?$AAl?$AAt?$AA_?$AAb?$AAu?$AAf?$AAf?$AAe?$AAr?$AA?5?$AA?$CB@ 00000001400757a8     libucrtd:read.obj
 0002:000107e0       ??_C@_1DI@CDGOMPDO@?$AAr?$AAe?$AAs?$AAu?$AAl?$AAt?$AA_?$AAb?$AAu?$AAf?$AAf?$AAe?$AAr?$AA_?$AAs@ 00000001400757e0     libucrtd:read.obj
 0002:00010818       ??_C@_0CO@JFNFJHLC@minkernel?2crts?2ucrt?2src?2appcrt?2@ 0000000140075818     libucrtd:read.obj
 0002:00010848       ??_C@_1DM@HGBOAKPP@?$AA?$CI?$AAr?$AAe?$AAs?$AAu?$AAl?$AAt?$AA_?$AAb?$AAu?$AAf?$AAf?$AAe?$AAr?$AA_@ 0000000140075848     libucrtd:read.obj
 0002:00010890       ??_C@_1GC@MGNADOPH@?$AAm?$AAi?$AAn?$AAk?$AAe?$AAr?$AAn?$AAe?$AAl?$AA?2?$AAc?$AAr?$AAt?$AAs?$AA?2@ 0000000140075890     libucrtd:_filbuf.obj
 0002:000108f8       ??_C@_1DM@MPDNIFLF@?$AAc?$AAo?$AAm?$AAm?$AAo?$AAn?$AA_?$AAr?$AAe?$AAf?$AAi?$AAl?$AAl?$AA_?$AAa@ 00000001400758f8     libucrtd:_filbuf.obj
 0002:00010940       ??_C@_1FO@KIIHJNFN@?$AAm?$AAi?$AAn?$AAk?$AAe?$AAr?$AAn?$AAe?$AAl?$AA?2?$AAc?$AAr?$AAt?$AAs?$AA?2@ 0000000140075940     libucrtd:lseek.obj
 0002:000109a0       ??_C@_1BK@JOMBNFIM@?$AAc?$AAo?$AAm?$AAm?$AAo?$AAn?$AA_?$AAl?$AAs?$AAe?$AAe?$AAk@ 00000001400759a0     libucrtd:lseek.obj
 0002:000109c0       ??_C@_1DM@LMLOLGJ@?$AA?$CI?$AA?$CC?$AAI?$AAn?$AAv?$AAa?$AAl?$AAi?$AAd?$AA?5?$AAf?$AAi?$AAl?$AAe?$AA?5@ 00000001400759c0     libucrtd:lseek.obj
 0002:00010aa0       ??_C@_1EA@JGEFHKEI@?$AAa?$AAp?$AAi?$AA?9?$AAm?$AAs?$AA?9?$AAw?$AAi?$AAn?$AA?9?$AAc?$AAo?$AAr?$AAe@ 0000000140075aa0     libucrtd:winapi_thunks.obj
 0002:00010ae0       ??_C@_1DI@IJCEHOCB@?$AAa?$AAp?$AAi?$AA?9?$AAm?$AAs?$AA?9?$AAw?$AAi?$AAn?$AA?9?$AAc?$AAo?$AAr?$AAe@ 0000000140075ae0     libucrtd:winapi_thunks.obj
 0002:00010b20       ??_C@_1EI@MPIAOHOC@?$AAa?$AAp?$AAi?$AA?9?$AAm?$AAs?$AA?9?$AAw?$AAi?$AAn?$AA?9?$AAc?$AAo?$AAr?$AAe@ 0000000140075b20     libucrtd:winapi_thunks.obj
 0002:00010b70       ??_C@_1FK@FPHCKFIE@?$AAa?$AAp?$AAi?$AA?9?$AAm?$AAs?$AA?9?$AAw?$AAi?$AAn?$AA?9?$AAc?$AAo?$AAr?$AAe@ 0000000140075b70     libucrtd:winapi_thunks.obj
 0002:00010bd0       ??_C@_1EM@DILCGIIO@?$AAa?$AAp?$AAi?$AA?9?$AAm?$AAs?$AA?9?$AAw?$AAi?$AAn?$AA?9?$AAc?$AAo?$AAr?$AAe@ 0000000140075bd0     libucrtd:winapi_thunks.obj
 0002:00010c20       ??_C@_1DM@LNCGDDPN@?$AAa?$AAp?$AAi?$AA?9?$AAm?$AAs?$AA?9?$AAw?$AAi?$AAn?$AA?9?$AAc?$AAo?$AAr?$AAe@ 0000000140075c20     libucrtd:winapi_thunks.obj
 0002:00010c60       ??_C@_1DO@FPAPJEMD@?$AAa?$AAp?$AAi?$AA?9?$AAm?$AAs?$AA?9?$AAw?$AAi?$AAn?$AA?9?$AAc?$AAo?$AAr?$AAe@ 0000000140075c60     libucrtd:winapi_thunks.obj
 0002:00010ca0       ??_C@_1DK@NDHNAHIO@?$AAa?$AAp?$AAi?$AA?9?$AAm?$AAs?$AA?9?$AAw?$AAi?$AAn?$AA?9?$AAc?$AAo?$AAr?$AAe@ 0000000140075ca0     libucrtd:winapi_thunks.obj
 0002:00010ce0       ??_C@_1DM@KGHDGBCM@?$AAa?$AAp?$AAi?$AA?9?$AAm?$AAs?$AA?9?$AAw?$AAi?$AAn?$AA?9?$AAc?$AAo?$AAr?$AAe@ 0000000140075ce0     libucrtd:winapi_thunks.obj
 0002:00010d20       ??_C@_1EO@IJIOEFOH@?$AAa?$AAp?$AAi?$AA?9?$AAm?$AAs?$AA?9?$AAw?$AAi?$AAn?$AA?9?$AAr?$AAt?$AAc?$AAo@ 0000000140075d20     libucrtd:winapi_thunks.obj
 0002:00010d70       ??_C@_1FG@HHGEKANL@?$AAa?$AAp?$AAi?$AA?9?$AAm?$AAs?$AA?9?$AAw?$AAi?$AAn?$AA?9?$AAs?$AAe?$AAc?$AAu@ 0000000140075d70     libucrtd:winapi_thunks.obj
 0002:00010dd0       ??_C@_1EG@DBIOJECG@?$AAe?$AAx?$AAt?$AA?9?$AAm?$AAs?$AA?9?$AAw?$AAi?$AAn?$AA?9?$AAn?$AAt?$AAu?$AAs@ 0000000140075dd0     libucrtd:winapi_thunks.obj
 0002:00010e20       ??_C@_1EO@FIHMJCLF@?$AAe?$AAx?$AAt?$AA?9?$AAm?$AAs?$AA?9?$AAw?$AAi?$AAn?$AA?9?$AAn?$AAt?$AAu?$AAs@ 0000000140075e20     libucrtd:winapi_thunks.obj
 0002:00010e70       ??_C@_1BC@DNHGCMLG@?$AAa?$AAd?$AAv?$AAa?$AAp?$AAi?$AA3?$AA2@ 0000000140075e70     libucrtd:winapi_thunks.obj
 0002:00010e88       ??_C@_1M@OAIMIKLP@?$AAn?$AAt?$AAd?$AAl?$AAl@ 0000000140075e88     libucrtd:winapi_thunks.obj
 0002:00010ea0       ??_C@_1EG@DPGNFKGC@?$AAa?$AAp?$AAi?$AA?9?$AAm?$AAs?$AA?9?$AAw?$AAi?$AAn?$AA?9?$AAa?$AAp?$AAp?$AAm@ 0000000140075ea0     libucrtd:winapi_thunks.obj
 0002:00010ee8       ??_C@_1O@BCCLBEOE@?$AAu?$AAs?$AAe?$AAr?$AA3?$AA2@ 0000000140075ee8     libucrtd:winapi_thunks.obj
 0002:00010ef8       ??_C@_1BA@IAIFMGEF@?$AAe?$AAx?$AAt?$AA?9?$AAm?$AAs?$AA?9@ 0000000140075ef8     libucrtd:winapi_thunks.obj
 0002:00010f10       ??_C@_1HE@OILMBOBA@?$AAm?$AAi?$AAn?$AAk?$AAe?$AAr?$AAn?$AAe?$AAl?$AA?2?$AAc?$AAr?$AAt?$AAs?$AA?2@ 0000000140075f10     libucrtd:winapi_thunks.obj
 0002:00010f88       ??_C@_0BA@FHFNEAED@AreFileApisANSI@ 0000000140075f88     libucrtd:winapi_thunks.obj
 0002:00010fa0       ??_C@_0BA@IHGNDAEB@CompareStringEx@ 0000000140075fa0     libucrtd:winapi_thunks.obj
 0002:00010fb8       ??_C@_0BE@LJANKFHF@EnumSystemLocalesEx@ 0000000140075fb8     libucrtd:winapi_thunks.obj
 0002:00010ff8       ??_C@_0BA@HNOPNCHB@GetActiveWindow@ 0000000140075ff8     libucrtd:winapi_thunks.obj
 0002:00011010       ??_C@_0BA@EPCJIIPD@GetDateFormatEx@ 0000000140076010     libucrtd:winapi_thunks.obj
 0002:00011028       ??_C@_0BD@HHGDFDBJ@GetLastActivePopup@ 0000000140076028     libucrtd:winapi_thunks.obj
 0002:00011048       ??_C@_0BA@ONOKGCMP@GetLocaleInfoEx@ 0000000140076048     libucrtd:winapi_thunks.obj
 0002:00011060       ??_C@_0BI@DFKBFLJE@GetProcessWindowStation@ 0000000140076060     libucrtd:winapi_thunks.obj
 0002:00011080       ??_C@_0BA@CIJJKCJJ@GetTimeFormatEx@ 0000000140076080     libucrtd:winapi_thunks.obj
 0002:00011098       ??_C@_0BJ@PBCCBIPI@GetUserDefaultLocaleName@ 0000000140076098     libucrtd:winapi_thunks.obj
 0002:000110c0       ??_C@_0BK@DEKFELLI@GetUserObjectInformationW@ 00000001400760c0     libucrtd:winapi_thunks.obj
 0002:000110f0       ??_C@_0BC@CELBKLLA@IsValidLocaleName@ 00000001400760f0     libucrtd:winapi_thunks.obj
 0002:00011110       ??_C@_0O@KKBNKAPF@LCMapStringEx@ 0000000140076110     libucrtd:winapi_thunks.obj
 0002:00011128       ??_C@_0BB@CDHDDLLP@LCIDToLocaleName@ 0000000140076128     libucrtd:winapi_thunks.obj
 0002:00011148       ??_C@_0BB@HBDEELFH@LocaleNameToLCID@ 0000000140076148     libucrtd:winapi_thunks.obj
 0002:00011168       ??_C@_0M@CHKKJDAI@MessageBoxA@ 0000000140076168     libucrtd:winapi_thunks.obj
 0002:00011180       ??_C@_0M@DLDCCGNP@MessageBoxW@ 0000000140076180     libucrtd:winapi_thunks.obj
 0002:00011190       ??_C@_0CF@OJOFEIGO@AppPolicyGetProcessTerminationM@ 0000000140076190     libucrtd:winapi_thunks.obj
 0002:000111c0       ??_C@_0CE@OICFMIKE@AppPolicyGetShowDeveloperDiagno@ 00000001400761c0     libucrtd:winapi_thunks.obj
 0002:000111e8       ??_C@_0BL@ODDJNEDA@AppPolicyGetWindowingModel@ 00000001400761e8     libucrtd:winapi_thunks.obj
 0002:00011208       ??_C@_1BK@FPAMLIDG@?$AAs?$AA?5?$AA?$CB?$AA?$DN?$AA?5?$AAn?$AAu?$AAl?$AAl?$AAp?$AAt?$AAr@ 0000000140076208     libucrtd:mbstowcs.obj
 0002:00011230       ??_C@_1GI@KABMHNPH@?$AAm?$AAi?$AAn?$AAk?$AAe?$AAr?$AAn?$AAe?$AAl?$AA?2?$AAc?$AAr?$AAt?$AAs?$AA?2@ 0000000140076230     libucrtd:mbstowcs.obj
 0002:00011298       ??_C@_1CG@JEHFHLNG@?$AA_?$AAm?$AAb?$AAs?$AAt?$AAo?$AAw?$AAc?$AAs?$AA_?$AAl?$AA_?$AAh?$AAe?$AAl@ 0000000140076298     libucrtd:mbstowcs.obj
 0002:000112c0       ??_C@_1JM@MEKBACIG@?$AA?$CI?$AAp?$AAw?$AAc?$AAs?$AA?5?$AA?$DN?$AA?$DN?$AA?5?$AAn?$AAu?$AAl?$AAl?$AAp?$AAt@ 00000001400762c0     libucrtd:mbstowcs.obj
 0002:00011360       ??_C@_1BM@PHENIGHD@?$AA_?$AAm?$AAb?$AAs?$AAt?$AAo?$AAw?$AAc?$AAs?$AA_?$AAs?$AA_?$AAl@ 0000000140076360     libucrtd:mbstowcs.obj
 0002:00011380       ??_C@_1CM@LLECFMFH@?$AAb?$AAu?$AAf?$AAf?$AAe?$AAr?$AAS?$AAi?$AAz?$AAe?$AA?5?$AA?$DM?$AA?$DN?$AA?5?$AAI@ 0000000140076380     libucrtd:mbstowcs.obj
 0002:000113b0       ??_C@_1CO@JNPEPJAL@?$AAr?$AAe?$AAt?$AAs?$AAi?$AAz?$AAe?$AA?5?$AA?$DM?$AA?$DN?$AA?5?$AAs?$AAi?$AAz?$AAe@ 00000001400763b0     libucrtd:mbstowcs.obj
 0002:00011408       ??_C@_1CA@NOKNKDIG@?$AAp?$AAw?$AAc?$AAs?$AA?5?$AA?$CB?$AA?$DN?$AA?5?$AAn?$AAu?$AAl?$AAl?$AAp?$AAt?$AAr@ 0000000140076408     libucrtd:wcstombs.obj
 0002:00011430       ??_C@_1GI@EEJDEALP@?$AAm?$AAi?$AAn?$AAk?$AAe?$AAr?$AAn?$AAe?$AAl?$AA?2?$AAc?$AAr?$AAt?$AAs?$AA?2@ 0000000140076430     libucrtd:wcstombs.obj
 0002:00011498       ??_C@_1CG@LLJCAOHF@?$AA_?$AAw?$AAc?$AAs?$AAt?$AAo?$AAm?$AAb?$AAs?$AA_?$AAl?$AA_?$AAh?$AAe?$AAl@ 0000000140076498     libucrtd:wcstombs.obj
 0002:000114c0       ??_C@_1JI@DFNKFCLG@?$AA?$CI?$AAd?$AAs?$AAt?$AA?5?$AA?$CB?$AA?$DN?$AA?5?$AAn?$AAu?$AAl?$AAl?$AAp?$AAt?$AAr@ 00000001400764c0     libucrtd:wcstombs.obj
 0002:00011558       ??_C@_1BM@BDMCLLDL@?$AA_?$AAw?$AAc?$AAs?$AAt?$AAo?$AAm?$AAb?$AAs?$AA_?$AAs?$AA_?$AAl@ 0000000140076558     libucrtd:wcstombs.obj
 0002:00011578       ??_C@_1CM@KEOGBFLI@?$AAs?$AAi?$AAz?$AAe?$AAI?$AAn?$AAB?$AAy?$AAt?$AAe?$AAs?$AA?5?$AA?$DO?$AA?5?$AAr@ 0000000140076578     libucrtd:wcstombs.obj
 0002:000115a8       ??_C@_0DJ@JBBOOIAE@minkernel?2crts?2ucrt?2src?2appcrt?2@ 00000001400765a8     libucrtd:getlocaleinfoa.obj
 0002:000115f0       ??_C@_1HC@KAIIOBKJ@?$AAm?$AAi?$AAn?$AAk?$AAe?$AAr?$AAn?$AAe?$AAl?$AA?2?$AAc?$AAr?$AAt?$AAs?$AA?2@ 00000001400765f0     libucrtd:getlocaleinfoa.obj
 0002:00011668       ??_C@_1CM@LGLMFNOK@?$AA_?$AA_?$AAa?$AAc?$AAr?$AAt?$AA_?$AAG?$AAe?$AAt?$AAL?$AAo?$AAc?$AAa?$AAl@ 0000000140076668     libucrtd:getlocaleinfoa.obj
 0002:000116a0       ??_C@_1IM@HJPPDDKJ@?$AAs?$AAt?$AAr?$AAn?$AAc?$AAp?$AAy?$AA_?$AAs?$AA?$CI?$AA?$CK?$AAc?$AAh?$AAa?$AAr@ 00000001400766a0     libucrtd:getlocaleinfoa.obj
 0002:00011730       ??_C@_0DJ@HCPJODDK@minkernel?2crts?2ucrt?2src?2appcrt?2@ 0000000140076730     libucrtd:getstringtypea.obj
 0002:00011770       ??_C@_0DH@IKPCBLP@minkernel?2crts?2ucrt?2src?2appcrt?2@ 0000000140076770     libucrtd:lcmapstringa.obj
 0002:000117b0       ??_C@_1GA@MPOOLHCO@?$AAm?$AAi?$AAn?$AAk?$AAe?$AAr?$AAn?$AAe?$AAl?$AA?2?$AAc?$AAr?$AAt?$AAs?$AA?2@ 00000001400767b0     libucrtd:commit.obj
 0002:00011810       ??_C@_1BA@FLNMBBIM@?$AA_?$AAc?$AAo?$AAm?$AAm?$AAi?$AAt@ 0000000140076810     libucrtd:commit.obj
 0002:00011820       ??_C@_1FO@CAMPMGCN@?$AAm?$AAi?$AAn?$AAk?$AAe?$AAr?$AAn?$AAe?$AAl?$AA?2?$AAc?$AAr?$AAt?$AAs?$AA?2@ 0000000140076820     libucrtd:write.obj
 0002:00011880       ??_C@_1O@KOFKDHPL@?$AA_?$AAw?$AAr?$AAi?$AAt?$AAe@ 0000000140076880     libucrtd:write.obj
 0002:00011890       ??_C@_1CK@MMEFCHHN@?$AA?$CB?$AA_?$AAd?$AAb?$AAc?$AAs?$AAB?$AAu?$AAf?$AAf?$AAe?$AAr?$AAU?$AAs?$AAe@ 0000000140076890     libucrtd:write.obj
 0002:000118c0       ??_C@_1EG@LICJGLJJ@?$AA1?$AA?5?$AA?$DM?$AA?5?$AAm?$AAb?$AA_?$AAl?$AAe?$AAn?$AA?5?$AA?$CG?$AA?$CG?$AA?5?$AAm@ 00000001400768c0     libucrtd:write.obj
 0002:00011910       ??_C@_1FC@NFILPJB@?$AAm?$AAb?$AA_?$AAb?$AAu?$AAf?$AA_?$AAu?$AAs?$AAe?$AAd?$AA?5?$AA?$CL?$AA?5?$AAb@ 0000000140076910     libucrtd:write.obj
 0002:00011970       ??_C@_1FC@HEJOPHLA@?$AAa?$AAv?$AAa?$AAi?$AAl?$AAa?$AAb?$AAl?$AAe?$AA_?$AAb?$AAy?$AAt?$AAe?$AAs@ 0000000140076970     libucrtd:write.obj
 0002:000119c8       ??_C@_1DI@CNMHHHLG@?$AAi?$AAs?$AAl?$AAe?$AAa?$AAd?$AAb?$AAy?$AAt?$AAe?$AA?$CI?$AA_?$AAd?$AAb?$AAc@ 00000001400769c8     libucrtd:write.obj
 0002:00011a00       ??_C@_1BM@NCANHCIP@?$AA_?$AAw?$AAr?$AAi?$AAt?$AAe?$AA_?$AAn?$AAo?$AAl?$AAo?$AAc?$AAk@ 0000000140076a00     libucrtd:write.obj
 0002:00011a20       ??_C@_1CK@CPEAGIIP@?$AAb?$AAu?$AAf?$AAf?$AAe?$AAr?$AA_?$AAs?$AAi?$AAz?$AAe?$AA?5?$AA?$CF?$AA?5?$AA2@ 0000000140076a20     libucrtd:write.obj
 0002:00011a50       ??_C@_1GC@DFIGBGJI@?$AAm?$AAi?$AAn?$AAk?$AAe?$AAr?$AAn?$AAe?$AAl?$AA?2?$AAc?$AAr?$AAt?$AAs?$AA?2@ 0000000140076a50     libucrtd:_flsbuf.obj
 0002:00011ac0       ??_C@_1HO@MLMGPAFH@?$AA?$CI?$AA?$CC?$AAi?$AAn?$AAc?$AAo?$AAn?$AAs?$AAi?$AAs?$AAt?$AAe?$AAn?$AAt?$AA?5@ 0000000140076ac0     libucrtd:_flsbuf.obj
 0002:00011b40       ??_C@_1GC@GBMDABED@?$AAm?$AAi?$AAn?$AAk?$AAe?$AAr?$AAn?$AAe?$AAl?$AA?2?$AAc?$AAr?$AAt?$AAs?$AA?2@ 0000000140076b40     libucrtd:_sftbuf.obj
 0002:00011ba8       ??_C@_0DB@EPIHMFLB@minkernel?2crts?2ucrt?2src?2appcrt?2@ 0000000140076ba8     libucrtd:_sftbuf.obj
 0002:00011be0       ??_C@_1GC@DLDMJFMI@?$AAm?$AAi?$AAn?$AAk?$AAe?$AAr?$AAn?$AAe?$AAl?$AA?2?$AAc?$AAr?$AAt?$AAs?$AA?2@ 0000000140076be0     libucrtd:_getbuf.obj
 0002:00011c48       ??_C@_0DB@LKJPMJPL@minkernel?2crts?2ucrt?2src?2appcrt?2@ 0000000140076c48     libucrtd:_getbuf.obj
 0002:00011c80       __log_256_lead             0000000140076c80     libucrtd:log_256_lead_tail_table.obj
 0002:00012490       __log_256_tail             0000000140077490     libucrtd:log_256_lead_tail_table.obj
 0002:00012ca0       __two_to_jby64_head_table  0000000140077ca0     libucrtd:two_to_jby64_head_tail_table.obj
 0002:00012ea0       __two_to_jby64_tail_table  0000000140077ea0     libucrtd:two_to_jby64_head_tail_table.obj
 0002:000130a0       ??_C@_04MBFDLNIM@powf@     00000001400780a0     libucrtd:pow_special.obj
 0002:000130a8       ??_C@_03JGHBODFD@pow@      00000001400780a8     libucrtd:pow_special.obj
 0002:000130ac       ??_C@_05HGHHAHAP@log10@    00000001400780ac     libucrtd:fpexcept.obj
 0002:000130c0       __two_to_jby64_table       00000001400780c0     libucrtd:two_to_jby64_table.obj
 0002:000132c0       __log_F_inv_qword          00000001400782c0     libucrtd:log_f_inv_qword_table.obj
 0002:00013ad0       ??_C@_1BBC@DECGKMGJ@?$AA_?$AAl?$AAo?$AAc?$AA_?$AAu?$AAp?$AAd?$AAa?$AAt?$AAe?$AA?4?$AAG?$AAe?$AAt@ 0000000140078ad0     libucrtd:mbtowc.obj
 0002:00013bf0       ??_C@_1GE@CGIHMDEJ@?$AAm?$AAi?$AAn?$AAk?$AAe?$AAr?$AAn?$AAe?$AAl?$AA?2?$AAc?$AAr?$AAt?$AAs?$AA?2@ 0000000140078bf0     libucrtd:mbtowc.obj
 0002:00013c60       ??_C@_1HA@KNBGJAIN@?$AAU?$AAT?$AAF?$AA?9?$AA8?$AA?5?$AAi?$AAs?$AAn?$AA?8?$AAt?$AA?5?$AAs?$AAu?$AAp@ 0000000140078c60     libucrtd:mbtowc.obj
 0002:00013cd0       ??_C@_1BBA@EIIJPPL@?$AA_?$AAl?$AAo?$AAc?$AA_?$AAu?$AAp?$AAd?$AAa?$AAt?$AAe?$AA?4?$AAG?$AAe?$AAt@ 0000000140078cd0     libucrtd:mbtowc.obj
 0002:00013de0       ??_C@_1IE@CDCHDACI@?$AA_?$AAl?$AAo?$AAc?$AA_?$AAu?$AAp?$AAd?$AAa?$AAt?$AAe?$AA?4?$AAG?$AAe?$AAt@ 0000000140078de0     libucrtd:mbtowc.obj
 0002:00013e68       ??_C@_1DK@NBNOAGKB@?$AAd?$AAe?$AAs?$AAt?$AAi?$AAn?$AAa?$AAt?$AAi?$AAo?$AAn?$AA_?$AAc?$AAo?$AAu@ 0000000140078e68     libucrtd:wctomb.obj
 0002:00013eb0       ??_C@_1GE@FCCEPHFG@?$AAm?$AAi?$AAn?$AAk?$AAe?$AAr?$AAn?$AAe?$AAl?$AA?2?$AAc?$AAr?$AAt?$AAs?$AA?2@ 0000000140078eb0     libucrtd:wctomb.obj
 0002:00013f18       ??_C@_1BI@IEADNOHF@?$AA_?$AAw?$AAc?$AAt?$AAo?$AAm?$AAb?$AA_?$AAs?$AA_?$AAl@ 0000000140078f18     libucrtd:wctomb.obj
 0002:00013f30       ??_C@_1CM@ENFEGCNE@?$AAd?$AAe?$AAs?$AAt?$AAi?$AAn?$AAa?$AAt?$AAi?$AAo?$AAn?$AA_?$AAc?$AAo?$AAu@ 0000000140078f30     libucrtd:wctomb.obj
 0002:00014010       ??_C@_03OEIAHPBN@INF@      0000000140079010     libucrtd:cvt.obj
 0002:00014014       ??_C@_03OJHLLCGB@inf@      0000000140079014     libucrtd:cvt.obj
 0002:00014018       ??_C@_03LKNCIKJB@NAN@      0000000140079018     libucrtd:cvt.obj
 0002:0001401c       ??_C@_03LHCJEHON@nan@      000000014007901c     libucrtd:cvt.obj
 0002:00014020       ??_C@_09OFJJIMPC@NAN?$CISNAN?$CJ@ 0000000140079020     libucrtd:cvt.obj
 0002:00014030       ??_C@_09IPFBKMDL@nan?$CIsnan?$CJ@ 0000000140079030     libucrtd:cvt.obj
 0002:00014040       ??_C@_08IKHNHAJ@NAN?$CIIND?$CJ@ 0000000140079040     libucrtd:cvt.obj
 0002:00014050       ??_C@_08OFCDMILK@nan?$CIind?$CJ@ 0000000140079050     libucrtd:cvt.obj
 0002:00014060       ??_C@_1FO@GKAKAPLI@?$AAm?$AAi?$AAn?$AAk?$AAe?$AAr?$AAn?$AAe?$AAl?$AA?2?$AAc?$AAr?$AAt?$AAs?$AA?2@ 0000000140079060     libucrtd:cvt.obj
 0002:000140c0       ??_C@_1DE@EHGIGIDK@?$AAf?$AAp?$AA_?$AAf?$AAo?$AAr?$AAm?$AAa?$AAt?$AA_?$AAn?$AAa?$AAn?$AA_?$AAo@ 00000001400790c0     libucrtd:cvt.obj
 0002:00014100       ??_C@_1LI@PCMLJPCO@?$AAs?$AAt?$AAr?$AAc?$AAp?$AAy?$AA_?$AAs?$AA?$CI?$AA?5?$AAr?$AAe?$AAs?$AAu?$AAl@ 0000000140079100     libucrtd:cvt.obj
 0002:000141c0       ??_C@_1KO@LJHOFBCD@?$AAr?$AAe?$AAs?$AAu?$AAl?$AAt?$AA_?$AAb?$AAu?$AAf?$AAf?$AAe?$AAr?$AA_?$AAc@ 00000001400791c0     libucrtd:cvt.obj
 0002:00014270       ??_C@_1CK@BOLHOMFO@?$AAf?$AAp?$AA_?$AAf?$AAo?$AAr?$AAm?$AAa?$AAt?$AA_?$AAe?$AA_?$AAi?$AAn?$AAt@ 0000000140079270     libucrtd:cvt.obj
 0002:000142a0       ??_C@_1BBE@LHDOMEDC@?$AAs?$AAt?$AAr?$AAc?$AAp?$AAy?$AA_?$AAs?$AA?$CI?$AA?5?$AAp?$AA?0?$AA?5?$AAr?$AAe@ 00000001400792a0     libucrtd:cvt.obj
 0002:000143b4       ??_C@_05KLBDPFGC@e?$CL000@ 00000001400793b4     libucrtd:cvt.obj
 0002:000143c0       ??_C@_1IC@FILKPBAB@?$AAr?$AAe?$AAs?$AAu?$AAl?$AAt?$AA_?$AAb?$AAu?$AAf?$AAf?$AAe?$AAr?$AA_?$AAc@ 00000001400793c0     libucrtd:cvt.obj
 0002:00014448       ??_C@_1BI@PNBDLNBB@?$AAf?$AAp?$AA_?$AAf?$AAo?$AAr?$AAm?$AAa?$AAt?$AA_?$AAa@ 0000000140079448     libucrtd:cvt.obj
 0002:00014460       ??_C@_1CC@LDAHJAKK@?$AA_?$AA_?$AAa?$AAc?$AAr?$AAt?$AA_?$AAf?$AAp?$AA_?$AAf?$AAo?$AAr?$AAm?$AAa@ 0000000140079460     libucrtd:cvt.obj
 0002:00014488       ??_C@_1DA@NMLJJOCO@?$AAr?$AAe?$AAs?$AAu?$AAl?$AAt?$AA_?$AAb?$AAu?$AAf?$AAf?$AAe?$AAr?$AA_?$AAc@ 0000000140079488     libucrtd:cvt.obj
 0002:000144b8       ??_C@_1DE@MNOPBCOK@?$AAs?$AAc?$AAr?$AAa?$AAt?$AAc?$AAh?$AA_?$AAb?$AAu?$AAf?$AAf?$AAe?$AAr?$AA?5@ 00000001400794b8     libucrtd:cvt.obj
 0002:000144f0       ??_C@_1DC@CKBKNFKH@?$AAs?$AAc?$AAr?$AAa?$AAt?$AAc?$AAh?$AA_?$AAb?$AAu?$AAf?$AAf?$AAe?$AAr?$AA_@ 00000001400794f0     libucrtd:cvt.obj
 0002:00014530       ??_C@_1EI@JAHBOGIM@?$AA?$CI?$AA?$CC?$AAU?$AAn?$AAs?$AAu?$AAp?$AAp?$AAo?$AAr?$AAt?$AAe?$AAd?$AA?5?$AAf@ 0000000140079530     libucrtd:cvt.obj
 0002:00014578       ??_C@_1BO@JGGHCINF@?$AAl?$AAh?$AAs?$AA?5?$AA?$CB?$AA?$DN?$AA?5?$AAn?$AAu?$AAl?$AAl?$AAp?$AAt?$AAr@ 0000000140079578     libucrtd:wcsicmp.obj
 0002:000145a0       ??_C@_1GE@FNNJGCGI@?$AAm?$AAi?$AAn?$AAk?$AAe?$AAr?$AAn?$AAe?$AAl?$AA?2?$AAc?$AAr?$AAt?$AAs?$AA?2@ 00000001400795a0     libucrtd:wcsicmp.obj
 0002:00014608       ??_C@_1BG@EELGPCPD@?$AA_?$AAw?$AAc?$AAs?$AAi?$AAc?$AAm?$AAp?$AA_?$AAl@ 0000000140079608     libucrtd:wcsicmp.obj
 0002:00014620       ??_C@_1BO@FHLPEAOG@?$AAr?$AAh?$AAs?$AA?5?$AA?$CB?$AA?$DN?$AA?5?$AAn?$AAu?$AAl?$AAl?$AAp?$AAt?$AAr@ 0000000140079620     libucrtd:wcsicmp.obj
 0002:00014640       ??_C@_1BC@NHIBDOMC@?$AA_?$AAw?$AAc?$AAs?$AAi?$AAc?$AAm?$AAp@ 0000000140079640     libucrtd:wcsicmp.obj
 0002:00014658       ??_C@_1DE@BCNCAIK@?$AA?$CI?$AA?$CC?$AAI?$AAn?$AAv?$AAa?$AAl?$AAi?$AAd?$AA?5?$AAe?$AAr?$AAr?$AAo?$AAr@ 0000000140079658     libucrtd:set_error_mode.obj
 0002:00014690       ??_C@_1GO@EBFPMMIJ@?$AAm?$AAi?$AAn?$AAk?$AAe?$AAr?$AAn?$AAe?$AAl?$AA?2?$AAc?$AAr?$AAt?$AAs?$AA?2@ 0000000140079690     libucrtd:set_error_mode.obj
 0002:00014700       ??_C@_1CA@LFDHAMEM@?$AA_?$AAs?$AAe?$AAt?$AA_?$AAe?$AAr?$AAr?$AAo?$AAr?$AA_?$AAm?$AAo?$AAd?$AAe@ 0000000140079700     libucrtd:set_error_mode.obj
 0002:00014720       ??_C@_1CA@EOJJMFA@?$AAc?$AAo?$AAm?$AAm?$AAo?$AAn?$AA_?$AAt?$AAc?$AAs?$AAc?$AAa?$AAt?$AA_?$AAs@ 0000000140079720     libucrtd:wcscat_s.obj
 0002:00014740       ??_C@_1DM@FHLMIEG@?$AAS?$AAt?$AAr?$AAi?$AAn?$AAg?$AA?5?$AAi?$AAs?$AA?5?$AAn?$AAo?$AAt?$AA?5?$AAn@ 0000000140079740     libucrtd:wcscat_s.obj
 0002:00014780       ??_C@_1FA@MJKDNFFB@?$AA?$CI?$AAL?$AA?$CC?$AAS?$AAt?$AAr?$AAi?$AAn?$AAg?$AA?5?$AAi?$AAs?$AA?5?$AAn?$AAo@ 0000000140079780     libucrtd:wcscat_s.obj
 0002:000147d0       ??_C@_1CC@CHNFGJIC@?$AAc?$AAo?$AAm?$AAm?$AAo?$AAn?$AA_?$AAt?$AAc?$AAs?$AAn?$AAc?$AAp?$AAy?$AA_@ 00000001400797d0     libucrtd:wcsncpy_s.obj
 0002:00014800       ??_C@_1HE@CEMHPOHH@?$AAm?$AAi?$AAn?$AAk?$AAe?$AAr?$AAn?$AAe?$AAl?$AA?2?$AAc?$AAr?$AAt?$AAs?$AA?2@ 0000000140079800     libucrtd:argv_wildcards.obj
 0002:00014878       ??_C@_1DK@IBFFOJGB@?$AAc?$AAo?$AAm?$AAm?$AAo?$AAn?$AA_?$AAe?$AAx?$AAp?$AAa?$AAn?$AAd?$AA_?$AAa@ 0000000140079878     libucrtd:argv_wildcards.obj
 0002:000148c0       ??_C@_1MC@FLPKOFON@?$AAt?$AAr?$AAa?$AAi?$AAt?$AAs?$AA?3?$AA?3?$AAt?$AAc?$AAs?$AAn?$AAc?$AAp?$AAy@ 00000001400798c0     libucrtd:argv_wildcards.obj
 0002:00014988       ??_C@_0DK@FPFMIIJB@minkernel?2crts?2ucrt?2src?2appcrt?2@ 0000000140079988     libucrtd:argv_wildcards.obj
 0002:000149d0       ??_C@_1EA@KOCCBLAD@?$AAc?$AAo?$AAp?$AAy?$AA_?$AAa?$AAn?$AAd?$AA_?$AAa?$AAd?$AAd?$AA_?$AAa?$AAr@ 00000001400799d0     libucrtd:argv_wildcards.obj
 0002:00014a10       ??_C@_1KM@GDJIGAGL@?$AAt?$AAr?$AAa?$AAi?$AAt?$AAs?$AA?3?$AA?3?$AAt?$AAc?$AAs?$AAn?$AAc?$AAp?$AAy@ 0000000140079a10     libucrtd:argv_wildcards.obj
 0002:00014ac0       ??_C@_1PI@FGFLAGCC@?$AAt?$AAr?$AAa?$AAi?$AAt?$AAs?$AA?3?$AA?3?$AAt?$AAc?$AAs?$AAn?$AAc?$AAp?$AAy@ 0000000140079ac0     libucrtd:argv_wildcards.obj
 0002:00014bd8       ??_C@_1M@HPNHIDJI@?$AAj?$AAa?$AA?9?$AAJ?$AAP@ 0000000140079bd8     libucrtd:mbctype.obj
 0002:00014be8       ??_C@_1M@BIBDDEMK@?$AAz?$AAh?$AA?9?$AAC?$AAN@ 0000000140079be8     libucrtd:mbctype.obj
 0002:00014bf8       ??_C@_1M@JLOOOEGK@?$AAk?$AAo?$AA?9?$AAK?$AAR@ 0000000140079bf8     libucrtd:mbctype.obj
 0002:00014c08       ??_C@_1M@CLNBBOPM@?$AAz?$AAh?$AA?9?$AAT?$AAW@ 0000000140079c08     libucrtd:mbctype.obj
 0002:00014c18       ??_C@_0DE@HGDKNBFD@minkernel?2crts?2ucrt?2src?2appcrt?2@ 0000000140079c18     libucrtd:mbctype.obj
 0002:00014c50       ??_C@_0ED@BLPEHJAI@minkernel?2crts?2ucrt?2src?2desktop@ 0000000140079c50     libucrtd:get_environment_from_os.obj
 0002:00014c98       ??_C@_1DO@PANKIJNP@?$AAe?$AAq?$AAu?$AAa?$AAl?$AA_?$AAs?$AAi?$AAg?$AAn?$AA?5?$AA?9?$AA?5?$AAo?$AAp@ 0000000140079c98     libucrtd:setenv.obj
 0002:00014ce0       ??_C@_1GE@MMOHBENP@?$AAm?$AAi?$AAn?$AAk?$AAe?$AAr?$AAn?$AAe?$AAl?$AA?2?$AAc?$AAr?$AAt?$AAs?$AA?2@ 0000000140079ce0     libucrtd:setenv.obj
 0002:00014d50       ??_C@_1GK@KBABANDM@?$AAt?$AAr?$AAa?$AAi?$AAt?$AAs?$AA?3?$AA?3?$AAt?$AAc?$AAs?$AAn?$AAl?$AAe?$AAn@ 0000000140079d50     libucrtd:setenv.obj
 0002:00014dc0       ??_C@_0DC@NJKMKCIL@minkernel?2crts?2ucrt?2src?2desktop@ 0000000140079dc0     libucrtd:setenv.obj
 0002:00014e00       ??_C@_1EC@IKJPFBIM@?$AA?$CI?$AA?$CC?$AAC?$AAR?$AAT?$AA?5?$AAl?$AAo?$AAg?$AAi?$AAc?$AA?5?$AAe?$AAr?$AAr@ 0000000140079e00     libucrtd:setenv.obj
 0002:00014e50       ??_C@_1FE@KHMDCEEJ@?$AAc?$AAo?$AAm?$AAm?$AAo?$AAn?$AA_?$AAs?$AAe?$AAt?$AA_?$AAv?$AAa?$AAr?$AAi@ 0000000140079e50     libucrtd:setenv.obj
 0002:00014eb0       ??_C@_1EM@NIOJJLEA@?$AAt?$AAr?$AAa?$AAi?$AAt?$AAs?$AA?3?$AA?3?$AAt?$AAc?$AAs?$AAc?$AAp?$AAy?$AA_@ 0000000140079eb0     libucrtd:setenv.obj
 0002:00014f00       ??_C@_1CC@PIMGMDJH@?$AAc?$AAo?$AAp?$AAy?$AA_?$AAe?$AAn?$AAv?$AAi?$AAr?$AAo?$AAn?$AAm?$AAe?$AAn@ 0000000140079f00     libucrtd:setenv.obj
 0002:00014f30       ??_C@_1GG@EDHOMIDL@?$AAt?$AAr?$AAa?$AAi?$AAt?$AAs?$AA?3?$AA?3?$AAt?$AAc?$AAs?$AAc?$AAp?$AAy?$AA_@ 0000000140079f30     libucrtd:setenv.obj
 0002:00014fa0       ??_C@_1FO@NMANMHOD@?$AAc?$AAa?$AAc?$AAh?$AAe?$AAd?$AA_?$AAs?$AAt?$AAa?$AAt?$AAe?$AA?5?$AA?$DN?$AA?$DN@ 0000000140079fa0     libucrtd:win_policies.obj
 0002:00015000       ??_C@_1HC@GHLNKBJK@?$AAm?$AAi?$AAn?$AAk?$AAe?$AAr?$AAn?$AAe?$AAl?$AA?2?$AAc?$AAr?$AAt?$AAs?$AA?2@ 000000014007a000     libucrtd:win_policies.obj
 0002:00015078       ??_C@_0DB@JFFPGLDM@minkernel?2crts?2ucrt?2src?2appcrt?2@ 000000014007a078     libucrtd:osfinfo.obj
 0002:000150b0       ??_C@_1EM@BPODPNEJ@?$AAs?$AAt?$AAa?$AAt?$AAi?$AAc?$AA_?$AAc?$AAa?$AAs?$AAt?$AA?$DM?$AAu?$AAn?$AAs@ 000000014007a0b0     libucrtd:osfinfo.obj
 0002:00015100       ??_C@_1GC@LDGKBAFM@?$AAm?$AAi?$AAn?$AAk?$AAe?$AAr?$AAn?$AAe?$AAl?$AA?2?$AAc?$AAr?$AAt?$AAs?$AA?2@ 000000014007a100     libucrtd:osfinfo.obj
 0002:00015168       ??_C@_1DM@JELNOMLN@?$AA_?$AA_?$AAa?$AAc?$AAr?$AAt?$AA_?$AAl?$AAo?$AAw?$AAi?$AAo?$AA_?$AAe?$AAn@ 000000014007a168     libucrtd:osfinfo.obj
 0002:000151a8       ??_C@_1BO@EMBOBGKE@?$AA_?$AAg?$AAe?$AAt?$AA_?$AAo?$AAs?$AAf?$AAh?$AAa?$AAn?$AAd?$AAl?$AAe@ 000000014007a1a8     libucrtd:osfinfo.obj
 0002:000151c8       ??_C@_0DC@GMDOHFAP@minkernel?2crts?2ucrt?2src?2appcrt?2@ 000000014007a1c8     libucrtd:initmon.obj
 0002:00015200       ??_C@_1DM@GKAPAMDO@?$AAp?$AAl?$AAo?$AAc?$AAi?$AA?9?$AA?$DO?$AAl?$AAc?$AAo?$AAn?$AAv?$AA_?$AAm?$AAo@ 000000014007a200     libucrtd:initmon.obj
 0002:00015240       ??_C@_1GE@IEFGCKMH@?$AAm?$AAi?$AAn?$AAk?$AAe?$AAr?$AAn?$AAe?$AAl?$AA?2?$AAc?$AAr?$AAt?$AAs?$AA?2@ 000000014007a240     libucrtd:initmon.obj
 0002:000152a8       ??_C@_0DC@KHILMDMC@minkernel?2crts?2ucrt?2src?2appcrt?2@ 000000014007a2a8     libucrtd:initnum.obj
 0002:000152e0       ??_C@_1DM@IFKAINNE@?$AAp?$AAl?$AAo?$AAc?$AAi?$AA?9?$AA?$DO?$AAl?$AAc?$AAo?$AAn?$AAv?$AA_?$AAn?$AAu@ 000000014007a2e0     libucrtd:initnum.obj
 0002:00015320       ??_C@_1GE@GOIFKKDC@?$AAm?$AAi?$AAn?$AAk?$AAe?$AAr?$AAn?$AAe?$AAl?$AA?2?$AAc?$AAr?$AAt?$AAs?$AA?2@ 000000014007a320     libucrtd:initnum.obj
 0002:00015388       ??_C@_0DD@MPFICDAE@minkernel?2crts?2ucrt?2src?2appcrt?2@ 000000014007a388     libucrtd:inittime.obj
 0002:000153c0       ??_C@_1HK@HACABKKK@?$AA?$CI?$AA?$CC?$AAl?$AAc?$AA_?$AAt?$AAi?$AAm?$AAe?$AA_?$AAc?$AAu?$AAr?$AAr?$AA?5@ 000000014007a3c0     libucrtd:inittime.obj
 0002:00015440       ??_C@_1GG@BFOOANHJ@?$AAm?$AAi?$AAn?$AAk?$AAe?$AAr?$AAn?$AAe?$AAl?$AA?2?$AAc?$AAr?$AAt?$AAs?$AA?2@ 000000014007a440     libucrtd:inittime.obj
 0002:000154a8       ??_C@_1CC@HELMJGIF@?$AAc?$AAo?$AAm?$AAm?$AAo?$AAn?$AA_?$AAt?$AAc?$AAs?$AAn?$AAc?$AAa?$AAt?$AA_@ 000000014007a4a8     libucrtd:wcsncat_s.obj
 0002:000154d0       ??_C@_1BKC@NBNHJIDM@?$AA?$CI?$AAp?$AAt?$AAl?$AAo?$AAc?$AAi?$AA?9?$AA?$DO?$AAl?$AAc?$AA_?$AAc?$AAa?$AAt@ 000000014007a4d0     libucrtd:locale_refcounting.obj
 0002:00015680       ??_C@_1HK@HCNMEOLA@?$AAm?$AAi?$AAn?$AAk?$AAe?$AAr?$AAn?$AAe?$AAl?$AA?2?$AAc?$AAr?$AAt?$AAs?$AA?2@ 000000014007a680     libucrtd:locale_refcounting.obj
 0002:00015700       __acrt_rg_language         000000014007a700     libucrtd:get_qualified_locale.obj
 0002:00015b10       __acrt_rg_language_count   000000014007ab10     libucrtd:get_qualified_locale.obj
 0002:00015b20       __acrt_rg_country          000000014007ab20     libucrtd:get_qualified_locale.obj
 0002:00015c90       __acrt_rg_country_count    000000014007ac90     libucrtd:get_qualified_locale.obj
 0002:00015c98       ??_C@_1BC@LLOKLNP@?$AAa?$AAm?$AAe?$AAr?$AAi?$AAc?$AAa?$AAn@ 000000014007ac98     libucrtd:get_qualified_locale.obj
 0002:00015cb0       ??_C@_1CC@HEIGCDGG@?$AAa?$AAm?$AAe?$AAr?$AAi?$AAc?$AAa?$AAn?$AA?5?$AAe?$AAn?$AAg?$AAl?$AAi?$AAs@ 000000014007acb0     libucrtd:get_qualified_locale.obj
 0002:00015cd8       ??_C@_1CC@IHCNOMIN@?$AAa?$AAm?$AAe?$AAr?$AAi?$AAc?$AAa?$AAn?$AA?9?$AAe?$AAn?$AAg?$AAl?$AAi?$AAs@ 000000014007acd8     libucrtd:get_qualified_locale.obj
 0002:00015d00       ??_C@_1BG@GKAGPCGG@?$AAa?$AAu?$AAs?$AAt?$AAr?$AAa?$AAl?$AAi?$AAa?$AAn@ 000000014007ad00     libucrtd:get_qualified_locale.obj
 0002:00015d18       ??_C@_1BA@GMENCENF@?$AAb?$AAe?$AAl?$AAg?$AAi?$AAa?$AAn@ 000000014007ad18     libucrtd:get_qualified_locale.obj
 0002:00015d28       ??_C@_1BC@PJMIIAAN@?$AAc?$AAa?$AAn?$AAa?$AAd?$AAi?$AAa?$AAn@ 000000014007ad28     libucrtd:get_qualified_locale.obj
 0002:00015d40       ??_C@_17NOIMNFBF@?$AAc?$AAh?$AAh@ 000000014007ad40     libucrtd:get_qualified_locale.obj
 0002:00015d48       ??_C@_17GGDALCHA@?$AAc?$AAh?$AAi@ 000000014007ad48     libucrtd:get_qualified_locale.obj
 0002:00015d50       ??_C@_1BA@NPNJKIBL@?$AAc?$AAh?$AAi?$AAn?$AAe?$AAs?$AAe@ 000000014007ad50     libucrtd:get_qualified_locale.obj
 0002:00015d60       ??_C@_1CC@DINBAMMJ@?$AAc?$AAh?$AAi?$AAn?$AAe?$AAs?$AAe?$AA?9?$AAh?$AAo?$AAn?$AAg?$AAk?$AAo?$AAn@ 000000014007ad60     libucrtd:get_qualified_locale.obj
 0002:00015d88       ??_C@_1CG@IOBJPACO@?$AAc?$AAh?$AAi?$AAn?$AAe?$AAs?$AAe?$AA?9?$AAs?$AAi?$AAm?$AAp?$AAl?$AAi?$AAf@ 000000014007ad88     libucrtd:get_qualified_locale.obj
 0002:00015db0       ??_C@_1CE@GAJNDCKG@?$AAc?$AAh?$AAi?$AAn?$AAe?$AAs?$AAe?$AA?9?$AAs?$AAi?$AAn?$AAg?$AAa?$AAp?$AAo@ 000000014007adb0     libucrtd:get_qualified_locale.obj
 0002:00015dd8       ??_C@_1CI@PAJPIOOD@?$AAc?$AAh?$AAi?$AAn?$AAe?$AAs?$AAe?$AA?9?$AAt?$AAr?$AAa?$AAd?$AAi?$AAt?$AAi@ 000000014007add8     libucrtd:get_qualified_locale.obj
 0002:00015e00       ??_C@_1BM@NILJBMMD@?$AAd?$AAu?$AAt?$AAc?$AAh?$AA?9?$AAb?$AAe?$AAl?$AAg?$AAi?$AAa?$AAn@ 000000014007ae00     libucrtd:get_qualified_locale.obj
 0002:00015e20       ??_C@_1CC@OOJPJNEJ@?$AAe?$AAn?$AAg?$AAl?$AAi?$AAs?$AAh?$AA?9?$AAa?$AAm?$AAe?$AAr?$AAi?$AAc?$AAa@ 000000014007ae20     libucrtd:get_qualified_locale.obj
 0002:00015e48       ??_C@_1BI@IOLFEEM@?$AAe?$AAn?$AAg?$AAl?$AAi?$AAs?$AAh?$AA?9?$AAa?$AAu?$AAs@ 000000014007ae48     libucrtd:get_qualified_locale.obj
 0002:00015e60       ??_C@_1BO@HFFNLENJ@?$AAe?$AAn?$AAg?$AAl?$AAi?$AAs?$AAh?$AA?9?$AAb?$AAe?$AAl?$AAi?$AAz?$AAe@ 000000014007ae60     libucrtd:get_qualified_locale.obj
 0002:00015e80       ??_C@_1BI@HAPKJMPO@?$AAe?$AAn?$AAg?$AAl?$AAi?$AAs?$AAh?$AA?9?$AAc?$AAa?$AAn@ 000000014007ae80     libucrtd:get_qualified_locale.obj
 0002:00015e98       ??_C@_1CE@HLNDMIOJ@?$AAe?$AAn?$AAg?$AAl?$AAi?$AAs?$AAh?$AA?9?$AAc?$AAa?$AAr?$AAi?$AAb?$AAb?$AAe@ 000000014007ae98     libucrtd:get_qualified_locale.obj
 0002:00015ec0       ??_C@_1BI@LDHJHHAC@?$AAe?$AAn?$AAg?$AAl?$AAi?$AAs?$AAh?$AA?9?$AAi?$AAr?$AAe@ 000000014007aec0     libucrtd:get_qualified_locale.obj
 0002:00015ed8       ??_C@_1CA@NJMMCFOC@?$AAe?$AAn?$AAg?$AAl?$AAi?$AAs?$AAh?$AA?9?$AAj?$AAa?$AAm?$AAa?$AAi?$AAc?$AAa@ 000000014007aed8     libucrtd:get_qualified_locale.obj
 0002:00015ef8       ??_C@_1BG@BHJEBBGG@?$AAe?$AAn?$AAg?$AAl?$AAi?$AAs?$AAh?$AA?9?$AAn?$AAz@ 000000014007aef8     libucrtd:get_qualified_locale.obj
 0002:00015f10       ??_C@_1CK@FGOEJJCO@?$AAe?$AAn?$AAg?$AAl?$AAi?$AAs?$AAh?$AA?9?$AAs?$AAo?$AAu?$AAt?$AAh?$AA?5?$AAa@ 000000014007af10     libucrtd:get_qualified_locale.obj
 0002:00015f40       ??_C@_1DE@PDBJPCJ@?$AAe?$AAn?$AAg?$AAl?$AAi?$AAs?$AAh?$AA?9?$AAt?$AAr?$AAi?$AAn?$AAi?$AAd?$AAa@ 000000014007af40     libucrtd:get_qualified_locale.obj
 0002:00015f78       ??_C@_1BG@JGCANDME@?$AAe?$AAn?$AAg?$AAl?$AAi?$AAs?$AAh?$AA?9?$AAu?$AAk@ 000000014007af78     libucrtd:get_qualified_locale.obj
 0002:00015f90       ??_C@_1BG@DINKMLE@?$AAe?$AAn?$AAg?$AAl?$AAi?$AAs?$AAh?$AA?9?$AAu?$AAs@ 000000014007af90     libucrtd:get_qualified_locale.obj
 0002:00015fa8       ??_C@_1BI@NMFDBHJE@?$AAe?$AAn?$AAg?$AAl?$AAi?$AAs?$AAh?$AA?9?$AAu?$AAs?$AAa@ 000000014007afa8     libucrtd:get_qualified_locale.obj
 0002:00015fc0       ??_C@_1BO@OIHKJKII@?$AAf?$AAr?$AAe?$AAn?$AAc?$AAh?$AA?9?$AAb?$AAe?$AAl?$AAg?$AAi?$AAa?$AAn@ 000000014007afc0     libucrtd:get_qualified_locale.obj
 0002:00015fe0       ??_C@_1CA@NKAELJKI@?$AAf?$AAr?$AAe?$AAn?$AAc?$AAh?$AA?9?$AAc?$AAa?$AAn?$AAa?$AAd?$AAi?$AAa?$AAn@ 000000014007afe0     libucrtd:get_qualified_locale.obj
 0002:00016000       ??_C@_1CE@MGKCNLGN@?$AAf?$AAr?$AAe?$AAn?$AAc?$AAh?$AA?9?$AAl?$AAu?$AAx?$AAe?$AAm?$AAb?$AAo?$AAu@ 000000014007b000     libucrtd:get_qualified_locale.obj
 0002:00016028       ??_C@_1BK@CEGEAILM@?$AAf?$AAr?$AAe?$AAn?$AAc?$AAh?$AA?9?$AAs?$AAw?$AAi?$AAs?$AAs@ 000000014007b028     libucrtd:get_qualified_locale.obj
 0002:00016048       ??_C@_1CA@PAFKEOCC@?$AAg?$AAe?$AAr?$AAm?$AAa?$AAn?$AA?9?$AAa?$AAu?$AAs?$AAt?$AAr?$AAi?$AAa?$AAn@ 000000014007b048     libucrtd:get_qualified_locale.obj
 0002:00016068       ??_C@_1CI@HCFHGOFD@?$AAg?$AAe?$AAr?$AAm?$AAa?$AAn?$AA?9?$AAl?$AAi?$AAc?$AAh?$AAt?$AAe?$AAn?$AAs@ 000000014007b068     libucrtd:get_qualified_locale.obj
 0002:00016090       ??_C@_1CE@FEDDNPDG@?$AAg?$AAe?$AAr?$AAm?$AAa?$AAn?$AA?9?$AAl?$AAu?$AAx?$AAe?$AAm?$AAb?$AAo?$AAu@ 000000014007b090     libucrtd:get_qualified_locale.obj
 0002:000160b8       ??_C@_1BK@LIMINNMN@?$AAg?$AAe?$AAr?$AAm?$AAa?$AAn?$AA?9?$AAs?$AAw?$AAi?$AAs?$AAs@ 000000014007b0b8     libucrtd:get_qualified_locale.obj
 0002:000160d8       ??_C@_1BM@LGMDBEPD@?$AAi?$AAr?$AAi?$AAs?$AAh?$AA?9?$AAe?$AAn?$AAg?$AAl?$AAi?$AAs?$AAh@ 000000014007b0d8     libucrtd:get_qualified_locale.obj
 0002:000160f8       ??_C@_1BM@NNCFBAEE@?$AAi?$AAt?$AAa?$AAl?$AAi?$AAa?$AAn?$AA?9?$AAs?$AAw?$AAi?$AAs?$AAs@ 000000014007b0f8     libucrtd:get_qualified_locale.obj
 0002:00016118       ??_C@_1BE@FEDJNPIB@?$AAn?$AAo?$AAr?$AAw?$AAe?$AAg?$AAi?$AAa?$AAn@ 000000014007b118     libucrtd:get_qualified_locale.obj
 0002:00016130       ??_C@_1CC@CILKDEIE@?$AAn?$AAo?$AAr?$AAw?$AAe?$AAg?$AAi?$AAa?$AAn?$AA?9?$AAb?$AAo?$AAk?$AAm?$AAa@ 000000014007b130     libucrtd:get_qualified_locale.obj
 0002:00016158       ??_C@_1CE@DHMMHEPL@?$AAn?$AAo?$AAr?$AAw?$AAe?$AAg?$AAi?$AAa?$AAn?$AA?9?$AAn?$AAy?$AAn?$AAo?$AAr@ 000000014007b158     libucrtd:get_qualified_locale.obj
 0002:00016180       ??_C@_1CK@OPNMHECD@?$AAp?$AAo?$AAr?$AAt?$AAu?$AAg?$AAu?$AAe?$AAs?$AAe?$AA?9?$AAb?$AAr?$AAa?$AAz@ 000000014007b180     libucrtd:get_qualified_locale.obj
 0002:000161b0       ??_C@_1CE@KEEHCDB@?$AAs?$AAp?$AAa?$AAn?$AAi?$AAs?$AAh?$AA?9?$AAa?$AAr?$AAg?$AAe?$AAn?$AAt?$AAi@ 000000014007b1b0     libucrtd:get_qualified_locale.obj
 0002:000161d8       ??_C@_1CA@GIAOLHJD@?$AAs?$AAp?$AAa?$AAn?$AAi?$AAs?$AAh?$AA?9?$AAb?$AAo?$AAl?$AAi?$AAv?$AAi?$AAa@ 000000014007b1d8     libucrtd:get_qualified_locale.obj
 0002:000161f8       ??_C@_1BM@OJNDFNPD@?$AAs?$AAp?$AAa?$AAn?$AAi?$AAs?$AAh?$AA?9?$AAc?$AAh?$AAi?$AAl?$AAe@ 000000014007b1f8     libucrtd:get_qualified_locale.obj
 0002:00016218       ??_C@_1CC@OCOLPALL@?$AAs?$AAp?$AAa?$AAn?$AAi?$AAs?$AAh?$AA?9?$AAc?$AAo?$AAl?$AAo?$AAm?$AAb?$AAi@ 000000014007b218     libucrtd:get_qualified_locale.obj
 0002:00016240       ??_C@_1CG@BPOFMKBB@?$AAs?$AAp?$AAa?$AAn?$AAi?$AAs?$AAh?$AA?9?$AAc?$AAo?$AAs?$AAt?$AAa?$AA?5?$AAr@ 000000014007b240     libucrtd:get_qualified_locale.obj
 0002:00016268       ??_C@_1DG@IGOBAPBB@?$AAs?$AAp?$AAa?$AAn?$AAi?$AAs?$AAh?$AA?9?$AAd?$AAo?$AAm?$AAi?$AAn?$AAi?$AAc@ 000000014007b268     libucrtd:get_qualified_locale.obj
 0002:000162a0       ??_C@_1CA@JHAPGEGI@?$AAs?$AAp?$AAa?$AAn?$AAi?$AAs?$AAh?$AA?9?$AAe?$AAc?$AAu?$AAa?$AAd?$AAo?$AAr@ 000000014007b2a0     libucrtd:get_qualified_locale.obj
 0002:000162c0       ??_C@_1CI@LAPALJPP@?$AAs?$AAp?$AAa?$AAn?$AAi?$AAs?$AAh?$AA?9?$AAe?$AAl?$AA?5?$AAs?$AAa?$AAl?$AAv@ 000000014007b2c0     libucrtd:get_qualified_locale.obj
 0002:000162e8       ??_C@_1CE@PDGBOFOM@?$AAs?$AAp?$AAa?$AAn?$AAi?$AAs?$AAh?$AA?9?$AAg?$AAu?$AAa?$AAt?$AAe?$AAm?$AAa@ 000000014007b2e8     libucrtd:get_qualified_locale.obj
 0002:00016310       ??_C@_1CC@NBEBAODI@?$AAs?$AAp?$AAa?$AAn?$AAi?$AAs?$AAh?$AA?9?$AAh?$AAo?$AAn?$AAd?$AAu?$AAr?$AAa@ 000000014007b310     libucrtd:get_qualified_locale.obj
 0002:00016338       ??_C@_1CA@LLKGHBMF@?$AAs?$AAp?$AAa?$AAn?$AAi?$AAs?$AAh?$AA?9?$AAm?$AAe?$AAx?$AAi?$AAc?$AAa?$AAn@ 000000014007b338     libucrtd:get_qualified_locale.obj
 0002:00016358       ??_C@_1BO@LKNDOIGD@?$AAs?$AAp?$AAa?$AAn?$AAi?$AAs?$AAh?$AA?9?$AAm?$AAo?$AAd?$AAe?$AAr?$AAn@ 000000014007b358     libucrtd:get_qualified_locale.obj
 0002:00016378       ??_C@_1CE@NMDMOEEB@?$AAs?$AAp?$AAa?$AAn?$AAi?$AAs?$AAh?$AA?9?$AAn?$AAi?$AAc?$AAa?$AAr?$AAa?$AAg@ 000000014007b378     libucrtd:get_qualified_locale.obj
 0002:000163a0       ??_C@_1BO@LLCBEJGB@?$AAs?$AAp?$AAa?$AAn?$AAi?$AAs?$AAh?$AA?9?$AAp?$AAa?$AAn?$AAa?$AAm?$AAa@ 000000014007b3a0     libucrtd:get_qualified_locale.obj
 0002:000163c0       ??_C@_1CC@FKPGGIHO@?$AAs?$AAp?$AAa?$AAn?$AAi?$AAs?$AAh?$AA?9?$AAp?$AAa?$AAr?$AAa?$AAg?$AAu?$AAa@ 000000014007b3c0     libucrtd:get_qualified_locale.obj
 0002:000163e8       ??_C@_1BK@CDEIHOOP@?$AAs?$AAp?$AAa?$AAn?$AAi?$AAs?$AAh?$AA?9?$AAp?$AAe?$AAr?$AAu@ 000000014007b3e8     libucrtd:get_qualified_locale.obj
 0002:00016408       ??_C@_1CI@GAHAKKGP@?$AAs?$AAp?$AAa?$AAn?$AAi?$AAs?$AAh?$AA?9?$AAp?$AAu?$AAe?$AAr?$AAt?$AAo?$AA?5@ 000000014007b408     libucrtd:get_qualified_locale.obj
 0002:00016430       ??_C@_1CA@NKJBCAGP@?$AAs?$AAp?$AAa?$AAn?$AAi?$AAs?$AAh?$AA?9?$AAu?$AAr?$AAu?$AAg?$AAu?$AAa?$AAy@ 000000014007b430     libucrtd:get_qualified_locale.obj
 0002:00016450       ??_C@_1CE@ODILCONM@?$AAs?$AAp?$AAa?$AAn?$AAi?$AAs?$AAh?$AA?9?$AAv?$AAe?$AAn?$AAe?$AAz?$AAu?$AAe@ 000000014007b450     libucrtd:get_qualified_locale.obj
 0002:00016478       ??_C@_1CA@OBNMCGFO@?$AAs?$AAw?$AAe?$AAd?$AAi?$AAs?$AAh?$AA?9?$AAf?$AAi?$AAn?$AAl?$AAa?$AAn?$AAd@ 000000014007b478     libucrtd:get_qualified_locale.obj
 0002:00016498       ??_C@_1M@PIPDDPPI@?$AAs?$AAw?$AAi?$AAs?$AAs@ 000000014007b498     libucrtd:get_qualified_locale.obj
 0002:000164a4       ??_C@_15PJPFLCCM@?$AAu?$AAk@ 000000014007b4a4     libucrtd:get_qualified_locale.obj
 0002:000164ac       ??_C@_15GMFIMNFM@?$AAu?$AAs@ 000000014007b4ac     libucrtd:get_qualified_locale.obj
 0002:000164b8       ??_C@_17HAEBFAGL@?$AAu?$AAs?$AAa@ 000000014007b4b8     libucrtd:get_qualified_locale.obj
 0002:000164c0       ??_C@_1BA@DPFJEPHB@?$AAa?$AAm?$AAe?$AAr?$AAi?$AAc?$AAa@ 000000014007b4c0     libucrtd:get_qualified_locale.obj
 0002:000164d0       ??_C@_1BA@ELOGGFK@?$AAb?$AAr?$AAi?$AAt?$AAa?$AAi?$AAn@ 000000014007b4d0     libucrtd:get_qualified_locale.obj
 0002:000164e0       ??_C@_1M@GHBGIGDA@?$AAc?$AAh?$AAi?$AAn?$AAa@ 000000014007b4e0     libucrtd:get_qualified_locale.obj
 0002:000164f0       ??_C@_1M@NCHEJOPO@?$AAc?$AAz?$AAe?$AAc?$AAh@ 000000014007b4f0     libucrtd:get_qualified_locale.obj
 0002:00016500       ??_C@_1BA@BKPAPBLA@?$AAe?$AAn?$AAg?$AAl?$AAa?$AAn?$AAd@ 000000014007b500     libucrtd:get_qualified_locale.obj
 0002:00016510       ??_C@_1BM@HKBCKIPC@?$AAg?$AAr?$AAe?$AAa?$AAt?$AA?5?$AAb?$AAr?$AAi?$AAt?$AAa?$AAi?$AAn@ 000000014007b510     libucrtd:get_qualified_locale.obj
 0002:00016530       ??_C@_1BA@PPCHPGJB@?$AAh?$AAo?$AAl?$AAl?$AAa?$AAn?$AAd@ 000000014007b530     libucrtd:get_qualified_locale.obj
 0002:00016540       ??_C@_1BE@JBMPEGDG@?$AAh?$AAo?$AAn?$AAg?$AA?9?$AAk?$AAo?$AAn?$AAg@ 000000014007b540     libucrtd:get_qualified_locale.obj
 0002:00016558       ??_C@_1BI@KOELBBPJ@?$AAn?$AAe?$AAw?$AA?9?$AAz?$AAe?$AAa?$AAl?$AAa?$AAn?$AAd@ 000000014007b558     libucrtd:get_qualified_locale.obj
 0002:00016570       ??_C@_15HIEBHAIO@?$AAn?$AAz@ 000000014007b570     libucrtd:get_qualified_locale.obj
 0002:00016578       ??_C@_1BC@CHBCPFPI@?$AAp?$AAr?$AA?5?$AAc?$AAh?$AAi?$AAn?$AAa@ 000000014007b578     libucrtd:get_qualified_locale.obj
 0002:00016590       ??_C@_1BC@JAOIIFKD@?$AAp?$AAr?$AA?9?$AAc?$AAh?$AAi?$AAn?$AAa@ 000000014007b590     libucrtd:get_qualified_locale.obj
 0002:000165a8       ??_C@_1BI@BEHPPHKC@?$AAp?$AAu?$AAe?$AAr?$AAt?$AAo?$AA?9?$AAr?$AAi?$AAc?$AAo@ 000000014007b5a8     libucrtd:get_qualified_locale.obj
 0002:000165c0       ??_C@_1O@PAEOFKDI@?$AAs?$AAl?$AAo?$AAv?$AAa?$AAk@ 000000014007b5c0     libucrtd:get_qualified_locale.obj
 0002:000165d0       ??_C@_1BK@FIHMCKAM@?$AAs?$AAo?$AAu?$AAt?$AAh?$AA?5?$AAa?$AAf?$AAr?$AAi?$AAc?$AAa@ 000000014007b5d0     libucrtd:get_qualified_locale.obj
 0002:000165f0       ??_C@_1BI@NAEOODKB@?$AAs?$AAo?$AAu?$AAt?$AAh?$AA?5?$AAk?$AAo?$AAr?$AAe?$AAa@ 000000014007b5f0     libucrtd:get_qualified_locale.obj
 0002:00016608       ??_C@_1BK@FBDGGIFF@?$AAs?$AAo?$AAu?$AAt?$AAh?$AA?9?$AAa?$AAf?$AAr?$AAi?$AAc?$AAa@ 000000014007b608     libucrtd:get_qualified_locale.obj
 0002:00016628       ??_C@_1BI@GHLEJDPK@?$AAs?$AAo?$AAu?$AAt?$AAh?$AA?9?$AAk?$AAo?$AAr?$AAe?$AAa@ 000000014007b628     libucrtd:get_qualified_locale.obj
 0002:00016640       ??_C@_1CE@PLHLOMJF@?$AAt?$AAr?$AAi?$AAn?$AAi?$AAd?$AAa?$AAd?$AA?5?$AA?$CG?$AA?5?$AAt?$AAo?$AAb?$AAa@ 000000014007b640     libucrtd:get_qualified_locale.obj
 0002:00016668       ??_C@_1BO@MODIMHHI@?$AAu?$AAn?$AAi?$AAt?$AAe?$AAd?$AA?9?$AAk?$AAi?$AAn?$AAg?$AAd?$AAo?$AAm@ 000000014007b668     libucrtd:get_qualified_locale.obj
 0002:00016688       ??_C@_1BM@FFHJONBJ@?$AAu?$AAn?$AAi?$AAt?$AAe?$AAd?$AA?9?$AAs?$AAt?$AAa?$AAt?$AAe?$AAs@ 000000014007b688     libucrtd:get_qualified_locale.obj
 0002:000166b0       ??_C@_1HO@CKHMGCFN@?$AAm?$AAi?$AAn?$AAk?$AAe?$AAr?$AAn?$AAe?$AAl?$AA?2?$AAc?$AAr?$AAt?$AAs?$AA?2@ 000000014007b6b0     libucrtd:get_qualified_locale.obj
 0002:00016730       ??_C@_1DI@HCPCNHHP@?$AA_?$AA_?$AAa?$AAc?$AAr?$AAt?$AA_?$AAg?$AAe?$AAt?$AA_?$AAq?$AAu?$AAa?$AAl@ 000000014007b730     libucrtd:get_qualified_locale.obj
 0002:00016770       ??_C@_1BFC@DEALMEIM@?$AAw?$AAc?$AAs?$AAn?$AAc?$AAp?$AAy?$AA_?$AAs?$AA?$CI?$AAl?$AAp?$AAO?$AAu?$AAt@ 000000014007b770     libucrtd:get_qualified_locale.obj
 0002:000168d0       ??_C@_1MG@JCGKALNH@?$AAw?$AAc?$AAs?$AAn?$AAc?$AAp?$AAy?$AA_?$AAs?$AA?$CI?$AAl?$AAp?$AAO?$AAu?$AAt@ 000000014007b8d0     libucrtd:get_qualified_locale.obj
 0002:00016998       ??_C@_19MPDNHKDG@?$AAu?$AAt?$AAf?$AA8@ 000000014007b998     libucrtd:get_qualified_locale.obj
 0002:000169a8       ??_C@_1CM@OGEMFJNJ@?$AAL?$AAa?$AAn?$AAg?$AAC?$AAo?$AAu?$AAn?$AAt?$AAr?$AAy?$AAE?$AAn?$AAu?$AAm@ 000000014007b9a8     libucrtd:get_qualified_locale.obj
 0002:000169e0       ??_C@_1BDC@CGCEDIGP@?$AAw?$AAc?$AAs?$AAn?$AAc?$AAp?$AAy?$AA_?$AAs?$AA?$CI?$AA_?$AAp?$AAs?$AAe?$AAt@ 000000014007b9e0     libucrtd:get_qualified_locale.obj
 0002:00016b18       ??_C@_1CG@PGLLICHO@?$AAL?$AAa?$AAn?$AAg?$AAu?$AAa?$AAg?$AAe?$AAE?$AAn?$AAu?$AAm?$AAP?$AAr?$AAo@ 000000014007bb18     libucrtd:get_qualified_locale.obj
 0002:00016b40       ??_C@_1DC@CPKFANGP@?$AAG?$AAe?$AAt?$AAL?$AAo?$AAc?$AAa?$AAl?$AAe?$AAN?$AAa?$AAm?$AAe?$AAF?$AAr@ 000000014007bb40     libucrtd:get_qualified_locale.obj
 0002:00016b80       ??_C@_1BCC@GMJIFDHO@?$AAw?$AAc?$AAs?$AAn?$AAc?$AAp?$AAy?$AA_?$AAs?$AA?$CI?$AA_?$AAp?$AAs?$AAe?$AAt@ 000000014007bb80     libucrtd:get_qualified_locale.obj
 0002:00016ca8       ??_C@_17DNCLJFIF@?$AAA?$AAC?$AAP@ 000000014007bca8     libucrtd:get_qualified_locale.obj
 0002:00016cb0       ??_C@_1M@FPEIIFAM@?$AAu?$AAt?$AAf?$AA?9?$AA8@ 000000014007bcb0     libucrtd:get_qualified_locale.obj
 0002:00016cc0       ??_C@_17CIKBIHLH@?$AAO?$AAC?$AAP@ 000000014007bcc0     libucrtd:get_qualified_locale.obj
 0002:00016cc8       __rglangidNotDefault       000000014007bcc8     libucrtd:getqloc_downlevel.obj
 0002:00016ce0       ??_C@_1GA@HBEFGMHK@?$AAm?$AAi?$AAn?$AAk?$AAe?$AAr?$AAn?$AAe?$AAl?$AA?2?$AAc?$AAr?$AAt?$AAs?$AA?2@ 000000014007bce0     libucrtd:xtoa.obj
 0002:00016d40       ??_C@_1BM@HMPEMLNP@?$AAc?$AAo?$AAm?$AAm?$AAo?$AAn?$AA_?$AAx?$AAt?$AAo?$AAx?$AA_?$AAs@ 000000014007bd40     libucrtd:xtoa.obj
 0002:00016d60       ??_C@_1CC@ONIJBMJF@?$AAb?$AAu?$AAf?$AAf?$AAe?$AAr?$AA_?$AAc?$AAo?$AAu?$AAn?$AAt?$AA?5?$AA?$DO?$AA?5@ 000000014007bd60     libucrtd:xtoa.obj
 0002:00016d90       ??_C@_1HA@JFIOFNKD@?$AAb?$AAu?$AAf?$AAf?$AAe?$AAr?$AA_?$AAc?$AAo?$AAu?$AAn?$AAt?$AA?5?$AA?$DO?$AA?5@ 000000014007bd90     libucrtd:xtoa.obj
 0002:00016e00       ??_C@_1DE@PCJGDBBD@?$AA2?$AA?5?$AA?$DM?$AA?$DN?$AA?5?$AAr?$AAa?$AAd?$AAi?$AAx?$AA?5?$AA?$CG?$AA?$CG?$AA?5?$AAr@ 000000014007be00     libucrtd:xtoa.obj
 0002:00016e38       ??_C@_1CM@LONILNIJ@?$AAl?$AAe?$AAn?$AAg?$AAt?$AAh?$AA?5?$AA?$DM?$AA?5?$AAb?$AAu?$AAf?$AAf?$AAe?$AAr@ 000000014007be38     libucrtd:xtoa.obj
 0002:00016e68       ??_C@_1BI@OLPLFKOE@?$AAc?$AAo?$AAm?$AAm?$AAo?$AAn?$AA_?$AAx?$AAt?$AAo?$AAx@ 000000014007be68     libucrtd:xtoa.obj
 0002:00016e80       ??_C@_1GG@CLJGPGNE@?$AAm?$AAi?$AAn?$AAk?$AAe?$AAr?$AAn?$AAe?$AAl?$AA?2?$AAc?$AAr?$AAt?$AAs?$AA?2@ 000000014007be80     libucrtd:wcsnicmp.obj
 0002:00016ee8       ??_C@_1BI@KLMFNDBC@?$AA_?$AAw?$AAc?$AAs?$AAn?$AAi?$AAc?$AAm?$AAp?$AA_?$AAl@ 000000014007bee8     libucrtd:wcsnicmp.obj
 0002:00016f00       ??_C@_1BE@JKOKKFEL@?$AA_?$AAw?$AAc?$AAs?$AAn?$AAi?$AAc?$AAm?$AAp@ 000000014007bf00     libucrtd:wcsnicmp.obj
 0002:00016f20       ??_C@_1GG@FIFJEMIA@?$AAm?$AAi?$AAn?$AAk?$AAe?$AAr?$AAn?$AAe?$AAl?$AA?2?$AAc?$AAr?$AAt?$AAs?$AA?2@ 000000014007bf20     libucrtd:strnicmp.obj
 0002:00016f88       ??_C@_1BI@BJLEPLEF@?$AA_?$AAs?$AAt?$AAr?$AAn?$AAi?$AAc?$AAm?$AAp?$AA_?$AAl@ 000000014007bf88     libucrtd:strnicmp.obj
 0002:00016fa0       ??_C@_1CC@JLPHKJPH@?$AAc?$AAo?$AAu?$AAn?$AAt?$AA?5?$AA?$DM?$AA?$DN?$AA?5?$AAI?$AAN?$AAT?$AA_?$AAM?$AAA@ 000000014007bfa0     libucrtd:strnicmp.obj
 0002:00016fc8       ??_C@_1BE@BHJDFFNA@?$AA_?$AAs?$AAt?$AAr?$AAn?$AAi?$AAc?$AAm?$AAp@ 000000014007bfc8     libucrtd:strnicmp.obj
 0002:00016fe0       ??_C@_1DC@MDAAFACM@?$AA?$CI?$AA?$CC?$AAI?$AAn?$AAv?$AAa?$AAl?$AAi?$AAd?$AA?5?$AAo?$AAp?$AAe?$AAn?$AA?5@ 000000014007bfe0     libucrtd:open.obj
 0002:00017020       ??_C@_1FM@EFELGMIP@?$AAm?$AAi?$AAn?$AAk?$AAe?$AAr?$AAn?$AAe?$AAl?$AA?2?$AAc?$AAr?$AAt?$AAs?$AA?2@ 000000014007c020     libucrtd:open.obj
 0002:00017080       ??_C@_1CI@CBNKIJOA@?$AAd?$AAe?$AAc?$AAo?$AAd?$AAe?$AA_?$AAa?$AAc?$AAc?$AAe?$AAs?$AAs?$AA_?$AAf@ 000000014007c080     libucrtd:open.obj
 0002:000170a8       ??_C@_1DC@MNGJFJEL@?$AAd?$AAe?$AAc?$AAo?$AAd?$AAe?$AA_?$AAo?$AAp?$AAe?$AAn?$AA_?$AAc?$AAr?$AAe@ 000000014007c0a8     libucrtd:open.obj
 0002:000170e0       ??_C@_1DI@OAOBKLOM@?$AA?$CI?$AA?$CC?$AAI?$AAn?$AAv?$AAa?$AAl?$AAi?$AAd?$AA?5?$AAs?$AAh?$AAa?$AAr?$AAi@ 000000014007c0e0     libucrtd:open.obj
 0002:00017118       ??_C@_1CK@LFHOGGAL@?$AAd?$AAe?$AAc?$AAo?$AAd?$AAe?$AA_?$AAs?$AAh?$AAa?$AAr?$AAi?$AAn?$AAg?$AA_@ 000000014007c118     libucrtd:open.obj
 0002:00017148       ??_C@_1BK@MIHMAFGB@?$AAi?$AAs?$AA_?$AAt?$AAe?$AAx?$AAt?$AA_?$AAm?$AAo?$AAd?$AAe@ 000000014007c148     libucrtd:open.obj
 0002:00017168       ??_C@_1CG@ICBEBDJJ@?$AA_?$AAg?$AAe?$AAt?$AA_?$AAf?$AAm?$AAo?$AAd?$AAe?$AA?$CI?$AA?$CG?$AAf?$AAm?$AAo@ 000000014007c168     libucrtd:open.obj
 0002:00017190       ??_C@_1CI@FIBMFMKJ@?$AAc?$AAo?$AAn?$AAf?$AAi?$AAg?$AAu?$AAr?$AAe?$AA_?$AAt?$AAe?$AAx?$AAt?$AA_@ 000000014007c190     libucrtd:open.obj
 0002:000171b8       ??_C@_1DM@GAGCJPHI@?$AA?$CI?$AAo?$AAf?$AAl?$AAa?$AAg?$AA?5?$AA?$CG?$AA?5?$AAt?$AAe?$AAx?$AAt?$AA_?$AAm@ 000000014007c1b8     libucrtd:open.obj
 0002:000171f8       ??_C@_1CM@IDLMKMPG@?$AA0?$AA?5?$AA?$CG?$AA?$CG?$AA?5?$AA?$CC?$AAI?$AAn?$AAt?$AAe?$AAr?$AAn?$AAa?$AAl?$AA?5@ 000000014007c1f8     libucrtd:open.obj
 0002:00017230       ??_C@_1IA@IENOJNJF@?$AA0?$AA?5?$AA?$CG?$AA?$CG?$AA?5?$AA?$CC?$AAO?$AAn?$AAl?$AAy?$AA?5?$AAU?$AAT?$AAF?$AA?9@ 000000014007c230     libucrtd:open.obj
 0002:000172b0       ??_C@_1CA@DFHJGMAL@?$AAp?$AAa?$AAt?$AAh?$AA?5?$AA?$CB?$AA?$DN?$AA?5?$AAn?$AAu?$AAl?$AAl?$AAp?$AAt?$AAr@ 000000014007c2b0     libucrtd:open.obj
 0002:000172d0       ??_C@_1BO@CKEBPLGM@?$AAp?$AAf?$AAh?$AA?5?$AA?$CB?$AA?$DN?$AA?5?$AAn?$AAu?$AAl?$AAl?$AAp?$AAt?$AAr@ 000000014007c2d0     libucrtd:open.obj
 0002:000172f0       ??_C@_1CM@DJGGMBLF@?$AAc?$AAo?$AAm?$AAm?$AAo?$AAn?$AA_?$AAs?$AAo?$AAp?$AAe?$AAn?$AA_?$AAd?$AAi@ 000000014007c2f0     libucrtd:open.obj
 0002:00017320       ??_C@_1FC@KMHFBDGJ@?$AA?$CI?$AAp?$AAm?$AAo?$AAd?$AAe?$AA?5?$AA?$CG?$AA?5?$AA?$CI?$AA?$HO?$AA?$CI?$AA_?$AAS?$AA_@ 000000014007c320     libucrtd:open.obj
 0002:00017380       ??_C@_1GA@DEPMKPD@?$AAm?$AAi?$AAn?$AAk?$AAe?$AAr?$AAn?$AAe?$AAl?$AA?2?$AAc?$AAr?$AAt?$AAs?$AA?2@ 000000014007c380     libucrtd:isatty.obj
 0002:000173e0       ??_C@_1BA@LEBDGIHM@?$AA_?$AAi?$AAs?$AAa?$AAt?$AAt?$AAy@ 000000014007c3e0     libucrtd:isatty.obj
 0002:00018230       ??_C@_15EMKDOKLE@?$AAa?$AAr@ 000000014007d230     libucrtd:lcidtoname_downlevel.obj
 0002:00018238       ??_C@_15KNPADPLH@?$AAb?$AAg@ 000000014007d238     libucrtd:lcidtoname_downlevel.obj
 0002:00018240       ??_C@_15EDMHLDMO@?$AAc?$AAa@ 000000014007d240     libucrtd:lcidtoname_downlevel.obj
 0002:00018248       ??_C@_1O@BPEAJADD@?$AAz?$AAh?$AA?9?$AAC?$AAH?$AAS@ 000000014007d248     libucrtd:lcidtoname_downlevel.obj
 0002:00018258       ??_C@_15LJNHCMNK@?$AAc?$AAs@ 000000014007d258     libucrtd:lcidtoname_downlevel.obj
 0002:00018260       ??_C@_15FOMCIDHG@?$AAd?$AAa@ 000000014007d260     libucrtd:lcidtoname_downlevel.obj
 0002:00018268       ??_C@_15NBKABECB@?$AAd?$AAe@ 000000014007d268     libucrtd:lcidtoname_downlevel.obj
 0002:00018270       ??_C@_15GHPEIIAO@?$AAe?$AAl@ 000000014007d270     libucrtd:lcidtoname_downlevel.obj
 0002:00018278       ??_C@_15MNPNEAIF@?$AAe?$AAn@ 000000014007d278     libucrtd:lcidtoname_downlevel.obj
 0002:00018280       ??_C@_15GPIOMPMH@?$AAe?$AAs@ 000000014007d280     libucrtd:lcidtoname_downlevel.obj
 0002:00018288       ??_C@_15NGLOAKJC@?$AAf?$AAi@ 000000014007d288     libucrtd:lcidtoname_downlevel.obj
 0002:00018290       ??_C@_15FBKGNKAM@?$AAf?$AAr@ 000000014007d290     libucrtd:lcidtoname_downlevel.obj
 0002:00018298       ??_C@_15KGGCNEFK@?$AAh?$AAe@ 000000014007d298     libucrtd:lcidtoname_downlevel.obj
 0002:000182a0       ??_C@_15PGHLIDMF@?$AAh?$AAu@ 000000014007d2a0     libucrtd:lcidtoname_downlevel.obj
 0002:000182a8       ??_C@_15BIEMAPLM@?$AAi?$AAs@ 000000014007d2a8     libucrtd:lcidtoname_downlevel.obj
 0002:000182b0       ??_C@_15IFJLDHAF@?$AAi?$AAt@ 000000014007d2b0     libucrtd:lcidtoname_downlevel.obj
 0002:000182b8       ??_C@_15GEMIOCAG@?$AAj?$AAa@ 000000014007d2b8     libucrtd:lcidtoname_downlevel.obj
 0002:000182c0       ??_C@_15EPELEGJA@?$AAk?$AAo@ 000000014007d2c0     libucrtd:lcidtoname_downlevel.obj
 0002:000182c8       ??_C@_15NDDHIMN@?$AAn?$AAl@ 000000014007d2c8     libucrtd:lcidtoname_downlevel.obj
 0002:000182d0       ??_C@_15BPIGNHCD@?$AAn?$AAo@ 000000014007d2d0     libucrtd:lcidtoname_downlevel.obj
 0002:000182d8       ??_C@_15DEOPBLCG@?$AAp?$AAl@ 000000014007d2d8     libucrtd:lcidtoname_downlevel.obj
 0002:000182e0       ??_C@_15KBECGEFG@?$AAp?$AAt@ 000000014007d2e0     libucrtd:lcidtoname_downlevel.obj
 0002:000182e8       ??_C@_15GLJCBFMD@?$AAr?$AAo@ 000000014007d2e8     libucrtd:lcidtoname_downlevel.obj
 0002:000182f0       ??_C@_15FEDGKCDI@?$AAr?$AAu@ 000000014007d2f0     libucrtd:lcidtoname_downlevel.obj
 0002:000182f8       ??_C@_15GLKMLLHM@?$AAh?$AAr@ 000000014007d2f8     libucrtd:lcidtoname_downlevel.obj
 0002:00018300       ??_C@_15CPKMFBDB@?$AAs?$AAk@ 000000014007d300     libucrtd:lcidtoname_downlevel.obj
 0002:00018308       ??_C@_15BAAIOGMK@?$AAs?$AAq@ 000000014007d308     libucrtd:lcidtoname_downlevel.obj
 0002:00018310       ??_C@_15INNPNOHD@?$AAs?$AAv@ 000000014007d310     libucrtd:lcidtoname_downlevel.obj
 0002:00018318       ??_C@_15CABMMOGH@?$AAt?$AAh@ 000000014007d318     libucrtd:lcidtoname_downlevel.obj
 0002:00018320       ??_C@_15BPLIHJJM@?$AAt?$AAr@ 000000014007d320     libucrtd:lcidtoname_downlevel.obj
 0002:00018328       ??_C@_15NEOEKKDJ@?$AAu?$AAr@ 000000014007d328     libucrtd:lcidtoname_downlevel.obj
 0002:00018330       ??_C@_15NFICGAJK@?$AAi?$AAd@ 000000014007d330     libucrtd:lcidtoname_downlevel.obj
 0002:00018338       ??_C@_15HPJPHDM@?$AAb?$AAe@ 000000014007d338     libucrtd:lcidtoname_downlevel.obj
 0002:00018340       ??_C@_15LCHLGJII@?$AAs?$AAl@ 000000014007d340     libucrtd:lcidtoname_downlevel.obj
 0002:00018348       ??_C@_15PCFJPHHO@?$AAe?$AAt@ 000000014007d348     libucrtd:lcidtoname_downlevel.obj
 0002:00018350       ??_C@_15HPFPGODN@?$AAl?$AAv@ 000000014007d350     libucrtd:lcidtoname_downlevel.obj
 0002:00018358       ??_C@_15NFFGKGLG@?$AAl?$AAt@ 000000014007d358     libucrtd:lcidtoname_downlevel.obj
 0002:00018360       ??_C@_15BDAKCCHN@?$AAf?$AAa@ 000000014007d360     libucrtd:lcidtoname_downlevel.obj
 0002:00018368       ??_C@_15NFGIAIAJ@?$AAv?$AAi@ 000000014007d368     libucrtd:lcidtoname_downlevel.obj
 0002:00018370       ??_C@_15LMKNDMHN@?$AAh?$AAy@ 000000014007d370     libucrtd:lcidtoname_downlevel.obj
 0002:00018378       ??_C@_15IJBHMCFL@?$AAa?$AAz@ 000000014007d378     libucrtd:lcidtoname_downlevel.obj
 0002:00018380       ??_C@_15EKOFJABL@?$AAe?$AAu@ 000000014007d380     libucrtd:lcidtoname_downlevel.obj
 0002:00018388       ??_C@_15BGHADCNK@?$AAm?$AAk@ 000000014007d388     libucrtd:lcidtoname_downlevel.obj
 0002:00018390       ??_C@_15JDNICKHM@?$AAa?$AAf@ 000000014007d390     libucrtd:lcidtoname_downlevel.obj
 0002:00018398       ??_C@_15KPJEDBKD@?$AAk?$AAa@ 000000014007d398     libucrtd:lcidtoname_downlevel.obj
 0002:000183a0       ??_C@_15PDNFFFEO@?$AAf?$AAo@ 000000014007d3a0     libucrtd:lcidtoname_downlevel.obj
 0002:000183a8       ??_C@_15OMLEGLOC@?$AAh?$AAi@ 000000014007d3a8     libucrtd:lcidtoname_downlevel.obj
 0002:000183b0       ??_C@_15IDNNENKK@?$AAm?$AAs@ 000000014007d3b0     libucrtd:lcidtoname_downlevel.obj
 0002:000183b8       ??_C@_15MACJNBMH@?$AAk?$AAk@ 000000014007d3b8     libucrtd:lcidtoname_downlevel.obj
 0002:000183c0       ??_C@_15DKDJEOND@?$AAk?$AAy@ 000000014007d3c0     libucrtd:lcidtoname_downlevel.obj
 0002:000183c8       ??_C@_15DFGDLJBG@?$AAs?$AAw@ 000000014007d3c8     libucrtd:lcidtoname_downlevel.obj
 0002:000183d0       ??_C@_15BBFAICNG@?$AAu?$AAz@ 000000014007d3d0     libucrtd:lcidtoname_downlevel.obj
 0002:000183d8       ??_C@_15DKNDCGEA@?$AAt?$AAt@ 000000014007d3d8     libucrtd:lcidtoname_downlevel.obj
 0002:000183e0       ??_C@_15MGIFMDPL@?$AAp?$AAa@ 000000014007d3e0     libucrtd:lcidtoname_downlevel.obj
 0002:000183e8       ??_C@_15HCNDBBA@?$AAg?$AAu@ 000000014007d3e8     libucrtd:lcidtoname_downlevel.obj
 0002:000183f0       ??_C@_15FNBEIBON@?$AAt?$AAa@ 000000014007d3f0     libucrtd:lcidtoname_downlevel.obj
 0002:000183f8       ??_C@_15NCHGBGLK@?$AAt?$AAe@ 000000014007d3f8     libucrtd:lcidtoname_downlevel.obj
 0002:00018400       ??_C@_15PHPHCBPF@?$AAk?$AAn@ 000000014007d400     libucrtd:lcidtoname_downlevel.obj
 0002:00018408       ??_C@_15DLGBCKMP@?$AAm?$AAr@ 000000014007d408     libucrtd:lcidtoname_downlevel.obj
 0002:00018410       ??_C@_15EABBLBFF@?$AAs?$AAa@ 000000014007d410     libucrtd:lcidtoname_downlevel.obj
 0002:00018418       ??_C@_15CBKOMCOI@?$AAm?$AAn@ 000000014007d418     libucrtd:lcidtoname_downlevel.obj
 0002:00018420       ??_C@_15CKDMCJAF@?$AAg?$AAl@ 000000014007d420     libucrtd:lcidtoname_downlevel.obj
 0002:00018428       ??_C@_17CNJFBPG@?$AAk?$AAo?$AAk@ 000000014007d428     libucrtd:lcidtoname_downlevel.obj
 0002:00018430       ??_C@_17FFBJICPL@?$AAs?$AAy?$AAr@ 000000014007d430     libucrtd:lcidtoname_downlevel.obj
 0002:00018438       ??_C@_17KPNDCPAF@?$AAd?$AAi?$AAv@ 000000014007d438     libucrtd:lcidtoname_downlevel.obj
 0002:00018440       ??_C@_1M@OKAHONE@?$AAa?$AAr?$AA?9?$AAS?$AAA@ 000000014007d440     libucrtd:lcidtoname_downlevel.obj
 0002:00018450       ??_C@_1M@FFFIGIGK@?$AAb?$AAg?$AA?9?$AAB?$AAG@ 000000014007d450     libucrtd:lcidtoname_downlevel.obj
 0002:00018460       ??_C@_1M@BJNKEDC@?$AAc?$AAa?$AA?9?$AAE?$AAS@ 000000014007d460     libucrtd:lcidtoname_downlevel.obj
 0002:00018470       ??_C@_1M@IJJHFJHA@?$AAc?$AAs?$AA?9?$AAC?$AAZ@ 000000014007d470     libucrtd:lcidtoname_downlevel.obj
 0002:00018480       ??_C@_1M@CLPEOBGI@?$AAd?$AAa?$AA?9?$AAD?$AAK@ 000000014007d480     libucrtd:lcidtoname_downlevel.obj
 0002:00018490       ??_C@_1M@MCMADGCB@?$AAd?$AAe?$AA?9?$AAD?$AAE@ 000000014007d490     libucrtd:lcidtoname_downlevel.obj
 0002:000184a0       ??_C@_1M@OOCKEMAM@?$AAe?$AAl?$AA?9?$AAG?$AAR@ 000000014007d4a0     libucrtd:lcidtoname_downlevel.obj
 0002:000184b0       ??_C@_1M@DDNJFGID@?$AAf?$AAi?$AA?9?$AAF?$AAI@ 000000014007d4b0     libucrtd:lcidtoname_downlevel.obj
 0002:000184c0       ??_C@_1M@GLIPPMAC@?$AAf?$AAr?$AA?9?$AAF?$AAR@ 000000014007d4c0     libucrtd:lcidtoname_downlevel.obj
 0002:000184d0       ??_C@_1M@GFMCHPE@?$AAh?$AAe?$AA?9?$AAI?$AAL@ 000000014007d4d0     libucrtd:lcidtoname_downlevel.obj
 0002:000184e0       ??_C@_1M@MHLPGNKM@?$AAh?$AAu?$AA?9?$AAH?$AAU@ 000000014007d4e0     libucrtd:lcidtoname_downlevel.obj
 0002:000184f0       ??_C@_1M@LPDDNNPN@?$AAi?$AAs?$AA?9?$AAI?$AAS@ 000000014007d4f0     libucrtd:lcidtoname_downlevel.obj
 0002:00018500       ??_C@_1M@MADIPODN@?$AAi?$AAt?$AA?9?$AAI?$AAT@ 000000014007d500     libucrtd:lcidtoname_downlevel.obj
 0002:00018510       ??_C@_1M@IHBJJGG@?$AAn?$AAl?$AA?9?$AAN?$AAL@ 000000014007d510     libucrtd:lcidtoname_downlevel.obj
 0002:00018520       ??_C@_1M@EANAGDL@?$AAn?$AAb?$AA?9?$AAN?$AAO@ 000000014007d520     libucrtd:lcidtoname_downlevel.obj
 0002:00018530       ??_C@_1M@NEIEMEGP@?$AAp?$AAl?$AA?9?$AAP?$AAL@ 000000014007d530     libucrtd:lcidtoname_downlevel.obj
 0002:00018540       ??_C@_1M@BOCFIGEP@?$AAp?$AAt?$AA?9?$AAB?$AAR@ 000000014007d540     libucrtd:lcidtoname_downlevel.obj
 0002:00018550       ??_C@_1M@IMPFOPBG@?$AAr?$AAo?$AA?9?$AAR?$AAO@ 000000014007d550     libucrtd:lcidtoname_downlevel.obj
 0002:00018560       ??_C@_1M@IDNNEJMM@?$AAr?$AAu?$AA?9?$AAR?$AAU@ 000000014007d560     libucrtd:lcidtoname_downlevel.obj
 0002:00018570       ??_C@_1M@LILEEOGM@?$AAh?$AAr?$AA?9?$AAH?$AAR@ 000000014007d570     libucrtd:lcidtoname_downlevel.obj
 0002:00018580       ??_C@_1M@FKIFEHPB@?$AAs?$AAk?$AA?9?$AAS?$AAK@ 000000014007d580     libucrtd:lcidtoname_downlevel.obj
 0002:00018590       ??_C@_1M@LJMAMNPJ@?$AAs?$AAq?$AA?9?$AAA?$AAL@ 000000014007d590     libucrtd:lcidtoname_downlevel.obj
 0002:000185a0       ??_C@_1M@GIAKDKJK@?$AAs?$AAv?$AA?9?$AAS?$AAE@ 000000014007d5a0     libucrtd:lcidtoname_downlevel.obj
 0002:000185b0       ??_C@_1M@MKJKIKCL@?$AAt?$AAh?$AA?9?$AAT?$AAH@ 000000014007d5b0     libucrtd:lcidtoname_downlevel.obj
 0002:000185c0       ??_C@_1M@MFLCCMPB@?$AAt?$AAr?$AA?9?$AAT?$AAR@ 000000014007d5c0     libucrtd:lcidtoname_downlevel.obj
 0002:000185d0       ??_C@_1M@OIJHDKJN@?$AAu?$AAr?$AA?9?$AAP?$AAK@ 000000014007d5d0     libucrtd:lcidtoname_downlevel.obj
 0002:000185e0       ??_C@_1M@LHIPCIEK@?$AAi?$AAd?$AA?9?$AAI?$AAD@ 000000014007d5e0     libucrtd:lcidtoname_downlevel.obj
 0002:000185f0       ??_C@_1M@MFMOBGI@?$AAu?$AAk?$AA?9?$AAU?$AAA@ 000000014007d5f0     libucrtd:lcidtoname_downlevel.obj
 0002:00018600       ??_C@_1M@OBGLJIPL@?$AAb?$AAe?$AA?9?$AAB?$AAY@ 000000014007d600     libucrtd:lcidtoname_downlevel.obj
 0002:00018610       ??_C@_1M@BCFAJEAD@?$AAs?$AAl?$AA?9?$AAS?$AAI@ 000000014007d610     libucrtd:lcidtoname_downlevel.obj
 0002:00018620       ??_C@_1M@FKFFEDDN@?$AAe?$AAt?$AA?9?$AAE?$AAE@ 000000014007d620     libucrtd:lcidtoname_downlevel.obj
 0002:00018630       ??_C@_1M@KGKKAACI@?$AAl?$AAv?$AA?9?$AAL?$AAV@ 000000014007d630     libucrtd:lcidtoname_downlevel.obj
 0002:00018640       ??_C@_1M@IFGBIJO@?$AAl?$AAt?$AA?9?$AAL?$AAT@ 000000014007d640     libucrtd:lcidtoname_downlevel.obj
 0002:00018650       ??_C@_1M@FGEAHEDM@?$AAf?$AAa?$AA?9?$AAI?$AAR@ 000000014007d650     libucrtd:lcidtoname_downlevel.obj
 0002:00018660       ??_C@_1M@KBMAIBFN@?$AAv?$AAi?$AA?9?$AAV?$AAN@ 000000014007d660     libucrtd:lcidtoname_downlevel.obj
 0002:00018670       ??_C@_1M@GPCBKDJK@?$AAh?$AAy?$AA?9?$AAA?$AAM@ 000000014007d670     libucrtd:lcidtoname_downlevel.obj
 0002:00018680       ??_C@_1BG@BECMDDJB@?$AAa?$AAz?$AA?9?$AAA?$AAZ?$AA?9?$AAL?$AAa?$AAt?$AAn@ 000000014007d680     libucrtd:lcidtoname_downlevel.obj
 0002:00018698       ??_C@_1M@MAOFCAEA@?$AAe?$AAu?$AA?9?$AAE?$AAS@ 000000014007d698     libucrtd:lcidtoname_downlevel.obj
 0002:000186a8       ??_C@_1M@IGHABKPI@?$AAm?$AAk?$AA?9?$AAM?$AAK@ 000000014007d6a8     libucrtd:lcidtoname_downlevel.obj
 0002:000186b8       ??_C@_1M@IAIGNEJG@?$AAt?$AAn?$AA?9?$AAZ?$AAA@ 000000014007d6b8     libucrtd:lcidtoname_downlevel.obj
 0002:000186c8       ??_C@_1M@IIJCOJFA@?$AAx?$AAh?$AA?9?$AAZ?$AAA@ 000000014007d6c8     libucrtd:lcidtoname_downlevel.obj
 0002:000186d8       ??_C@_1M@LGPJHNJH@?$AAz?$AAu?$AA?9?$AAZ?$AAA@ 000000014007d6d8     libucrtd:lcidtoname_downlevel.obj
 0002:000186e8       ??_C@_1M@HOKAOIO@?$AAa?$AAf?$AA?9?$AAZ?$AAA@ 000000014007d6e8     libucrtd:lcidtoname_downlevel.obj
 0002:000186f8       ??_C@_1M@DPCLHLIE@?$AAk?$AAa?$AA?9?$AAG?$AAE@ 000000014007d6f8     libucrtd:lcidtoname_downlevel.obj
 0002:00018708       ??_C@_1M@BLKMHJBI@?$AAf?$AAo?$AA?9?$AAF?$AAO@ 000000014007d708     libucrtd:lcidtoname_downlevel.obj
 0002:00018718       ??_C@_1M@LGGJAPPB@?$AAh?$AAi?$AA?9?$AAI?$AAN@ 000000014007d718     libucrtd:lcidtoname_downlevel.obj
 0002:00018728       ??_C@_1M@FIKPIHFE@?$AAm?$AAt?$AA?9?$AAM?$AAT@ 000000014007d728     libucrtd:lcidtoname_downlevel.obj
 0002:00018738       ??_C@_1M@HEGGPBFA@?$AAs?$AAe?$AA?9?$AAN?$AAO@ 000000014007d738     libucrtd:lcidtoname_downlevel.obj
 0002:00018748       ??_C@_1M@EIBJEEPA@?$AAm?$AAs?$AA?9?$AAM?$AAY@ 000000014007d748     libucrtd:lcidtoname_downlevel.obj
 0002:00018758       ??_C@_1M@FHLBGMPP@?$AAk?$AAk?$AA?9?$AAK?$AAZ@ 000000014007d758     libucrtd:lcidtoname_downlevel.obj
 0002:00018768       ??_C@_1M@NGJJLCGI@?$AAk?$AAy?$AA?9?$AAK?$AAG@ 000000014007d768     libucrtd:lcidtoname_downlevel.obj
 0002:00018778       ??_C@_1M@GIENNBFC@?$AAs?$AAw?$AA?9?$AAK?$AAE@ 000000014007d778     libucrtd:lcidtoname_downlevel.obj
 0002:00018788       ??_C@_1BG@NDGMJIMJ@?$AAu?$AAz?$AA?9?$AAU?$AAZ?$AA?9?$AAL?$AAa?$AAt?$AAn@ 000000014007d788     libucrtd:lcidtoname_downlevel.obj
 0002:000187a0       ??_C@_1M@IDCCIHBC@?$AAt?$AAt?$AA?9?$AAR?$AAU@ 000000014007d7a0     libucrtd:lcidtoname_downlevel.obj
 0002:000187b0       ??_C@_1M@LOICPMOJ@?$AAb?$AAn?$AA?9?$AAI?$AAN@ 000000014007d7b0     libucrtd:lcidtoname_downlevel.obj
 0002:000187c0       ??_C@_1M@KPKKNEAH@?$AAp?$AAa?$AA?9?$AAI?$AAN@ 000000014007d7c0     libucrtd:lcidtoname_downlevel.obj
 0002:000187d0       ??_C@_1M@PJGPPBOG@?$AAg?$AAu?$AA?9?$AAI?$AAN@ 000000014007d7d0     libucrtd:lcidtoname_downlevel.obj
 0002:000187e0       ??_C@_1M@KMKMOPHI@?$AAt?$AAa?$AA?9?$AAI?$AAN@ 000000014007d7e0     libucrtd:lcidtoname_downlevel.obj
 0002:000187f0       ??_C@_1M@KFEHEPAC@?$AAt?$AAe?$AA?9?$AAI?$AAN@ 000000014007d7f0     libucrtd:lcidtoname_downlevel.obj
 0002:00018800       ??_C@_1M@CDCLMGHI@?$AAk?$AAn?$AA?9?$AAI?$AAN@ 000000014007d800     libucrtd:lcidtoname_downlevel.obj
 0002:00018810       ??_C@_1M@MIODLDKF@?$AAm?$AAl?$AA?9?$AAI?$AAN@ 000000014007d810     libucrtd:lcidtoname_downlevel.obj
 0002:00018820       ??_C@_1M@PBIEACPO@?$AAm?$AAr?$AA?9?$AAI?$AAN@ 000000014007d820     libucrtd:lcidtoname_downlevel.obj
 0002:00018830       ??_C@_1M@NIDEAGPH@?$AAs?$AAa?$AA?9?$AAI?$AAN@ 000000014007d830     libucrtd:lcidtoname_downlevel.obj
 0002:00018840       ??_C@_1M@FHIHCBIO@?$AAm?$AAn?$AA?9?$AAM?$AAN@ 000000014007d840     libucrtd:lcidtoname_downlevel.obj
 0002:00018850       ??_C@_1M@JAIJPENP@?$AAc?$AAy?$AA?9?$AAG?$AAB@ 000000014007d850     libucrtd:lcidtoname_downlevel.obj
 0002:00018860       ??_C@_1M@PHGFBEPN@?$AAg?$AAl?$AA?9?$AAE?$AAS@ 000000014007d860     libucrtd:lcidtoname_downlevel.obj
 0002:00018870       ??_C@_1O@KPIPDNCP@?$AAk?$AAo?$AAk?$AA?9?$AAI?$AAN@ 000000014007d870     libucrtd:lcidtoname_downlevel.obj
 0002:00018880       ??_C@_1O@KNHJLDJA@?$AAs?$AAy?$AAr?$AA?9?$AAS?$AAY@ 000000014007d880     libucrtd:lcidtoname_downlevel.obj
 0002:00018890       ??_C@_1O@MKEKBLAH@?$AAd?$AAi?$AAv?$AA?9?$AAM?$AAV@ 000000014007d890     libucrtd:lcidtoname_downlevel.obj
 0002:000188a0       ??_C@_1O@OHDCKDDF@?$AAq?$AAu?$AAz?$AA?9?$AAB?$AAO@ 000000014007d8a0     libucrtd:lcidtoname_downlevel.obj
 0002:000188b0       ??_C@_1M@LEPJNLFD@?$AAn?$AAs?$AA?9?$AAZ?$AAA@ 000000014007d8b0     libucrtd:lcidtoname_downlevel.obj
 0002:000188c0       ??_C@_1M@OMLEIIJB@?$AAm?$AAi?$AA?9?$AAN?$AAZ@ 000000014007d8c0     libucrtd:lcidtoname_downlevel.obj
 0002:000188d0       ??_C@_1M@PMPEAILG@?$AAa?$AAr?$AA?9?$AAI?$AAQ@ 000000014007d8d0     libucrtd:lcidtoname_downlevel.obj
 0002:000188e0       ??_C@_1M@CNKPNOEE@?$AAd?$AAe?$AA?9?$AAC?$AAH@ 000000014007d8e0     libucrtd:lcidtoname_downlevel.obj
 0002:000188f0       ??_C@_1M@LKMGMLKO@?$AAe?$AAn?$AA?9?$AAG?$AAB@ 000000014007d8f0     libucrtd:lcidtoname_downlevel.obj
 0002:00018900       ??_C@_1M@PGKJFFGL@?$AAe?$AAs?$AA?9?$AAM?$AAX@ 000000014007d900     libucrtd:lcidtoname_downlevel.obj
 0002:00018910       ??_C@_1M@DNNANBDC@?$AAf?$AAr?$AA?9?$AAB?$AAE@ 000000014007d910     libucrtd:lcidtoname_downlevel.obj
 0002:00018920       ??_C@_1M@HLGMDFHM@?$AAi?$AAt?$AA?9?$AAC?$AAH@ 000000014007d920     libucrtd:lcidtoname_downlevel.obj
 0002:00018930       ??_C@_1M@CLLBGJH@?$AAn?$AAl?$AA?9?$AAB?$AAE@ 000000014007d930     libucrtd:lcidtoname_downlevel.obj
 0002:00018940       ??_C@_1M@BODBOGLF@?$AAn?$AAn?$AA?9?$AAN?$AAO@ 000000014007d940     libucrtd:lcidtoname_downlevel.obj
 0002:00018950       ??_C@_1M@HFFAHKAD@?$AAp?$AAt?$AA?9?$AAP?$AAT@ 000000014007d950     libucrtd:lcidtoname_downlevel.obj
 0002:00018960       ??_C@_1BG@LNOAKHIE@?$AAs?$AAr?$AA?9?$AAS?$AAP?$AA?9?$AAL?$AAa?$AAt?$AAn@ 000000014007d960     libucrtd:lcidtoname_downlevel.obj
 0002:00018978       ??_C@_1M@HBMHBGAK@?$AAs?$AAv?$AA?9?$AAF?$AAI@ 000000014007d978     libucrtd:lcidtoname_downlevel.obj
 0002:00018988       ??_C@_1BG@DGCJGJBE@?$AAa?$AAz?$AA?9?$AAA?$AAZ?$AA?9?$AAC?$AAy?$AAr?$AAl@ 000000014007d988     libucrtd:lcidtoname_downlevel.obj
 0002:000189a0       ??_C@_1M@KEJDAAHB@?$AAs?$AAe?$AA?9?$AAS?$AAE@ 000000014007d9a0     libucrtd:lcidtoname_downlevel.obj
 0002:000189b0       ??_C@_1M@HEIBJJAD@?$AAm?$AAs?$AA?9?$AAB?$AAN@ 000000014007d9b0     libucrtd:lcidtoname_downlevel.obj
 0002:000189c0       ??_C@_1BG@PBGJMCEM@?$AAu?$AAz?$AA?9?$AAU?$AAZ?$AA?9?$AAC?$AAy?$AAr?$AAl@ 000000014007d9c0     libucrtd:lcidtoname_downlevel.obj
 0002:000189d8       ??_C@_1O@LAOBCMDF@?$AAq?$AAu?$AAz?$AA?9?$AAE?$AAC@ 000000014007d9d8     libucrtd:lcidtoname_downlevel.obj
 0002:000189e8       ??_C@_1M@POEEMAIO@?$AAa?$AAr?$AA?9?$AAE?$AAG@ 000000014007d9e8     libucrtd:lcidtoname_downlevel.obj
 0002:000189f8       ??_C@_1M@EFAKDEDL@?$AAz?$AAh?$AA?9?$AAH?$AAK@ 000000014007d9f8     libucrtd:lcidtoname_downlevel.obj
 0002:00018a08       ??_C@_1M@HKKIJHGI@?$AAd?$AAe?$AA?9?$AAA?$AAT@ 000000014007da08     libucrtd:lcidtoname_downlevel.obj
 0002:00018a18       ??_C@_1M@KBFBEHJF@?$AAe?$AAn?$AA?9?$AAA?$AAU@ 000000014007da18     libucrtd:lcidtoname_downlevel.obj
 0002:00018a28       ??_C@_1M@MNPLFAAH@?$AAe?$AAs?$AA?9?$AAE?$AAS@ 000000014007da28     libucrtd:lcidtoname_downlevel.obj
 0002:00018a38       ??_C@_1M@HJOOJFMA@?$AAf?$AAr?$AA?9?$AAC?$AAA@ 000000014007da38     libucrtd:lcidtoname_downlevel.obj
 0002:00018a48       ??_C@_1BG@JPOFPNAB@?$AAs?$AAr?$AA?9?$AAS?$AAP?$AA?9?$AAC?$AAy?$AAr?$AAl@ 000000014007da48     libucrtd:lcidtoname_downlevel.obj
 0002:00018a60       ??_C@_1M@LNFOCMOB@?$AAs?$AAe?$AA?9?$AAF?$AAI@ 000000014007da60     libucrtd:lcidtoname_downlevel.obj
 0002:00018a70       ??_C@_1O@MGJBOAMB@?$AAq?$AAu?$AAz?$AA?9?$AAP?$AAE@ 000000014007da70     libucrtd:lcidtoname_downlevel.obj
 0002:00018a80       ??_C@_1M@GJINLBOK@?$AAa?$AAr?$AA?9?$AAL?$AAY@ 000000014007da80     libucrtd:lcidtoname_downlevel.obj
 0002:00018a90       ??_C@_1M@GGMNHJNL@?$AAz?$AAh?$AA?9?$AAS?$AAG@ 000000014007da90     libucrtd:lcidtoname_downlevel.obj
 0002:00018aa0       ??_C@_1M@HOIKODND@?$AAd?$AAe?$AA?9?$AAL?$AAU@ 000000014007daa0     libucrtd:lcidtoname_downlevel.obj
 0002:00018ab0       ??_C@_1M@DDOCCGFG@?$AAe?$AAn?$AA?9?$AAC?$AAA@ 000000014007dab0     libucrtd:lcidtoname_downlevel.obj
 0002:00018ac0       ??_C@_1M@BNOEMJLF@?$AAe?$AAs?$AA?9?$AAG?$AAT@ 000000014007dac0     libucrtd:lcidtoname_downlevel.obj
 0002:00018ad0       ??_C@_1M@EOGNKEK@?$AAf?$AAr?$AA?9?$AAC?$AAH@ 000000014007dad0     libucrtd:lcidtoname_downlevel.obj
 0002:00018ae0       ??_C@_1M@FLIDJFHL@?$AAh?$AAr?$AA?9?$AAB?$AAA@ 000000014007dae0     libucrtd:lcidtoname_downlevel.obj
 0002:00018af0       ??_C@_1O@FMCELNAJ@?$AAs?$AAm?$AAj?$AA?9?$AAN?$AAO@ 000000014007daf0     libucrtd:lcidtoname_downlevel.obj
 0002:00018b00       ??_C@_1M@JHGLJMGJ@?$AAa?$AAr?$AA?9?$AAD?$AAZ@ 000000014007db00     libucrtd:lcidtoname_downlevel.obj
 0002:00018b10       ??_C@_1M@JKKFDCNP@?$AAz?$AAh?$AA?9?$AAM?$AAO@ 000000014007db10     libucrtd:lcidtoname_downlevel.obj
 0002:00018b20       ??_C@_1M@GEEFALPE@?$AAd?$AAe?$AA?9?$AAL?$AAI@ 000000014007db20     libucrtd:lcidtoname_downlevel.obj
 0002:00018b30       ??_C@_1M@IGEOFBG@?$AAe?$AAn?$AA?9?$AAN?$AAZ@ 000000014007db30     libucrtd:lcidtoname_downlevel.obj
 0002:00018b40       ??_C@_1M@KDBONEHP@?$AAe?$AAs?$AA?9?$AAC?$AAR@ 000000014007db40     libucrtd:lcidtoname_downlevel.obj
 0002:00018b50       ??_C@_1M@FHMDOHNN@?$AAf?$AAr?$AA?9?$AAL?$AAU@ 000000014007db50     libucrtd:lcidtoname_downlevel.obj
 0002:00018b60       ??_C@_1BG@NFKKMAFG@?$AAb?$AAs?$AA?9?$AAB?$AAA?$AA?9?$AAL?$AAa?$AAt?$AAn@ 000000014007db60     libucrtd:lcidtoname_downlevel.obj
 0002:00018b78       ??_C@_1O@IMNBEMCI@?$AAs?$AAm?$AAj?$AA?9?$AAS?$AAE@ 000000014007db78     libucrtd:lcidtoname_downlevel.obj
 0002:00018b88       ??_C@_1M@DHHMBNDP@?$AAa?$AAr?$AA?9?$AAM?$AAA@ 000000014007db88     libucrtd:lcidtoname_downlevel.obj
 0002:00018b98       ??_C@_1M@BNBLJCGH@?$AAe?$AAn?$AA?9?$AAI?$AAE@ 000000014007db98     libucrtd:lcidtoname_downlevel.obj
 0002:00018ba8       ??_C@_1M@GEPAFMDL@?$AAe?$AAs?$AA?9?$AAP?$AAA@ 000000014007dba8     libucrtd:lcidtoname_downlevel.obj
 0002:00018bb8       ??_C@_1M@OJONDMDL@?$AAf?$AAr?$AA?9?$AAM?$AAC@ 000000014007dbb8     libucrtd:lcidtoname_downlevel.obj
 0002:00018bc8       ??_C@_1BG@OBCNFJB@?$AAs?$AAr?$AA?9?$AAB?$AAA?$AA?9?$AAL?$AAa?$AAt?$AAn@ 000000014007dbc8     libucrtd:lcidtoname_downlevel.obj
 0002:00018be0       ??_C@_1O@KEMEEGPO@?$AAs?$AAm?$AAa?$AA?9?$AAN?$AAO@ 000000014007dbe0     libucrtd:lcidtoname_downlevel.obj
 0002:00018bf0       ??_C@_1M@ELMGFODK@?$AAa?$AAr?$AA?9?$AAT?$AAN@ 000000014007dbf0     libucrtd:lcidtoname_downlevel.obj
 0002:00018c00       ??_C@_1M@BHDLHFAF@?$AAe?$AAn?$AA?9?$AAZ?$AAA@ 000000014007dc00     libucrtd:lcidtoname_downlevel.obj
 0002:00018c10       ??_C@_1M@BMGIGLIF@?$AAe?$AAs?$AA?9?$AAD?$AAO@ 000000014007dc10     libucrtd:lcidtoname_downlevel.obj
 0002:00018c20       ??_C@_1BG@CMBHIPBE@?$AAs?$AAr?$AA?9?$AAB?$AAA?$AA?9?$AAC?$AAy?$AAr?$AAl@ 000000014007dc20     libucrtd:lcidtoname_downlevel.obj
 0002:00018c38       ??_C@_1O@HEDBLHNP@?$AAs?$AAm?$AAa?$AA?9?$AAS?$AAE@ 000000014007dc38     libucrtd:lcidtoname_downlevel.obj
 0002:00018c48       ??_C@_1M@DAGCADIM@?$AAa?$AAr?$AA?9?$AAO?$AAM@ 000000014007dc48     libucrtd:lcidtoname_downlevel.obj
 0002:00018c58       ??_C@_1M@FODLMICG@?$AAe?$AAn?$AA?9?$AAJ?$AAM@ 000000014007dc58     libucrtd:lcidtoname_downlevel.obj
 0002:00018c68       ??_C@_1M@DNMLCIHB@?$AAe?$AAs?$AA?9?$AAV?$AAE@ 000000014007dc68     libucrtd:lcidtoname_downlevel.obj
 0002:00018c78       ??_C@_1O@EOKHMKJK@?$AAs?$AAm?$AAs?$AA?9?$AAF?$AAI@ 000000014007dc78     libucrtd:lcidtoname_downlevel.obj
 0002:00018c88       ??_C@_1M@CAFJMKOF@?$AAa?$AAr?$AA?9?$AAY?$AAE@ 000000014007dc88     libucrtd:lcidtoname_downlevel.obj
 0002:00018c98       ??_C@_1M@CBFHIJLI@?$AAe?$AAn?$AA?9?$AAC?$AAB@ 000000014007dc98     libucrtd:lcidtoname_downlevel.obj
 0002:00018ca8       ??_C@_1M@BGNFLDN@?$AAe?$AAs?$AA?9?$AAC?$AAO@ 000000014007dca8     libucrtd:lcidtoname_downlevel.obj
 0002:00018cb8       ??_C@_1O@JMPHMAMC@?$AAs?$AAm?$AAn?$AA?9?$AAF?$AAI@ 000000014007dcb8     libucrtd:lcidtoname_downlevel.obj
 0002:00018cc8       ??_C@_1M@JLANABKE@?$AAa?$AAr?$AA?9?$AAS?$AAY@ 000000014007dcc8     libucrtd:lcidtoname_downlevel.obj
 0002:00018cd8       ??_C@_1M@HPKGCFGN@?$AAe?$AAn?$AA?9?$AAB?$AAZ@ 000000014007dcd8     libucrtd:lcidtoname_downlevel.obj
 0002:00018ce8       ??_C@_1M@OLJCMLGM@?$AAe?$AAs?$AA?9?$AAP?$AAE@ 000000014007dce8     libucrtd:lcidtoname_downlevel.obj
 0002:00018cf8       ??_C@_1M@MKKGFKLE@?$AAa?$AAr?$AA?9?$AAJ?$AAO@ 000000014007dcf8     libucrtd:lcidtoname_downlevel.obj
 0002:00018d08       ??_C@_1M@EKPGLDNI@?$AAe?$AAn?$AA?9?$AAT?$AAT@ 000000014007dd08     libucrtd:lcidtoname_downlevel.obj
 0002:00018d18       ??_C@_1M@OONGHFHE@?$AAe?$AAs?$AA?9?$AAA?$AAR@ 000000014007dd18     libucrtd:lcidtoname_downlevel.obj
 0002:00018d28       ??_C@_1M@OOJFGBHE@?$AAa?$AAr?$AA?9?$AAL?$AAB@ 000000014007dd28     libucrtd:lcidtoname_downlevel.obj
 0002:00018d38       ??_C@_1M@GCEJHNEG@?$AAe?$AAn?$AA?9?$AAZ?$AAW@ 000000014007dd38     libucrtd:lcidtoname_downlevel.obj
 0002:00018d48       ??_C@_1M@JNOCAHJI@?$AAe?$AAs?$AA?9?$AAE?$AAC@ 000000014007dd48     libucrtd:lcidtoname_downlevel.obj
 0002:00018d58       ??_C@_1M@JEFHPGGB@?$AAa?$AAr?$AA?9?$AAK?$AAW@ 000000014007dd58     libucrtd:lcidtoname_downlevel.obj
 0002:00018d68       ??_C@_1M@MLKIBJOJ@?$AAe?$AAn?$AA?9?$AAP?$AAH@ 000000014007dd68     libucrtd:lcidtoname_downlevel.obj
 0002:00018d78       ??_C@_1M@BDNIPEND@?$AAe?$AAs?$AA?9?$AAC?$AAL@ 000000014007dd78     libucrtd:lcidtoname_downlevel.obj
 0002:00018d88       ??_C@_1M@MPNMEKBD@?$AAa?$AAr?$AA?9?$AAA?$AAE@ 000000014007dd88     libucrtd:lcidtoname_downlevel.obj
 0002:00018d98       ??_C@_1M@KBJALCPI@?$AAe?$AAs?$AA?9?$AAU?$AAY@ 000000014007dd98     libucrtd:lcidtoname_downlevel.obj
 0002:00018da8       ??_C@_1M@LLCCOAGA@?$AAa?$AAr?$AA?9?$AAB?$AAH@ 000000014007dda8     libucrtd:lcidtoname_downlevel.obj
 0002:00018db8       ??_C@_1M@PBFNCDEL@?$AAe?$AAs?$AA?9?$AAP?$AAY@ 000000014007ddb8     libucrtd:lcidtoname_downlevel.obj
 0002:00018dc8       ??_C@_1M@EDGINPNP@?$AAa?$AAr?$AA?9?$AAQ?$AAA@ 000000014007ddc8     libucrtd:lcidtoname_downlevel.obj
 0002:00018dd8       ??_C@_1M@MKDBIIJI@?$AAe?$AAs?$AA?9?$AAB?$AAO@ 000000014007ddd8     libucrtd:lcidtoname_downlevel.obj
 0002:00018de8       ??_C@_1M@CPKKEBLD@?$AAe?$AAs?$AA?9?$AAS?$AAV@ 000000014007dde8     libucrtd:lcidtoname_downlevel.obj
 0002:00018df8       ??_C@_1M@NDBGMMJL@?$AAe?$AAs?$AA?9?$AAH?$AAN@ 000000014007ddf8     libucrtd:lcidtoname_downlevel.obj
 0002:00018e08       ??_C@_1M@JIJIBHDP@?$AAe?$AAs?$AA?9?$AAN?$AAI@ 000000014007de08     libucrtd:lcidtoname_downlevel.obj
 0002:00018e18       ??_C@_1M@CGFMKEEK@?$AAe?$AAs?$AA?9?$AAP?$AAR@ 000000014007de18     libucrtd:lcidtoname_downlevel.obj
 0002:00018e28       ??_C@_1O@ICJHKIIK@?$AAz?$AAh?$AA?9?$AAC?$AAH?$AAT@ 000000014007de28     libucrtd:lcidtoname_downlevel.obj
 0002:00018e38       ??_C@_15CLNEJCE@?$AAs?$AAr@ 000000014007de38     libucrtd:lcidtoname_downlevel.obj
 0002:00019c80       ??_C@_1M@KAHEKEIG@?$AAa?$AAf?$AA?9?$AAz?$AAa@ 000000014007ec80     libucrtd:lcidtoname_downlevel.obj
 0002:00019c90       ??_C@_1M@GIECOABL@?$AAa?$AAr?$AA?9?$AAa?$AAe@ 000000014007ec90     libucrtd:lcidtoname_downlevel.obj
 0002:00019ca0       ??_C@_1M@BMLMEKGI@?$AAa?$AAr?$AA?9?$AAb?$AAh@ 000000014007eca0     libucrtd:lcidtoname_downlevel.obj
 0002:00019cb0       ??_C@_1M@DAPFDGGB@?$AAa?$AAr?$AA?9?$AAd?$AAz@ 000000014007ecb0     libucrtd:lcidtoname_downlevel.obj
 0002:00019cc0       ??_C@_1M@FJNKGKIG@?$AAa?$AAr?$AA?9?$AAe?$AAg@ 000000014007ecc0     libucrtd:lcidtoname_downlevel.obj
 0002:00019cd0       ??_C@_1M@FLGKKCLO@?$AAa?$AAr?$AA?9?$AAi?$AAq@ 000000014007ecd0     libucrtd:lcidtoname_downlevel.obj
 0002:00019ce0       ??_C@_1M@GNDIPALM@?$AAa?$AAr?$AA?9?$AAj?$AAo@ 000000014007ece0     libucrtd:lcidtoname_downlevel.obj
 0002:00019cf0       ??_C@_1M@DDMJFMGJ@?$AAa?$AAr?$AA?9?$AAk?$AAw@ 000000014007ecf0     libucrtd:lcidtoname_downlevel.obj
 0002:00019d00       ??_C@_1M@EJALMLHM@?$AAa?$AAr?$AA?9?$AAl?$AAb@ 000000014007ed00     libucrtd:lcidtoname_downlevel.obj
 0002:00019d10       ??_C@_1M@MOBDBLOC@?$AAa?$AAr?$AA?9?$AAl?$AAy@ 000000014007ed10     libucrtd:lcidtoname_downlevel.obj
 0002:00019d20       ??_C@_1M@JAOCLHDH@?$AAa?$AAr?$AA?9?$AAm?$AAa@ 000000014007ed20     libucrtd:lcidtoname_downlevel.obj
 0002:00019d30       ??_C@_1M@JHPMKJIE@?$AAa?$AAr?$AA?9?$AAo?$AAm@ 000000014007ed30     libucrtd:lcidtoname_downlevel.obj
 0002:00019d40       ??_C@_1M@OEPGHFNH@?$AAa?$AAr?$AA?9?$AAq?$AAa@ 000000014007ed40     libucrtd:lcidtoname_downlevel.obj
 0002:00019d50       ??_C@_1M@KJDONENM@?$AAa?$AAr?$AA?9?$AAs?$AAa@ 000000014007ed50     libucrtd:lcidtoname_downlevel.obj
 0002:00019d60       ??_C@_1M@DMJDKLKM@?$AAa?$AAr?$AA?9?$AAs?$AAy@ 000000014007ed60     libucrtd:lcidtoname_downlevel.obj
 0002:00019d70       ??_C@_1M@OMFIPEDC@?$AAa?$AAr?$AA?9?$AAt?$AAn@ 000000014007ed70     libucrtd:lcidtoname_downlevel.obj
 0002:00019d80       ??_C@_1M@IHMHGAON@?$AAa?$AAr?$AA?9?$AAy?$AAe@ 000000014007ed80     libucrtd:lcidtoname_downlevel.obj
 0002:00019d90       ??_C@_1BG@KDCPGJGB@?$AAa?$AAz?$AA?9?$AAa?$AAz?$AA?9?$AAc?$AAy?$AAr?$AAl@ 000000014007ed90     libucrtd:lcidtoname_downlevel.obj
 0002:00019da8       ??_C@_1BG@IBCKDDOE@?$AAa?$AAz?$AA?9?$AAa?$AAz?$AA?9?$AAl?$AAa?$AAt?$AAn@ 000000014007eda8     libucrtd:lcidtoname_downlevel.obj
 0002:00019dc0       ??_C@_1M@EGPFDCPD@?$AAb?$AAe?$AA?9?$AAb?$AAy@ 000000014007edc0     libucrtd:lcidtoname_downlevel.obj
 0002:00019dd0       ??_C@_1M@PCMGMCGC@?$AAb?$AAg?$AA?9?$AAb?$AAg@ 000000014007edd0     libucrtd:lcidtoname_downlevel.obj
 0002:00019de0       ??_C@_1M@BJBMFGOB@?$AAb?$AAn?$AA?9?$AAi?$AAn@ 000000014007ede0     libucrtd:lcidtoname_downlevel.obj
 0002:00019df0       ??_C@_1BG@EAKMMACD@?$AAb?$AAs?$AA?9?$AAb?$AAa?$AA?9?$AAl?$AAa?$AAt?$AAn@ 000000014007edf0     libucrtd:lcidtoname_downlevel.obj
 0002:00019e08       ??_C@_1M@KGADAODK@?$AAc?$AAa?$AA?9?$AAe?$AAs@ 000000014007ee08     libucrtd:lcidtoname_downlevel.obj
 0002:00019e18       ??_C@_1M@COAJPDHI@?$AAc?$AAs?$AA?9?$AAc?$AAz@ 000000014007ee18     libucrtd:lcidtoname_downlevel.obj
 0002:00019e28       ??_C@_1M@DHBHFONH@?$AAc?$AAy?$AA?9?$AAg?$AAb@ 000000014007ee28     libucrtd:lcidtoname_downlevel.obj
 0002:00019e38       ??_C@_1M@IMGKELGA@?$AAd?$AAa?$AA?9?$AAd?$AAk@ 000000014007ee38     libucrtd:lcidtoname_downlevel.obj
 0002:00019e48       ??_C@_1M@NNDGDNGA@?$AAd?$AAe?$AA?9?$AAa?$AAt@ 000000014007ee48     libucrtd:lcidtoname_downlevel.obj
 0002:00019e58       ??_C@_1M@IKDBHEEM@?$AAd?$AAe?$AA?9?$AAc?$AAh@ 000000014007ee58     libucrtd:lcidtoname_downlevel.obj
 0002:00019e68       ??_C@_1M@GFFOJMCJ@?$AAd?$AAe?$AA?9?$AAd?$AAe@ 000000014007ee68     libucrtd:lcidtoname_downlevel.obj
 0002:00019e78       ??_C@_1M@MDNLKBPM@?$AAd?$AAe?$AA?9?$AAl?$AAi@ 000000014007ee78     libucrtd:lcidtoname_downlevel.obj
 0002:00019e88       ??_C@_1M@NJBEEJNL@?$AAd?$AAe?$AA?9?$AAl?$AAu@ 000000014007ee88     libucrtd:lcidtoname_downlevel.obj
 0002:00019e98       ??_C@_1O@GNNELBAP@?$AAd?$AAi?$AAv?$AA?9?$AAm?$AAv@ 000000014007ee98     libucrtd:lcidtoname_downlevel.obj
 0002:00019ea8       ??_C@_1M@EJLEOGAE@?$AAe?$AAl?$AA?9?$AAg?$AAr@ 000000014007eea8     libucrtd:lcidtoname_downlevel.obj
 0002:00019eb8       ??_C@_1M@GMPONJN@?$AAe?$AAn?$AA?9?$AAa?$AAu@ 000000014007eeb8     libucrtd:lcidtoname_downlevel.obj
 0002:00019ec8       ??_C@_1M@NIDIIPGF@?$AAe?$AAn?$AA?9?$AAb?$AAz@ 000000014007eec8     libucrtd:lcidtoname_downlevel.obj
 0002:00019ed8       ??_C@_1M@JEHMIMFO@?$AAe?$AAn?$AA?9?$AAc?$AAa@ 000000014007eed8     libucrtd:lcidtoname_downlevel.obj
 0002:00019ee8       ??_C@_1M@IGMJCDLA@?$AAe?$AAn?$AA?9?$AAc?$AAb@ 000000014007eee8     libucrtd:lcidtoname_downlevel.obj
 0002:00019ef8       ??_C@_1M@BNFIGBKG@?$AAe?$AAn?$AA?9?$AAg?$AAb@ 000000014007eef8     libucrtd:lcidtoname_downlevel.obj
 0002:00019f08       ??_C@_1M@LKIFDIGP@?$AAe?$AAn?$AA?9?$AAi?$AAe@ 000000014007ef08     libucrtd:lcidtoname_downlevel.obj
 0002:00019f18       ??_C@_1M@PJKFGCCO@?$AAe?$AAn?$AA?9?$AAj?$AAm@ 000000014007ef18     libucrtd:lcidtoname_downlevel.obj
 0002:00019f28       ??_C@_1M@KPPKEPBO@?$AAe?$AAn?$AA?9?$AAn?$AAz@ 000000014007ef28     libucrtd:lcidtoname_downlevel.obj
 0002:00019f38       ??_C@_1M@GMDGLDOB@?$AAe?$AAn?$AA?9?$AAp?$AAh@ 000000014007ef38     libucrtd:lcidtoname_downlevel.obj
 0002:00019f48       ??_C@_1M@ONGIBJNA@?$AAe?$AAn?$AA?9?$AAt?$AAt@ 000000014007ef48     libucrtd:lcidtoname_downlevel.obj
 0002:00019f58       ??_C@_1M@LLODPCMM@?$AAe?$AAn?$AA?9?$AAu?$AAs@ 000000014007ef58     libucrtd:lcidtoname_downlevel.obj
 0002:00019f68       ??_C@_1M@LAKFNPAN@?$AAe?$AAn?$AA?9?$AAz?$AAa@ 000000014007ef68     libucrtd:lcidtoname_downlevel.obj
 0002:00019f78       ??_C@_1M@MFNHNHEO@?$AAe?$AAn?$AA?9?$AAz?$AAw@ 000000014007ef78     libucrtd:lcidtoname_downlevel.obj
 0002:00019f88       ??_C@_1M@EJEINPHM@?$AAe?$AAs?$AA?9?$AAa?$AAr@ 000000014007ef88     libucrtd:lcidtoname_downlevel.obj
 0002:00019f98       ??_C@_1M@GNKPCCJA@?$AAe?$AAs?$AA?9?$AAb?$AAo@ 000000014007ef98     libucrtd:lcidtoname_downlevel.obj
 0002:00019fa8       ??_C@_1M@LEEGFONL@?$AAe?$AAs?$AA?9?$AAc?$AAl@ 000000014007efa8     libucrtd:lcidtoname_downlevel.obj
 0002:00019fb8       ??_C@_1M@KGPDPBDF@?$AAe?$AAs?$AA?9?$AAc?$AAo@ 000000014007efb8     libucrtd:lcidtoname_downlevel.obj
 0002:00019fc8       ??_C@_1M@EIAHOHH@?$AAe?$AAs?$AA?9?$AAc?$AAr@ 000000014007efc8     libucrtd:lcidtoname_downlevel.obj
 0002:00019fd8       ??_C@_1M@LLPGMBIN@?$AAe?$AAs?$AA?9?$AAd?$AAo@ 000000014007efd8     libucrtd:lcidtoname_downlevel.obj
 0002:00019fe8       ??_C@_1M@DKHMKNJA@?$AAe?$AAs?$AA?9?$AAe?$AAc@ 000000014007efe8     libucrtd:lcidtoname_downlevel.obj
 0002:00019ff8       ??_C@_1M@GKGFPKAP@?$AAe?$AAs?$AA?9?$AAe?$AAs@ 000000014007eff8     libucrtd:lcidtoname_downlevel.obj
 0002:0001a008       ??_C@_1M@LKHKGDLN@?$AAe?$AAs?$AA?9?$AAg?$AAt@ 000000014007f008     libucrtd:lcidtoname_downlevel.obj
 0002:0001a018       ??_C@_1M@HEIIGGJD@?$AAe?$AAs?$AA?9?$AAh?$AAn@ 000000014007f018     libucrtd:lcidtoname_downlevel.obj
 0002:0001a028       ??_C@_1M@FBDHPPGD@?$AAe?$AAs?$AA?9?$AAm?$AAx@ 000000014007f028     libucrtd:lcidtoname_downlevel.obj
 0002:0001a038       ??_C@_1M@DPAGLNDH@?$AAe?$AAs?$AA?9?$AAn?$AAi@ 000000014007f038     libucrtd:lcidtoname_downlevel.obj
 0002:0001a048       ??_C@_1M@MDGOPGDD@?$AAe?$AAs?$AA?9?$AAp?$AAa@ 000000014007f048     libucrtd:lcidtoname_downlevel.obj
 0002:0001a058       ??_C@_1M@EMAMGBGE@?$AAe?$AAs?$AA?9?$AAp?$AAe@ 000000014007f058     libucrtd:lcidtoname_downlevel.obj
 0002:0001a068       ??_C@_1M@IBMCAOEC@?$AAe?$AAs?$AA?9?$AAp?$AAr@ 000000014007f068     libucrtd:lcidtoname_downlevel.obj
 0002:0001a078       ??_C@_1M@FGMDIJED@?$AAe?$AAs?$AA?9?$AAp?$AAy@ 000000014007f078     libucrtd:lcidtoname_downlevel.obj
 0002:0001a088       ??_C@_1M@IIDEOLLL@?$AAe?$AAs?$AA?9?$AAs?$AAv@ 000000014007f088     libucrtd:lcidtoname_downlevel.obj
 0002:0001a098       ??_C@_1M@GAOBIPA@?$AAe?$AAs?$AA?9?$AAu?$AAy@ 000000014007f098     libucrtd:lcidtoname_downlevel.obj
 0002:0001a0a8       ??_C@_1M@JKFFICHJ@?$AAe?$AAs?$AA?9?$AAv?$AAe@ 000000014007f0a8     libucrtd:lcidtoname_downlevel.obj
 0002:0001a0b8       ??_C@_1M@PNMLOJDF@?$AAe?$AAt?$AA?9?$AAe?$AAe@ 000000014007f0b8     libucrtd:lcidtoname_downlevel.obj
 0002:0001a0c8       ??_C@_1M@GHHLIKEI@?$AAe?$AAu?$AA?9?$AAe?$AAs@ 000000014007f0c8     libucrtd:lcidtoname_downlevel.obj
 0002:0001a0d8       ??_C@_1M@PBNONODE@?$AAf?$AAa?$AA?9?$AAi?$AAr@ 000000014007f0d8     libucrtd:lcidtoname_downlevel.obj
 0002:0001a0e8       ??_C@_1M@JEEHPMIL@?$AAf?$AAi?$AA?9?$AAf?$AAi@ 000000014007f0e8     libucrtd:lcidtoname_downlevel.obj
 0002:0001a0f8       ??_C@_1M@LMDCNDBA@?$AAf?$AAo?$AA?9?$AAf?$AAo@ 000000014007f0f8     libucrtd:lcidtoname_downlevel.obj
 0002:0001a108       ??_C@_1M@JKEOHLDK@?$AAf?$AAr?$AA?9?$AAb?$AAe@ 000000014007f108     libucrtd:lcidtoname_downlevel.obj
 0002:0001a118       ??_C@_1M@NOHADPMI@?$AAf?$AAr?$AA?9?$AAc?$AAa@ 000000014007f118     libucrtd:lcidtoname_downlevel.obj
 0002:0001a128       ??_C@_1M@KDHIHAEC@?$AAf?$AAr?$AA?9?$AAc?$AAh@ 000000014007f128     libucrtd:lcidtoname_downlevel.obj
 0002:0001a138       ??_C@_1M@MMBBFGAK@?$AAf?$AAr?$AA?9?$AAf?$AAr@ 000000014007f138     libucrtd:lcidtoname_downlevel.obj
 0002:0001a148       ??_C@_1M@PAFNENNF@?$AAf?$AAr?$AA?9?$AAl?$AAu@ 000000014007f148     libucrtd:lcidtoname_downlevel.obj
 0002:0001a158       ??_C@_1M@EOHDJGDD@?$AAf?$AAr?$AA?9?$AAm?$AAc@ 000000014007f158     libucrtd:lcidtoname_downlevel.obj
 0002:0001a168       ??_C@_1M@FAPLLOPF@?$AAg?$AAl?$AA?9?$AAe?$AAs@ 000000014007f168     libucrtd:lcidtoname_downlevel.obj
 0002:0001a178       ??_C@_1M@FOPBFLOO@?$AAg?$AAu?$AA?9?$AAi?$AAn@ 000000014007f178     libucrtd:lcidtoname_downlevel.obj
 0002:0001a188       ??_C@_1M@KBMCINPM@?$AAh?$AAe?$AA?9?$AAi?$AAl@ 000000014007f188     libucrtd:lcidtoname_downlevel.obj
 0002:0001a198       ??_C@_1M@BBPHKFPJ@?$AAh?$AAi?$AA?9?$AAi?$AAn@ 000000014007f198     libucrtd:lcidtoname_downlevel.obj
 0002:0001a1a8       ??_C@_1M@PMBNDPHD@?$AAh?$AAr?$AA?9?$AAb?$AAa@ 000000014007f1a8     libucrtd:lcidtoname_downlevel.obj
 0002:0001a1b8       ??_C@_1M@BPCKOEGE@?$AAh?$AAr?$AA?9?$AAh?$AAr@ 000000014007f1b8     libucrtd:lcidtoname_downlevel.obj
 0002:0001a1c8       ??_C@_1M@GACBMHKE@?$AAh?$AAu?$AA?9?$AAh?$AAu@ 000000014007f1c8     libucrtd:lcidtoname_downlevel.obj
 0002:0001a1d8       ??_C@_1M@MILPAJJC@?$AAh?$AAy?$AA?9?$AAa?$AAm@ 000000014007f1d8     libucrtd:lcidtoname_downlevel.obj
 0002:0001a1e8       ??_C@_1M@BABBICEC@?$AAi?$AAd?$AA?9?$AAi?$AAd@ 000000014007f1e8     libucrtd:lcidtoname_downlevel.obj
 0002:0001a1f8       ??_C@_1M@BIKNHHPF@?$AAi?$AAs?$AA?9?$AAi?$AAs@ 000000014007f1f8     libucrtd:lcidtoname_downlevel.obj
 0002:0001a208       ??_C@_1M@NMPCJPHE@?$AAi?$AAt?$AA?9?$AAc?$AAh@ 000000014007f208     libucrtd:lcidtoname_downlevel.obj
 0002:0001a218       ??_C@_1M@GHKGFEDF@?$AAi?$AAt?$AA?9?$AAi?$AAt@ 000000014007f218     libucrtd:lcidtoname_downlevel.obj
 0002:0001a228       ??_C@_1M@NIEJCJJA@?$AAj?$AAa?$AA?9?$AAj?$AAp@ 000000014007f228     libucrtd:lcidtoname_downlevel.obj
 0002:0001a238       ??_C@_1M@JILFNBIM@?$AAk?$AAa?$AA?9?$AAg?$AAe@ 000000014007f238     libucrtd:lcidtoname_downlevel.obj
 0002:0001a248       ??_C@_1M@PACPMGPH@?$AAk?$AAk?$AA?9?$AAk?$AAz@ 000000014007f248     libucrtd:lcidtoname_downlevel.obj
 0002:0001a258       ??_C@_1M@IELFGMHA@?$AAk?$AAn?$AA?9?$AAi?$AAn@ 000000014007f258     libucrtd:lcidtoname_downlevel.obj
 0002:0001a268       ??_C@_1O@IBBJHCH@?$AAk?$AAo?$AAk?$AA?9?$AAi?$AAn@ 000000014007f268     libucrtd:lcidtoname_downlevel.obj
 0002:0001a278       ??_C@_1M@DMHAEOGC@?$AAk?$AAo?$AA?9?$AAk?$AAr@ 000000014007f278     libucrtd:lcidtoname_downlevel.obj
 0002:0001a288       ??_C@_1M@HBAHBIGA@?$AAk?$AAy?$AA?9?$AAk?$AAg@ 000000014007f288     libucrtd:lcidtoname_downlevel.obj
 0002:0001a298       ??_C@_1M@KPMILCJG@?$AAl?$AAt?$AA?9?$AAl?$AAt@ 000000014007f298     libucrtd:lcidtoname_downlevel.obj
 0002:0001a2a8       ??_C@_1M@BDEKKCA@?$AAl?$AAv?$AA?9?$AAl?$AAv@ 000000014007f2a8     libucrtd:lcidtoname_downlevel.obj
 0002:0001a2b8       ??_C@_1M@ELCKCCJJ@?$AAm?$AAi?$AA?9?$AAn?$AAz@ 000000014007f2b8     libucrtd:lcidtoname_downlevel.obj
 0002:0001a2c8       ??_C@_1M@CBOOLAPA@?$AAm?$AAk?$AA?9?$AAm?$AAk@ 000000014007f2c8     libucrtd:lcidtoname_downlevel.obj
 0002:0001a2d8       ??_C@_1M@GPHNBJKN@?$AAm?$AAl?$AA?9?$AAi?$AAn@ 000000014007f2d8     libucrtd:lcidtoname_downlevel.obj
 0002:0001a2e8       ??_C@_1M@PABJILIG@?$AAm?$AAn?$AA?9?$AAm?$AAn@ 000000014007f2e8     libucrtd:lcidtoname_downlevel.obj
 0002:0001a2f8       ??_C@_1M@FGBKKIPG@?$AAm?$AAr?$AA?9?$AAi?$AAn@ 000000014007f2f8     libucrtd:lcidtoname_downlevel.obj
 0002:0001a308       ??_C@_1M@NDBPDDAL@?$AAm?$AAs?$AA?9?$AAb?$AAn@ 000000014007f308     libucrtd:lcidtoname_downlevel.obj
 0002:0001a318       ??_C@_1M@OPIHOOPI@?$AAm?$AAs?$AA?9?$AAm?$AAy@ 000000014007f318     libucrtd:lcidtoname_downlevel.obj
 0002:0001a328       ??_C@_1M@PPDBCNFM@?$AAm?$AAt?$AA?9?$AAm?$AAt@ 000000014007f328     libucrtd:lcidtoname_downlevel.obj
 0002:0001a338       ??_C@_1M@KDJDKMDD@?$AAn?$AAb?$AA?9?$AAn?$AAo@ 000000014007f338     libucrtd:lcidtoname_downlevel.obj
 0002:0001a348       ??_C@_1M@KFCFLMJP@?$AAn?$AAl?$AA?9?$AAb?$AAe@ 000000014007f348     libucrtd:lcidtoname_downlevel.obj
 0002:0001a358       ??_C@_1M@KPOPDDGO@?$AAn?$AAl?$AA?9?$AAn?$AAl@ 000000014007f358     libucrtd:lcidtoname_downlevel.obj
 0002:0001a368       ??_C@_1M@LJKPEMLN@?$AAn?$AAn?$AA?9?$AAn?$AAo@ 000000014007f368     libucrtd:lcidtoname_downlevel.obj
 0002:0001a378       ??_C@_1M@BDGHHBFL@?$AAn?$AAs?$AA?9?$AAz?$AAa@ 000000014007f378     libucrtd:lcidtoname_downlevel.obj
 0002:0001a388       ??_C@_1M@IDEHOAP@?$AAp?$AAa?$AA?9?$AAi?$AAn@ 000000014007f388     libucrtd:lcidtoname_downlevel.obj
 0002:0001a398       ??_C@_1M@HDBKGOGH@?$AAp?$AAl?$AA?9?$AAp?$AAl@ 000000014007f398     libucrtd:lcidtoname_downlevel.obj
 0002:0001a3a8       ??_C@_1M@LJLLCMEH@?$AAp?$AAt?$AA?9?$AAb?$AAr@ 000000014007f3a8     libucrtd:lcidtoname_downlevel.obj
 0002:0001a3b8       ??_C@_1M@NCMONAAL@?$AAp?$AAt?$AA?9?$AAp?$AAt@ 000000014007f3b8     libucrtd:lcidtoname_downlevel.obj
 0002:0001a3c8       ??_C@_1O@EAKMAJDN@?$AAq?$AAu?$AAz?$AA?9?$AAb?$AAo@ 000000014007f3c8     libucrtd:lcidtoname_downlevel.obj
 0002:0001a3d8       ??_C@_1O@BHHPIGDN@?$AAq?$AAu?$AAz?$AA?9?$AAe?$AAc@ 000000014007f3d8     libucrtd:lcidtoname_downlevel.obj
 0002:0001a3e8       ??_C@_1O@GBAPEKMJ@?$AAq?$AAu?$AAz?$AA?9?$AAp?$AAe@ 000000014007f3e8     libucrtd:lcidtoname_downlevel.obj
 0002:0001a3f8       ??_C@_1M@CLGLEFBO@?$AAr?$AAo?$AA?9?$AAr?$AAo@ 000000014007f3f8     libucrtd:lcidtoname_downlevel.obj
 0002:0001a408       ??_C@_1M@CEEDODME@?$AAr?$AAu?$AA?9?$AAr?$AAu@ 000000014007f408     libucrtd:lcidtoname_downlevel.obj
 0002:0001a418       ??_C@_1M@HPKKKMPP@?$AAs?$AAa?$AA?9?$AAi?$AAn@ 000000014007f418     libucrtd:lcidtoname_downlevel.obj
 0002:0001a428       ??_C@_1M@BKMAIGOJ@?$AAs?$AAe?$AA?9?$AAf?$AAi@ 000000014007f428     libucrtd:lcidtoname_downlevel.obj
 0002:0001a438       ??_C@_1M@NDPIFLFI@?$AAs?$AAe?$AA?9?$AAn?$AAo@ 000000014007f438     libucrtd:lcidtoname_downlevel.obj
 0002:0001a448       ??_C@_1M@DANKKHJ@?$AAs?$AAe?$AA?9?$AAs?$AAe@ 000000014007f448     libucrtd:lcidtoname_downlevel.obj
 0002:0001a458       ??_C@_1M@PNBLONPJ@?$AAs?$AAk?$AA?9?$AAs?$AAk@ 000000014007f458     libucrtd:lcidtoname_downlevel.obj
 0002:0001a468       ??_C@_1M@LFMODOAL@?$AAs?$AAl?$AA?9?$AAs?$AAi@ 000000014007f468     libucrtd:lcidtoname_downlevel.obj
 0002:0001a478       ??_C@_1O@DFKOMPG@?$AAs?$AAm?$AAa?$AA?9?$AAn?$AAo@ 000000014007f478     libucrtd:lcidtoname_downlevel.obj
 0002:0001a488       ??_C@_1O@NDKPBNNH@?$AAs?$AAm?$AAa?$AA?9?$AAs?$AAe@ 000000014007f488     libucrtd:lcidtoname_downlevel.obj
 0002:0001a498       ??_C@_1O@PLLKBHAB@?$AAs?$AAm?$AAj?$AA?9?$AAn?$AAo@ 000000014007f498     libucrtd:lcidtoname_downlevel.obj
 0002:0001a4a8       ??_C@_1O@CLEPOGCA@?$AAs?$AAm?$AAj?$AA?9?$AAs?$AAe@ 000000014007f4a8     libucrtd:lcidtoname_downlevel.obj
 0002:0001a4b8       ??_C@_1O@DLGJGKMK@?$AAs?$AAm?$AAn?$AA?9?$AAf?$AAi@ 000000014007f4b8     libucrtd:lcidtoname_downlevel.obj
 0002:0001a4c8       ??_C@_1O@OJDJGAJC@?$AAs?$AAm?$AAs?$AA?9?$AAf?$AAi@ 000000014007f4c8     libucrtd:lcidtoname_downlevel.obj
 0002:0001a4d8       ??_C@_1M@BOFOGHPB@?$AAs?$AAq?$AA?9?$AAa?$AAl@ 000000014007f4d8     libucrtd:lcidtoname_downlevel.obj
 0002:0001a4e8       ??_C@_1BG@LJBBIPGB@?$AAs?$AAr?$AA?9?$AAb?$AAa?$AA?9?$AAc?$AAy?$AAr?$AAl@ 000000014007f4e8     libucrtd:lcidtoname_downlevel.obj
 0002:0001a500       ??_C@_1BG@JLBENFOE@?$AAs?$AAr?$AA?9?$AAb?$AAa?$AA?9?$AAl?$AAa?$AAt?$AAn@ 000000014007f500     libucrtd:lcidtoname_downlevel.obj
 0002:0001a518       ??_C@_1BG@KODPNHE@?$AAs?$AAr?$AA?9?$AAs?$AAp?$AA?9?$AAc?$AAy?$AAr?$AAl@ 000000014007f518     libucrtd:lcidtoname_downlevel.obj
 0002:0001a530       ??_C@_1BG@CIOGKHPB@?$AAs?$AAr?$AA?9?$AAs?$AAp?$AA?9?$AAl?$AAa?$AAt?$AAn@ 000000014007f530     libucrtd:lcidtoname_downlevel.obj
 0002:0001a548       ??_C@_1M@NGFJLMAC@?$AAs?$AAv?$AA?9?$AAf?$AAi@ 000000014007f548     libucrtd:lcidtoname_downlevel.obj
 0002:0001a558       ??_C@_1M@MPJEJAJC@?$AAs?$AAv?$AA?9?$AAs?$AAe@ 000000014007f558     libucrtd:lcidtoname_downlevel.obj
 0002:0001a568       ??_C@_1M@MPNDHLFK@?$AAs?$AAw?$AA?9?$AAk?$AAe@ 000000014007f568     libucrtd:lcidtoname_downlevel.obj
 0002:0001a578       ??_C@_1O@KOHBJJI@?$AAs?$AAy?$AAr?$AA?9?$AAs?$AAy@ 000000014007f578     libucrtd:lcidtoname_downlevel.obj
 0002:0001a588       ??_C@_1M@LDCEFHA@?$AAt?$AAa?$AA?9?$AAi?$AAn@ 000000014007f588     libucrtd:lcidtoname_downlevel.obj
 0002:0001a598       ??_C@_1M@CNJOFAK@?$AAt?$AAe?$AA?9?$AAi?$AAn@ 000000014007f598     libucrtd:lcidtoname_downlevel.obj
 0002:0001a5a8       ??_C@_1M@GNAECACD@?$AAt?$AAh?$AA?9?$AAt?$AAh@ 000000014007f5a8     libucrtd:lcidtoname_downlevel.obj
 0002:0001a5b8       ??_C@_1M@CHBIHOJO@?$AAt?$AAn?$AA?9?$AAz?$AAa@ 000000014007f5b8     libucrtd:lcidtoname_downlevel.obj
 0002:0001a5c8       ??_C@_1M@GCCMIGPJ@?$AAt?$AAr?$AA?9?$AAt?$AAr@ 000000014007f5c8     libucrtd:lcidtoname_downlevel.obj
 0002:0001a5d8       ??_C@_1M@CELMCNBK@?$AAt?$AAt?$AA?9?$AAr?$AAu@ 000000014007f5d8     libucrtd:lcidtoname_downlevel.obj
 0002:0001a5e8       ??_C@_1M@KLMCELGA@?$AAu?$AAk?$AA?9?$AAu?$AAa@ 000000014007f5e8     libucrtd:lcidtoname_downlevel.obj
 0002:0001a5f8       ??_C@_1M@EPAJJAJF@?$AAu?$AAr?$AA?9?$AAp?$AAk@ 000000014007f5f8     libucrtd:lcidtoname_downlevel.obj
 0002:0001a608       ??_C@_1BG@GEGPMCDJ@?$AAu?$AAz?$AA?9?$AAu?$AAz?$AA?9?$AAc?$AAy?$AAr?$AAl@ 000000014007f608     libucrtd:lcidtoname_downlevel.obj
 0002:0001a620       ??_C@_1BG@EGGKJILM@?$AAu?$AAz?$AA?9?$AAu?$AAz?$AA?9?$AAl?$AAa?$AAt?$AAn@ 000000014007f620     libucrtd:lcidtoname_downlevel.obj
 0002:0001a638       ??_C@_1M@GFOCLFF@?$AAv?$AAi?$AA?9?$AAv?$AAn@ 000000014007f638     libucrtd:lcidtoname_downlevel.obj
 0002:0001a648       ??_C@_1M@CPAMEDFI@?$AAx?$AAh?$AA?9?$AAz?$AAa@ 000000014007f648     libucrtd:lcidtoname_downlevel.obj
 0002:0001a658       ??_C@_1O@EBKIFIGN@?$AAz?$AAh?$AA?9?$AAc?$AAh?$AAs@ 000000014007f658     libucrtd:lcidtoname_downlevel.obj
 0002:0001a668       ??_C@_1O@NMHPGANE@?$AAz?$AAh?$AA?9?$AAc?$AAh?$AAt@ 000000014007f668     libucrtd:lcidtoname_downlevel.obj
 0002:0001a678       ??_C@_1M@LPINJOMC@?$AAz?$AAh?$AA?9?$AAc?$AAn@ 000000014007f678     libucrtd:lcidtoname_downlevel.obj
 0002:0001a688       ??_C@_1M@OCJEJODD@?$AAz?$AAh?$AA?9?$AAh?$AAk@ 000000014007f688     libucrtd:lcidtoname_downlevel.obj
 0002:0001a698       ??_C@_1M@DNDLJINH@?$AAz?$AAh?$AA?9?$AAm?$AAo@ 000000014007f698     libucrtd:lcidtoname_downlevel.obj
 0002:0001a6a8       ??_C@_1M@MBFDNDND@?$AAz?$AAh?$AA?9?$AAs?$AAg@ 000000014007f6a8     libucrtd:lcidtoname_downlevel.obj
 0002:0001a6b8       ??_C@_1M@IMEPLEPE@?$AAz?$AAh?$AA?9?$AAt?$AAw@ 000000014007f6b8     libucrtd:lcidtoname_downlevel.obj
 0002:0001a6c8       ??_C@_1M@BBGHNHJP@?$AAz?$AAu?$AA?9?$AAz?$AAa@ 000000014007f6c8     libucrtd:lcidtoname_downlevel.obj
 0002:0001a6e0       ??_C@_1HO@KHHMOCBO@?$AAm?$AAi?$AAn?$AAk?$AAe?$AAr?$AAn?$AAe?$AAl?$AA?2?$AAc?$AAr?$AAt?$AAs?$AA?2@ 000000014007f6e0     libucrtd:lcidtoname_downlevel.obj
 0002:0001a760       ??_C@_1EC@MDFDCHIL@?$AA_?$AA_?$AAa?$AAc?$AAr?$AAt?$AA_?$AAD?$AAo?$AAw?$AAn?$AAl?$AAe?$AAv?$AAe@ 000000014007f760     libucrtd:lcidtoname_downlevel.obj
 0002:0001a7b0       ??_C@_1FO@LFACCMJH@?$AAw?$AAc?$AAs?$AAc?$AAp?$AAy?$AA_?$AAs?$AA?$CI?$AAo?$AAu?$AAt?$AAL?$AAo?$AAc@ 000000014007f7b0     libucrtd:lcidtoname_downlevel.obj
 0002:0001a810       ??_C@_1GG@MCCIENJO@?$AAm?$AAi?$AAn?$AAk?$AAe?$AAr?$AAn?$AAe?$AAl?$AA?2?$AAc?$AAr?$AAt?$AAs?$AA?2@ 000000014007f810     libucrtd:mbrtowc.obj
 0002:0001a880       ??_C@_1EK@MCEFBPIK@?$AAr?$AAe?$AAt?$AAv?$AAa?$AAl?$AA?5?$AA?$CB?$AA?$DN?$AA?5?$AA_?$AA_?$AAc?$AAr?$AAt@ 000000014007f880     libucrtd:mbrtowc.obj
 0002:0001a8e0       ??_C@_1EK@OANGPA@?$AA1?$AA?5?$AA?$DM?$AA?$DN?$AA?5?$AAt?$AAr?$AAa?$AAi?$AAl?$AA_?$AAb?$AAy?$AAt?$AAe@ 000000014007f8e0     libucrtd:c32rtomb.obj
 0002:0001a930       ??_C@_1GI@FBFKMNDD@?$AAm?$AAi?$AAn?$AAk?$AAe?$AAr?$AAn?$AAe?$AAl?$AA?2?$AAc?$AAr?$AAt?$AAs?$AA?2@ 000000014007f930     libucrtd:c32rtomb.obj
 0002:0001a9a0       ??_C@_1EA@DDDCIHI@?$AAc?$AA3?$AA2?$AA?5?$AA?$DM?$AA?5?$AA?$CI?$AA1?$AAu?$AA?5?$AA?$DM?$AA?$DM?$AA?5?$AA?$CI?$AA7@ 000000014007f9a0     libucrtd:c32rtomb.obj
 0002:0001a9e0       ??_C@_1GI@IMEEHIAK@?$AAm?$AAi?$AAn?$AAk?$AAe?$AAr?$AAn?$AAe?$AAl?$AA?2?$AAc?$AAr?$AAt?$AAs?$AA?2@ 000000014007f9e0     libucrtd:_fptostr.obj
 0002:0001aa48       ??_C@_1DG@NMGBKPMI@?$AA_?$AA_?$AAa?$AAc?$AAr?$AAt?$AA_?$AAf?$AAp?$AA_?$AAs?$AAt?$AAr?$AAf?$AAl@ 000000014007fa48     libucrtd:_fptostr.obj
 0002:0001aa80       ??_C@_1IE@EAOKIIFP@?$AAb?$AAu?$AAf?$AAf?$AAe?$AAr?$AA_?$AAc?$AAo?$AAu?$AAn?$AAt?$AA?5?$AA?$DO?$AA?5@ 000000014007fa80     libucrtd:_fptostr.obj
 0002:0001ab08       ??_C@_1CA@EDEEBMBB@?$AAp?$AAf?$AAl?$AAt?$AA?5?$AA?$CB?$AA?$DN?$AA?5?$AAn?$AAu?$AAl?$AAl?$AAp?$AAt?$AAr@ 000000014007fb08     libucrtd:_fptostr.obj
 0002:0001ab30       ??_C@_1GC@DDAKNBNC@?$AAm?$AAi?$AAn?$AAk?$AAe?$AAr?$AAn?$AAe?$AAl?$AA?2?$AAc?$AAr?$AAt?$AAs?$AA?2@ 000000014007fb30     libucrtd:cfout.obj
 0002:0001ab98       ??_C@_1BM@FAAOAKKO@?$AA_?$AA_?$AAa?$AAc?$AAr?$AAt?$AA_?$AAf?$AAl?$AAt?$AAo?$AAu?$AAt@ 000000014007fb98     libucrtd:cfout.obj
 0002:0001abc0       ??_C@_1EI@OACEJKEP@?$AAs?$AAt?$AAr?$AAc?$AAp?$AAy?$AA_?$AAs?$AA?$CI?$AAr?$AAe?$AAs?$AAu?$AAl?$AAt@ 000000014007fbc0     libucrtd:cfout.obj
 0002:0001ac08       ??_C@_01GBGANLPD@0@        000000014007fc08     libucrtd:cfout.obj
 0002:0001ac10       ??_C@_1FC@KIECGFMP@?$AAs?$AAt?$AAr?$AAc?$AAp?$AAy?$AA_?$AAs?$AA?$CI?$AAr?$AAe?$AAs?$AAu?$AAl?$AAt@ 000000014007fc10     libucrtd:cfout.obj
 0002:0001ac64       ??_C@_05DNEBIAHO@1?$CDINF@ 000000014007fc64     libucrtd:cfout.obj
 0002:0001ac70       ??_C@_1FC@NFPJEIBD@?$AAs?$AAt?$AAr?$AAc?$AAp?$AAy?$AA_?$AAs?$AA?$CI?$AAr?$AAe?$AAs?$AAu?$AAl?$AAt@ 000000014007fc70     libucrtd:cfout.obj
 0002:0001acc4       ??_C@_06IMKFLFPG@1?$CDQNAN@ 000000014007fcc4     libucrtd:cfout.obj
 0002:0001acd0       ??_C@_1FC@DEJHIMLO@?$AAs?$AAt?$AAr?$AAc?$AAp?$AAy?$AA_?$AAs?$AA?$CI?$AAr?$AAe?$AAs?$AAu?$AAl?$AAt@ 000000014007fcd0     libucrtd:cfout.obj
 0002:0001ad24       ??_C@_06PGGFOGJG@1?$CDSNAN@ 000000014007fd24     libucrtd:cfout.obj
 0002:0001ad30       ??_C@_1FC@KMLHLFPC@?$AAs?$AAt?$AAr?$AAc?$AAp?$AAy?$AA_?$AAs?$AA?$CI?$AAr?$AAe?$AAs?$AAu?$AAl?$AAt@ 000000014007fd30     libucrtd:cfout.obj
 0002:0001ad84       ??_C@_05PHHOCPM@1?$CDIND@  000000014007fd84     libucrtd:cfout.obj
 0002:0001ad90       ??_C@_1DE@KHKADFOO@?$AAm?$AAa?$AAn?$AAt?$AAi?$AAs?$AAs?$AAa?$AA_?$AAb?$AAu?$AAf?$AAf?$AAe?$AAr@ 000000014007fd90     libucrtd:cfout.obj
 0002:0001add0       ??_C@_1FI@LFKLOPAC@?$AA?$CI?$AA?$CC?$AAu?$AAn?$AAe?$AAx?$AAp?$AAe?$AAc?$AAt?$AAe?$AAd?$AA?5?$AAi?$AAn@ 000000014007fdd0     libucrtd:cfout.obj
 0002:0001ae30       ??_C@_1FG@MLHBDPBG@?$AAq?$AAu?$AAo?$AAt?$AAi?$AAe?$AAn?$AAt?$AA?5?$AA?$DM?$AA?5?$AAd?$AAi?$AAg?$AAi@ 000000014007fe30     libucrtd:cfout.obj
 0002:0001aeb0       ??_C@_1DI@OOEEHOBJ@?$AAb?$AAa?$AAs?$AAe?$AA?5?$AA?$CB?$AA?$DN?$AA?5?$AAn?$AAu?$AAl?$AAl?$AAp?$AAt?$AAr@ 000000014007feb0     libucrtd:qsort.obj
 0002:0001aef0       ??_C@_1GA@KPPCKKGE@?$AAm?$AAi?$AAn?$AAk?$AAe?$AAr?$AAn?$AAe?$AAl?$AA?2?$AAc?$AAr?$AAt?$AAs?$AA?2@ 000000014007fef0     libucrtd:qsort.obj
 0002:0001af50       ??_C@_1M@INMHODIG@?$AAq?$AAs?$AAo?$AAr?$AAt@ 000000014007ff50     libucrtd:qsort.obj
 0002:0001af60       ??_C@_1BE@NJBEBBME@?$AAw?$AAi?$AAd?$AAt?$AAh?$AA?5?$AA?$DO?$AA?5?$AA0@ 000000014007ff60     libucrtd:qsort.obj
 0002:0001af78       ??_C@_1CA@LIDFOMIN@?$AAc?$AAo?$AAm?$AAp?$AA?5?$AA?$CB?$AA?$DN?$AA?5?$AAn?$AAu?$AAl?$AAl?$AAp?$AAt?$AAr@ 000000014007ff78     libucrtd:qsort.obj
 0002:0001afa0       ??_C@_1GO@DDOMFNGF@?$AAm?$AAi?$AAn?$AAk?$AAe?$AAr?$AAn?$AAe?$AAl?$AA?2?$AAc?$AAr?$AAt?$AAs?$AA?2@ 000000014007ffa0     libucrtd:mbsdec.obj
 0002:0001b010       ??_C@_1BE@KLNCOLCD@?$AA_?$AAm?$AAb?$AAs?$AAd?$AAe?$AAc?$AA_?$AAl@ 0000000140080010     libucrtd:mbsdec.obj
 0002:0001b028       ??_C@_1CG@CMGPGAOD@?$AAc?$AAu?$AAr?$AAr?$AAe?$AAn?$AAt?$AA?5?$AA?$CB?$AA?$DN?$AA?5?$AAn?$AAu?$AAl?$AAl@ 0000000140080028     libucrtd:mbsdec.obj
 0002:0001b050       ??_C@_1CI@CCKDLILB@?$AA_?$AAs?$AAt?$AAr?$AAi?$AAn?$AAg?$AA1?$AA?5?$AA?$CB?$AA?$DN?$AA?5?$AAn?$AAu?$AAl@ 0000000140080050     libucrtd:wcsnicol.obj
 0002:0001b078       ??_C@_1CI@NAPEFFEJ@?$AA_?$AAs?$AAt?$AAr?$AAi?$AAn?$AAg?$AA2?$AA?5?$AA?$CB?$AA?$DN?$AA?5?$AAn?$AAu?$AAl@ 0000000140080078     libucrtd:wcsnicol.obj
 0002:0001b0a0       ??_C@_1GG@LACFCIFA@?$AAm?$AAi?$AAn?$AAk?$AAe?$AAr?$AAn?$AAe?$AAl?$AA?2?$AAc?$AAr?$AAt?$AAs?$AA?2@ 00000001400800a0     libucrtd:strnicol.obj
 0002:0001b108       ??_C@_1BK@IOJEBPLP@?$AA_?$AAs?$AAt?$AAr?$AAn?$AAi?$AAc?$AAo?$AAl?$AAl?$AA_?$AAl@ 0000000140080108     libucrtd:strnicol.obj
 0002:0001b128       ??_C@_0DA@IEKPAGFB@minkernel?2crts?2ucrt?2src?2appcrt?2@ 0000000140080128     libucrtd:chsize.obj
 0002:0001b158       ??_C@_1BA@BALFACEM@?$AAC?$AAO?$AAN?$AAO?$AAU?$AAT?$AA$@ 0000000140080158     libucrtd:initcon.obj
 0002:0001b3c0       ??_C@_1DG@JNDMIEJL@?$AA?$CI?$AA?$CC?$AAI?$AAn?$AAv?$AAa?$AAl?$AAi?$AAd?$AA?5?$AAi?$AAn?$AAp?$AAu?$AAt@ 00000001400803c0     libucrtd:contrlfp.obj
 0002:0001b400       ??_C@_1FO@HHLKCIKB@?$AAm?$AAi?$AAn?$AAk?$AAe?$AAr?$AAn?$AAe?$AAl?$AA?2?$AAc?$AAr?$AAt?$AAs?$AA?2@ 0000000140080400     libucrtd:contrlfp.obj
 0002:0001b460       ??_C@_1BK@CDOALEA@?$AA_?$AAc?$AAo?$AAn?$AAt?$AAr?$AAo?$AAl?$AAf?$AAp?$AA_?$AAs@ 0000000140080460     libucrtd:contrlfp.obj
 0002:0001b480       ??_C@_1HK@ELDMAMK@?$AAc?$AAc?$AAh?$AAC?$AAo?$AAu?$AAn?$AAt?$AA1?$AA?$DN?$AA?$DN?$AA0?$AA?5?$AA?$CG?$AA?$CG@ 0000000140080480     libucrtd:comparestringa.obj
 0002:0001b500       ??_C@_1HC@NLKDIKED@?$AAm?$AAi?$AAn?$AAk?$AAe?$AAr?$AAn?$AAe?$AAl?$AA?2?$AAc?$AAr?$AAt?$AAs?$AA?2@ 0000000140080500     libucrtd:comparestringa.obj
 0002:0001b578       ??_C@_0DJ@MBLHFEOE@minkernel?2crts?2ucrt?2src?2appcrt?2@ 0000000140080578     libucrtd:comparestringa.obj
 0002:0001b5c0       __log10_256_lead           00000001400805c0     libucrtd:log10_256_lead_tail_table.obj
 0002:0001bdd0       __log10_256_tail           0000000140080dd0     libucrtd:log10_256_lead_tail_table.obj
 0002:0001c5e0       ??_C@_1EK@PDBKILLM@?$AA?$CI?$AAm?$AAa?$AAs?$AAk?$AA?$CG?$AA?$HO?$AA?$CI?$AA_?$AAM?$AAC?$AAW?$AA_?$AAD?$AAN@ 00000001400815e0     libucrtd:ieee.obj
 0002:0001c630       ??_C@_1GC@IEFABLII@?$AAm?$AAi?$AAn?$AAk?$AAe?$AAr?$AAn?$AAe?$AAl?$AA?2?$AAc?$AAr?$AAt?$AAs?$AA?2@ 0000000140081630     libucrtd:ieee.obj
 0002:0001c6f0       _load_config_used          00000001400816f0     LIBCMTD:loadcfg.obj
 0002:0001c880       ??_R4exception@std@@6B@    0000000140081880     main.obj
 0002:0001c8a8       ??_R3exception@std@@8      00000001400818a8     main.obj
 0002:0001c8c0       ??_R2exception@std@@8      00000001400818c0     main.obj
 0002:0001c8d0       ??_R1A@?0A@EA@exception@std@@8 00000001400818d0     main.obj
 0002:0001c8f8       ??_R4bad_alloc@std@@6B@    00000001400818f8     main.obj
 0002:0001c920       ??_R3bad_alloc@std@@8      0000000140081920     main.obj
 0002:0001c938       ??_R2bad_alloc@std@@8      0000000140081938     main.obj
 0002:0001c950       ??_R1A@?0A@EA@bad_alloc@std@@8 0000000140081950     main.obj
 0002:0001c978       ??_R4bad_array_new_length@std@@6B@ 0000000140081978     main.obj
 0002:0001c9a0       ??_R3bad_array_new_length@std@@8 00000001400819a0     main.obj
 0002:0001c9b8       ??_R2bad_array_new_length@std@@8 00000001400819b8     main.obj
 0002:0001c9d8       ??_R1A@?0A@EA@bad_array_new_length@std@@8 00000001400819d8     main.obj
 0002:0001ca00       ??_R4runtime_error@std@@6B@ 0000000140081a00     main.obj
 0002:0001ca28       ??_R3runtime_error@std@@8  0000000140081a28     main.obj
 0002:0001ca40       ??_R2runtime_error@std@@8  0000000140081a40     main.obj
 0002:0001ca58       ??_R1A@?0A@EA@runtime_error@std@@8 0000000140081a58     main.obj
 0002:0001ca80       ??_R3error_category@std@@8 0000000140081a80     main.obj
 0002:0001ca98       ??_R2error_category@std@@8 0000000140081a98     main.obj
 0002:0001caa8       ??_R1A@?0A@EA@error_category@std@@8 0000000140081aa8     main.obj
 0002:0001cad0       ??_R4_System_error@std@@6B@ 0000000140081ad0     main.obj
 0002:0001caf8       ??_R3_System_error@std@@8  0000000140081af8     main.obj
 0002:0001cb10       ??_R2_System_error@std@@8  0000000140081b10     main.obj
 0002:0001cb30       ??_R1A@?0A@EA@_System_error@std@@8 0000000140081b30     main.obj
 0002:0001cb58       ??_R4system_error@std@@6B@ 0000000140081b58     main.obj
 0002:0001cb80       ??_R3system_error@std@@8   0000000140081b80     main.obj
 0002:0001cb98       ??_R2system_error@std@@8   0000000140081b98     main.obj
 0002:0001cbc0       ??_R1A@?0A@EA@system_error@std@@8 0000000140081bc0     main.obj
 0002:0001cbe8       ??_R4_Iostream_error_category2@std@@6B@ 0000000140081be8     main.obj
 0002:0001cc10       ??_R3_Iostream_error_category2@std@@8 0000000140081c10     main.obj
 0002:0001cc28       ??_R2_Iostream_error_category2@std@@8 0000000140081c28     main.obj
 0002:0001cc40       ??_R1A@?0A@EA@_Iostream_error_category2@std@@8 0000000140081c40     main.obj
 0002:0001cc68       ??_R4bad_cast@std@@6B@     0000000140081c68     main.obj
 0002:0001cc90       ??_R3bad_cast@std@@8       0000000140081c90     main.obj
 0002:0001cca8       ??_R2bad_cast@std@@8       0000000140081ca8     main.obj
 0002:0001ccc0       ??_R1A@?0A@EA@bad_cast@std@@8 0000000140081cc0     main.obj
 0002:0001cce8       ??_R4_Facet_base@std@@6B@  0000000140081ce8     main.obj
 0002:0001cd10       ??_R3_Facet_base@std@@8    0000000140081d10     main.obj
 0002:0001cd28       ??_R2_Facet_base@std@@8    0000000140081d28     main.obj
 0002:0001cd38       ??_R1A@?0A@EA@_Facet_base@std@@8 0000000140081d38     main.obj
 0002:0001cd60       ??_R1A@?0A@EA@facet@locale@std@@8 0000000140081d60     main.obj
 0002:0001cd88       ??_R3facet@locale@std@@8   0000000140081d88     main.obj
 0002:0001cda0       ??_R2facet@locale@std@@8   0000000140081da0     main.obj
 0002:0001cdc0       ??_R17?0A@EA@_Crt_new_delete@std@@8 0000000140081dc0     main.obj
 0002:0001cde8       ??_R3_Crt_new_delete@std@@8 0000000140081de8     main.obj
 0002:0001ce00       ??_R2_Crt_new_delete@std@@8 0000000140081e00     main.obj
 0002:0001ce10       ??_R1A@?0A@EA@_Crt_new_delete@std@@8 0000000140081e10     main.obj
 0002:0001ce38       ??_R4facet@locale@std@@6B@ 0000000140081e38     main.obj
 0002:0001ce60       ??_R4ctype_base@std@@6B@   0000000140081e60     main.obj
 0002:0001ce88       ??_R3ctype_base@std@@8     0000000140081e88     main.obj
 0002:0001cea0       ??_R2ctype_base@std@@8     0000000140081ea0     main.obj
 0002:0001cec8       ??_R1A@?0A@EA@ctype_base@std@@8 0000000140081ec8     main.obj
 0002:0001cef0       ??_R4?$ctype@D@std@@6B@    0000000140081ef0     main.obj
 0002:0001cf18       ??_R3?$ctype@D@std@@8      0000000140081f18     main.obj
 0002:0001cf30       ??_R2?$ctype@D@std@@8      0000000140081f30     main.obj
 0002:0001cf60       ??_R1A@?0A@EA@?$ctype@D@std@@8 0000000140081f60     main.obj
 0002:0001cf88       ??_R4failure@ios_base@std@@6B@ 0000000140081f88     main.obj
 0002:0001cfb0       ??_R3failure@ios_base@std@@8 0000000140081fb0     main.obj
 0002:0001cfc8       ??_R2failure@ios_base@std@@8 0000000140081fc8     main.obj
 0002:0001cff8       ??_R1A@?0A@EA@failure@ios_base@std@@8 0000000140081ff8     main.obj
 0002:0001d020       ??_R4logic_error@std@@6B@  0000000140082020     libcpmtd:xthrow.obj
 0002:0001d048       ??_R3logic_error@std@@8    0000000140082048     libcpmtd:xthrow.obj
 0002:0001d060       ??_R2logic_error@std@@8    0000000140082060     libcpmtd:xthrow.obj
 0002:0001d078       ??_R1A@?0A@EA@logic_error@std@@8 0000000140082078     libcpmtd:xthrow.obj
 0002:0001d0a0       ??_R4length_error@std@@6B@ 00000001400820a0     libcpmtd:xthrow.obj
 0002:0001d0c8       ??_R3length_error@std@@8   00000001400820c8     libcpmtd:xthrow.obj
 0002:0001d0e0       ??_R2length_error@std@@8   00000001400820e0     libcpmtd:xthrow.obj
 0002:0001d100       ??_R1A@?0A@EA@length_error@std@@8 0000000140082100     libcpmtd:xthrow.obj
 0002:0001d128       ??_R4out_of_range@std@@6B@ 0000000140082128     libcpmtd:xthrow.obj
 0002:0001d150       ??_R3out_of_range@std@@8   0000000140082150     libcpmtd:xthrow.obj
 0002:0001d168       ??_R2out_of_range@std@@8   0000000140082168     libcpmtd:xthrow.obj
 0002:0001d188       ??_R1A@?0A@EA@out_of_range@std@@8 0000000140082188     libcpmtd:xthrow.obj
 0002:0001d1b0       ??_R4_Locimp@locale@std@@6B@ 00000001400821b0     libcpmtd:locale0.obj
 0002:0001d1d8       ??_R3_Locimp@locale@std@@8 00000001400821d8     libcpmtd:locale0.obj
 0002:0001d1f0       ??_R2_Locimp@locale@std@@8 00000001400821f0     libcpmtd:locale0.obj
 0002:0001d218       ??_R1A@?0A@EA@_Locimp@locale@std@@8 0000000140082218     libcpmtd:locale0.obj
 0002:0001d240       ??_R4ios_base@std@@6B@     0000000140082240     libcpmtd:cin.obj
 0002:0001d268       ??_R3ios_base@std@@8       0000000140082268     libcpmtd:cin.obj
 0002:0001d280       ??_R2ios_base@std@@8       0000000140082280     libcpmtd:cin.obj
 0002:0001d298       ??_R1A@?0A@EA@ios_base@std@@8 0000000140082298     libcpmtd:cin.obj
 0002:0001d2c0       ??_R17?0A@EA@?$_Iosb@H@std@@8 00000001400822c0     libcpmtd:cin.obj
 0002:0001d2e8       ??_R3?$_Iosb@H@std@@8      00000001400822e8     libcpmtd:cin.obj
 0002:0001d300       ??_R2?$_Iosb@H@std@@8      0000000140082300     libcpmtd:cin.obj
 0002:0001d310       ??_R1A@?0A@EA@?$_Iosb@H@std@@8 0000000140082310     libcpmtd:cin.obj
 0002:0001d338       ??_R4?$basic_ios@DU?$char_traits@D@std@@@std@@6B@ 0000000140082338     libcpmtd:cin.obj
 0002:0001d360       ??_R3?$basic_ios@DU?$char_traits@D@std@@@std@@8 0000000140082360     libcpmtd:cin.obj
 0002:0001d378       ??_R2?$basic_ios@DU?$char_traits@D@std@@@std@@8 0000000140082378     libcpmtd:cin.obj
 0002:0001d398       ??_R1A@?0A@EA@?$basic_ios@DU?$char_traits@D@std@@@std@@8 0000000140082398     libcpmtd:cin.obj
 0002:0001d3c0       ??_R4?$basic_streambuf@DU?$char_traits@D@std@@@std@@6B@ 00000001400823c0     libcpmtd:cin.obj
 0002:0001d3e8       ??_R3?$basic_streambuf@DU?$char_traits@D@std@@@std@@8 00000001400823e8     libcpmtd:cin.obj
 0002:0001d400       ??_R2?$basic_streambuf@DU?$char_traits@D@std@@@std@@8 0000000140082400     libcpmtd:cin.obj
 0002:0001d410       ??_R1A@?0A@EA@?$basic_streambuf@DU?$char_traits@D@std@@@std@@8 0000000140082410     libcpmtd:cin.obj
 0002:0001d438       ??_R4?$basic_istream@DU?$char_traits@D@std@@@std@@6B@ 0000000140082438     libcpmtd:cin.obj
 0002:0001d460       ??_R3?$basic_istream@DU?$char_traits@D@std@@@std@@8 0000000140082460     libcpmtd:cin.obj
 0002:0001d478       ??_R2?$basic_istream@DU?$char_traits@D@std@@@std@@8 0000000140082478     libcpmtd:cin.obj
 0002:0001d4a0       ??_R1A@?0A@EA@?$basic_istream@DU?$char_traits@D@std@@@std@@8 00000001400824a0     libcpmtd:cin.obj
 0002:0001d4c8       ??_R1A@A@3FA@?$basic_ios@DU?$char_traits@D@std@@@std@@8 00000001400824c8     libcpmtd:cin.obj
 0002:0001d4f0       ??_R1A@A@3EA@ios_base@std@@8 00000001400824f0     libcpmtd:cin.obj
 0002:0001d518       ??_R17A@3EA@?$_Iosb@H@std@@8 0000000140082518     libcpmtd:cin.obj
 0002:0001d540       ??_R4?$basic_filebuf@DU?$char_traits@D@std@@@std@@6B@ 0000000140082540     libcpmtd:cin.obj
 0002:0001d568       ??_R3?$basic_filebuf@DU?$char_traits@D@std@@@std@@8 0000000140082568     libcpmtd:cin.obj
 0002:0001d580       ??_R2?$basic_filebuf@DU?$char_traits@D@std@@@std@@8 0000000140082580     libcpmtd:cin.obj
 0002:0001d598       ??_R1A@?0A@EA@?$basic_filebuf@DU?$char_traits@D@std@@@std@@8 0000000140082598     libcpmtd:cin.obj
 0002:0001d5c0       ??_R4codecvt_base@std@@6B@ 00000001400825c0     libcpmtd:cin.obj
 0002:0001d5e8       ??_R3codecvt_base@std@@8   00000001400825e8     libcpmtd:cin.obj
 0002:0001d600       ??_R2codecvt_base@std@@8   0000000140082600     libcpmtd:cin.obj
 0002:0001d628       ??_R1A@?0A@EA@codecvt_base@std@@8 0000000140082628     libcpmtd:cin.obj
 0002:0001d650       ??_R4?$codecvt@DDU_Mbstatet@@@std@@6B@ 0000000140082650     libcpmtd:cin.obj
 0002:0001d678       ??_R3?$codecvt@DDU_Mbstatet@@@std@@8 0000000140082678     libcpmtd:cin.obj
 0002:0001d690       ??_R2?$codecvt@DDU_Mbstatet@@@std@@8 0000000140082690     libcpmtd:cin.obj
 0002:0001d6c0       ??_R1A@?0A@EA@?$codecvt@DDU_Mbstatet@@@std@@8 00000001400826c0     libcpmtd:cin.obj
 0002:0001d6e8       ??_R4?$basic_ostream@DU?$char_traits@D@std@@@std@@6B@ 00000001400826e8     libcpmtd:cout.obj
 0002:0001d710       ??_R3?$basic_ostream@DU?$char_traits@D@std@@@std@@8 0000000140082710     libcpmtd:cout.obj
 0002:0001d728       ??_R2?$basic_ostream@DU?$char_traits@D@std@@@std@@8 0000000140082728     libcpmtd:cout.obj
 0002:0001d750       ??_R1A@?0A@EA@?$basic_ostream@DU?$char_traits@D@std@@@std@@8 0000000140082750     libcpmtd:cout.obj
 0002:0001d778       ??_R4type_info@@6B@        0000000140082778     LIBCMTD:std_type_info_static.obj
 0002:0001d7a0       ??_R3type_info@@8          00000001400827a0     LIBCMTD:std_type_info_static.obj
 0002:0001d7b8       ??_R2type_info@@8          00000001400827b8     LIBCMTD:std_type_info_static.obj
 0002:0001d7c8       ??_R1A@?0A@EA@type_info@@8 00000001400827c8     LIBCMTD:std_type_info_static.obj
 0002:0001d7f0       ??_R4bad_exception@std@@6B@ 00000001400827f0     libvcruntimed:frame.obj
 0002:0001d818       ??_R3bad_exception@std@@8  0000000140082818     libvcruntimed:frame.obj
 0002:0001d830       ??_R2bad_exception@std@@8  0000000140082830     libvcruntimed:frame.obj
 0002:0001d848       ??_R1A@?0A@EA@bad_exception@std@@8 0000000140082848     libvcruntimed:frame.obj
 0002:0001d86c       __volatile_metadata        000000014008286c     <linker-defined>
 0002:0001dc78       __rtc_iaa                  0000000140082c78     LIBCMTD:initsect.obj
 0002:0001dc80       __rtc_izz                  0000000140082c80     LIBCMTD:initsect.obj
 0002:0001dc88       __rtc_taa                  0000000140082c88     LIBCMTD:initsect.obj
 0002:0001dc90       __rtc_tzz                  0000000140082c90     LIBCMTD:initsect.obj
 0002:0001f9c8       _TI3?AVbad_array_new_length@std@@ 00000001400849c8     main.obj
 0002:0001f9e8       _CTA3?AVbad_array_new_length@std@@ 00000001400849e8     main.obj
 0002:0001fa08       _CT??_R0?AVbad_array_new_length@std@@@8??0bad_array_new_length@std@@QEAA@AEBV01@@Z24 0000000140084a08     main.obj
 0002:0001fa30       _CT??_R0?AVbad_alloc@std@@@8??0bad_alloc@std@@QEAA@AEBV01@@Z24 0000000140084a30     main.obj
 0002:0001fa58       _CT??_R0?AVexception@std@@@8??0exception@std@@QEAA@AEBV01@@Z24 0000000140084a58     main.obj
 0002:0001fa80       _CT??_R0?AVruntime_error@std@@@8??0runtime_error@std@@QEAA@AEBV01@@Z24 0000000140084a80     main.obj
 0002:0001faa8       _CT??_R0?AVsystem_error@std@@@8??0system_error@std@@QEAA@AEBV01@@Z40 0000000140084aa8     main.obj
 0002:0001fad0       _CT??_R0?AV_System_error@std@@@8??0_System_error@std@@QEAA@AEBV01@@Z40 0000000140084ad0     main.obj
 0002:0001faf8       _TI2?AVbad_cast@std@@      0000000140084af8     main.obj
 0002:0001fb18       _CTA2?AVbad_cast@std@@     0000000140084b18     main.obj
 0002:0001fb30       _CT??_R0?AVbad_cast@std@@@8??0bad_cast@std@@QEAA@AEBV01@@Z24 0000000140084b30     main.obj
 0002:0001fb58       _TI5?AVfailure@ios_base@std@@ 0000000140084b58     main.obj
 0002:0001fb78       _CTA5?AVfailure@ios_base@std@@ 0000000140084b78     main.obj
 0002:0001fba8       _CT??_R0?AVfailure@ios_base@std@@@8??0failure@ios_base@std@@QEAA@AEBV012@@Z40 0000000140084ba8     main.obj
 0002:0001fbd0       _TI2?AVbad_alloc@std@@     0000000140084bd0     libcpmtd:xthrow.obj
 0002:0001fbf0       _CTA2?AVbad_alloc@std@@    0000000140084bf0     libcpmtd:xthrow.obj
 0002:0001fc08       _CT??_R0?AVlogic_error@std@@@8??0logic_error@std@@QEAA@AEBV01@@Z24 0000000140084c08     libcpmtd:xthrow.obj
 0002:0001fc30       _TI3?AVlength_error@std@@  0000000140084c30     libcpmtd:xthrow.obj
 0002:0001fc50       _CTA3?AVlength_error@std@@ 0000000140084c50     libcpmtd:xthrow.obj
 0002:0001fc70       _CT??_R0?AVlength_error@std@@@8??0length_error@std@@QEAA@AEBV01@@Z24 0000000140084c70     libcpmtd:xthrow.obj
 0002:0001fc98       _TI3?AVout_of_range@std@@  0000000140084c98     libcpmtd:xthrow.obj
 0002:0001fcb8       _CTA3?AVout_of_range@std@@ 0000000140084cb8     libcpmtd:xthrow.obj
 0002:0001fcd8       _CT??_R0?AVout_of_range@std@@@8??0out_of_range@std@@QEAA@AEBV01@@Z24 0000000140084cd8     libcpmtd:xthrow.obj
 0002:0001fd00       _TI2?AVruntime_error@std@@ 0000000140084d00     libcpmtd:xthrow.obj
 0002:0001fd20       _CTA2?AVruntime_error@std@@ 0000000140084d20     libcpmtd:xthrow.obj
 0002:0001fd38       _TI2?AVbad_exception@std@@ 0000000140084d38     libvcruntimed:frame.obj
 0002:0001fd58       _CTA2?AVbad_exception@std@@ 0000000140084d58     libvcruntimed:frame.obj
 0002:0001fd70       _CT??_R0?AVbad_exception@std@@@8??0bad_exception@std@@QEAA@AEBV01@@Z24 0000000140084d70     libvcruntimed:frame.obj
 0002:0001fd94       __IMPORT_DESCRIPTOR_KERNEL32 0000000140084d94     kernel32:KERNEL32.dll
 0002:0001fda8       __NULL_IMPORT_DESCRIPTOR   0000000140084da8     kernel32:KERNEL32.dll
 0003:00000008       ?_Static@?1???$_Immortalize_memcpy_image@V_Iostream_error_category2@std@@@std@@YAAEBV_Iostream_error_category2@1@XZ@4U?$_Constexpr_immortalize_impl@V_Iostream_error_category2@std@@@1@A 0000000140086008     main.obj
 0003:00000028       ?_Sync@ios_base@std@@0_NA  0000000140086028     libcpmtd:ios.obj
 0003:00000030       _fltused                   0000000140086030     LIBCMTD:fltused.obj
 0003:00000034       __scrt_native_dllmain_reason 0000000140086034     LIBCMTD:utility.obj
 0003:00000040       __security_cookie_complement 0000000140086040     LIBCMTD:gs_cookie.obj
 0003:00000048       __security_cookie          0000000140086048     LIBCMTD:gs_cookie.obj
 0003:00000050       __scrt_default_matherr     0000000140086050     LIBCMTD:matherr.obj
 0003:00000058       __isa_available            0000000140086058     LIBCMTD:cpu_disp.obj
 0003:0000005c       __isa_enabled              000000014008605c     LIBCMTD:cpu_disp.obj
 0003:00000060       __memcpy_nt_iters          0000000140086060     LIBCMTD:cpu_disp.obj
 0003:00000068       __memset_nt_iters          0000000140086068     LIBCMTD:cpu_disp.obj
 0003:00000084       _crtDbgFlag                0000000140086084     libucrtd:debug_heap.obj
 0003:00000088       _crtBreakAlloc             0000000140086088     libucrtd:debug_heap.obj
 0003:00000090       _pctype                    0000000140086090     libucrtd:ctype.obj
 0003:00000098       _pwctype                   0000000140086098     libucrtd:ctype.obj
 0003:000000a0       _iob                       00000001400860a0     libucrtd:_file.obj
 0003:000001c0       __acrt_lconv_c             00000001400861c0     libucrtd:localeconv.obj
 0003:00000258       __acrt_lconv               0000000140086258     libucrtd:localeconv.obj
 0003:00000260       __acrt_lconv_static_decimal 0000000140086260     libucrtd:localeconv.obj
 0003:00000264       __acrt_lconv_static_W_decimal 0000000140086264     libucrtd:localeconv.obj
 0003:00000268       __abort_behavior           0000000140086268     libucrtd:abort.obj
 0003:00000288       _pfnAllocHook              0000000140086288     libucrtd:debug_heap_hook.obj
 0003:00000290       __acrt_initial_locale_data 0000000140086290     libucrtd:nlsdata.obj
 0003:000003e8       __acrt_initial_locale_pointers 00000001400863e8     libucrtd:nlsdata.obj
 0003:000003f8       __acrt_wide_c_locale_string 00000001400863f8     libucrtd:nlsdata.obj
 0003:000003fc       __mb_cur_max               00000001400863fc     libucrtd:nlsdata.obj
 0003:00000400       _crtAssertBusy             0000000140086400     libucrtd:dbgrptt.obj
 0003:00000408       _CrtDbgMode                0000000140086408     libucrtd:dbgrptt.obj
 0003:00000418       _CrtDbgFile                0000000140086418     libucrtd:dbgrptt.obj
 0003:00000430       _lookuptrailbytes          0000000140086430     libucrtd:read.obj
 0003:00000530       __badioinfo                0000000140086530     libucrtd:ioinit.obj
 0003:00000578       __globallocalestatus       0000000140086578     libucrtd:glstatus.obj
 0003:00000740       __acrt_initial_multibyte_data 0000000140086740     libucrtd:mbctype.obj
 0003:00000c98       ??_R0?AVbad_array_new_length@std@@@8 0000000140086c98     main.obj
 0003:00000cc8       ??_R0?AVbad_alloc@std@@@8  0000000140086cc8     main.obj
 0003:00000cf0       ??_R0?AVexception@std@@@8  0000000140086cf0     main.obj
 0003:00000d18       ??_R0?AVruntime_error@std@@@8 0000000140086d18     main.obj
 0003:00000d40       ??_R0?AVsystem_error@std@@@8 0000000140086d40     main.obj
 0003:00000d68       ??_R0?AV_System_error@std@@@8 0000000140086d68     main.obj
 0003:00000d90       ??_R0?AVbad_cast@std@@@8   0000000140086d90     main.obj
 0003:00000db8       ??_R0?AVfailure@ios_base@std@@@8 0000000140086db8     main.obj
 0003:00000de8       ??_R0?AVlogic_error@std@@@8 0000000140086de8     libcpmtd:xthrow.obj
 0003:00000e10       ??_R0?AVlength_error@std@@@8 0000000140086e10     libcpmtd:xthrow.obj
 0003:00000e38       ??_R0?AVout_of_range@std@@@8 0000000140086e38     libcpmtd:xthrow.obj
 0003:00000e60       ??_R0?AVbad_exception@std@@@8 0000000140086e60     libvcruntimed:frame.obj
 0003:00000e90       ??_R0?AVerror_category@std@@@8 0000000140086e90     main.obj
 0003:00000ec0       ??_R0?AV_Iostream_error_category2@std@@@8 0000000140086ec0     main.obj
 0003:00000ef8       ??_R0?AV_Facet_base@std@@@8 0000000140086ef8     main.obj
 0003:00000f20       ??_R0?AVfacet@locale@std@@@8 0000000140086f20     main.obj
 0003:00000f48       ??_R0?AU_Crt_new_delete@std@@@8 0000000140086f48     main.obj
 0003:00000f78       ??_R0?AUctype_base@std@@@8 0000000140086f78     main.obj
 0003:00000fa0       ??_R0?AV?$ctype@D@std@@@8  0000000140086fa0     main.obj
 0003:00000fc8       ??_R0?AV_Locimp@locale@std@@@8 0000000140086fc8     libcpmtd:locale0.obj
 0003:00000ff8       ??_R0?AVios_base@std@@@8   0000000140086ff8     libcpmtd:cin.obj
 0003:00001020       ??_R0?AV?$_Iosb@H@std@@@8  0000000140087020     libcpmtd:cin.obj
 0003:00001048       ??_R0?AV?$basic_ios@DU?$char_traits@D@std@@@std@@@8 0000000140087048     libcpmtd:cin.obj
 0003:00001090       ??_R0?AV?$basic_streambuf@DU?$char_traits@D@std@@@std@@@8 0000000140087090     libcpmtd:cin.obj
 0003:000010e0       ??_R0?AV?$basic_istream@DU?$char_traits@D@std@@@std@@@8 00000001400870e0     libcpmtd:cin.obj
 0003:00001130       ??_R0?AV?$basic_filebuf@DU?$char_traits@D@std@@@std@@@8 0000000140087130     libcpmtd:cin.obj
 0003:00001178       ??_R0?AVcodecvt_base@std@@@8 0000000140087178     libcpmtd:cin.obj
 0003:000011a0       ??_R0?AV?$codecvt@DDU_Mbstatet@@@std@@@8 00000001400871a0     libcpmtd:cin.obj
 0003:000011e0       ??_R0?AV?$basic_ostream@DU?$char_traits@D@std@@@std@@@8 00000001400871e0     libcpmtd:cout.obj
 0003:00001228       ??_R0?AVtype_info@@@8      0000000140087228     LIBCMTD:std_type_info_static.obj
 0003:00001250       ?testProducts@@3PEAMEA     0000000140087250     main.obj
 0003:00001b28       ?id@?$num_put@DV?$ostreambuf_iterator@DU?$char_traits@D@std@@@std@@@std@@2V0locale@2@A 0000000140087b28     main.obj
 0003:00001b30       ?id@?$numpunct@D@std@@2V0locale@2@A 0000000140087b30     main.obj
 0003:00001b38       ?_Psave@?$_Facetptr@V?$ctype@D@std@@@std@@2PEBVfacet@locale@2@EB 0000000140087b38     main.obj
 0003:00001c90       ?_Id_cnt@id@locale@std@@0HA 0000000140087c90     libcpmtd:locale0.obj
 0003:00001c98       ?_Clocptr@_Locimp@locale@std@@0PEAV123@EA 0000000140087c98     libcpmtd:locale0.obj
 0003:00001ca0       ?id@?$ctype@_W@std@@2V0locale@2@A 0000000140087ca0     libcpmtd:locale0.obj
 0003:00001ca8       ?id@?$ctype@D@std@@2V0locale@2@A 0000000140087ca8     libcpmtd:locale0.obj
 0003:00001cb0       ?id@?$codecvt@GDU_Mbstatet@@@std@@2V0locale@2@A 0000000140087cb0     libcpmtd:locale0.obj
 0003:00001cb8       ?id@?$ctype@G@std@@2V0locale@2@A 0000000140087cb8     libcpmtd:locale0.obj
 0003:00001cd0       ?id@?$codecvt@_WDU_Mbstatet@@@std@@2V0locale@2@A 0000000140087cd0     libcpmtd:locale0.obj
 0003:00001db0       ?cin@std@@3V?$basic_istream@DU?$char_traits@D@std@@@1@A 0000000140087db0     libcpmtd:cin.obj
 0003:00001e28       ?id@?$codecvt@DDU_Mbstatet@@@std@@2V0locale@2@A 0000000140087e28     libcpmtd:cin.obj
 0003:00001e30       ?_Stinit@?1??_Init@?$basic_filebuf@DU?$char_traits@D@std@@@std@@IEAAXPEAU_iobuf@@W4_Initfl@23@@Z@4U_Mbstatet@@A 0000000140087e30     libcpmtd:cin.obj
 0003:00001e38       ?_Psave@?$_Facetptr@V?$codecvt@DDU_Mbstatet@@@std@@@std@@2PEBVfacet@locale@2@EB 0000000140087e38     libcpmtd:cin.obj
 0003:00001e50       ?cout@std@@3V?$basic_ostream@DU?$char_traits@D@std@@@1@A 0000000140087e50     libcpmtd:cout.obj
 0003:00001f58       ?_OptionsStorage@?1??__local_stdio_printf_options@@9@4_KA 0000000140087f58     libcpmtd:locale.obj
 0003:00001f60       ?id@?$num_get@DV?$istreambuf_iterator@DU?$char_traits@D@std@@@std@@@std@@2V0locale@2@A 0000000140087f60     libcpmtd:locale.obj
 0003:00001f70       ?_Ptr_cin@std@@3PEAV?$basic_istream@DU?$char_traits@D@std@@@1@EA 0000000140087f70     libcpmtd:iosptrs.obj
 0003:00001f78       ?_Ptr_cout@std@@3PEAV?$basic_ostream@DU?$char_traits@D@std@@@1@EA 0000000140087f78     libcpmtd:iosptrs.obj
 0003:00001f80       ?_Ptr_cerr@std@@3PEAV?$basic_ostream@DU?$char_traits@D@std@@@1@EA 0000000140087f80     libcpmtd:iosptrs.obj
 0003:00001f88       ?_Ptr_clog@std@@3PEAV?$basic_ostream@DU?$char_traits@D@std@@@1@EA 0000000140087f88     libcpmtd:iosptrs.obj
 0003:00001f90       ?_Ptr_wcin@std@@3PEAV?$basic_istream@_WU?$char_traits@_W@std@@@1@EA 0000000140087f90     libcpmtd:iosptrs.obj
 0003:00001f98       ?_Ptr_wcout@std@@3PEAV?$basic_ostream@_WU?$char_traits@_W@std@@@1@EA 0000000140087f98     libcpmtd:iosptrs.obj
 0003:00001fa0       ?_Ptr_wcerr@std@@3PEAV?$basic_ostream@_WU?$char_traits@_W@std@@@1@EA 0000000140087fa0     libcpmtd:iosptrs.obj
 0003:00001fa8       ?_Ptr_wclog@std@@3PEAV?$basic_ostream@_WU?$char_traits@_W@std@@@1@EA 0000000140087fa8     libcpmtd:iosptrs.obj
 0003:00002010       ?_Index@ios_base@std@@0HA  0000000140088010     libcpmtd:ios.obj
 0003:00002080       ?id@?$time_put@_WV?$ostreambuf_iterator@_WU?$char_traits@_W@std@@@std@@@std@@2V0locale@2@A 0000000140088080     libcpmtd:wlocale.obj
 0003:00002088       ?id@?$num_get@_WV?$istreambuf_iterator@_WU?$char_traits@_W@std@@@std@@@std@@2V0locale@2@A 0000000140088088     libcpmtd:wlocale.obj
 0003:00002090       ?id@?$num_put@_WV?$ostreambuf_iterator@_WU?$char_traits@_W@std@@@std@@@std@@2V0locale@2@A 0000000140088090     libcpmtd:wlocale.obj
 0003:00002098       ?id@?$numpunct@_W@std@@2V0locale@2@A 0000000140088098     libcpmtd:wlocale.obj
 0003:000020a0       ?id@?$collate@_W@std@@2V0locale@2@A 00000001400880a0     libcpmtd:wlocale.obj
 0003:000020a8       ?id@?$messages@_W@std@@2V0locale@2@A 00000001400880a8     libcpmtd:wlocale.obj
 0003:000020b0       ?id@?$money_get@_WV?$istreambuf_iterator@_WU?$char_traits@_W@std@@@std@@@std@@2V0locale@2@A 00000001400880b0     libcpmtd:wlocale.obj
 0003:000020b8       ?id@?$money_put@_WV?$ostreambuf_iterator@_WU?$char_traits@_W@std@@@std@@@std@@2V0locale@2@A 00000001400880b8     libcpmtd:wlocale.obj
 0003:000020c0       ?id@?$moneypunct@_W$0A@@std@@2V0locale@2@A 00000001400880c0     libcpmtd:wlocale.obj
 0003:000020c8       ?id@?$moneypunct@_W$00@std@@2V0locale@2@A 00000001400880c8     libcpmtd:wlocale.obj
 0003:000020d0       ?id@?$time_get@_WV?$istreambuf_iterator@_WU?$char_traits@_W@std@@@std@@@std@@2V0locale@2@A 00000001400880d0     libcpmtd:wlocale.obj
 0003:000020d8       ?id@?$num_get@GV?$istreambuf_iterator@GU?$char_traits@G@std@@@std@@@std@@2V0locale@2@A 00000001400880d8     libcpmtd:wlocale.obj
 0003:000020e0       ?id@?$num_put@GV?$ostreambuf_iterator@GU?$char_traits@G@std@@@std@@@std@@2V0locale@2@A 00000001400880e0     libcpmtd:wlocale.obj
 0003:000020e8       ?id@?$numpunct@G@std@@2V0locale@2@A 00000001400880e8     libcpmtd:wlocale.obj
 0003:000020f0       ?id@?$collate@G@std@@2V0locale@2@A 00000001400880f0     libcpmtd:wlocale.obj
 0003:000020f8       ?id@?$messages@G@std@@2V0locale@2@A 00000001400880f8     libcpmtd:wlocale.obj
 0003:00002100       ?id@?$money_get@GV?$istreambuf_iterator@GU?$char_traits@G@std@@@std@@@std@@2V0locale@2@A 0000000140088100     libcpmtd:wlocale.obj
 0003:00002108       ?id@?$money_put@GV?$ostreambuf_iterator@GU?$char_traits@G@std@@@std@@@std@@2V0locale@2@A 0000000140088108     libcpmtd:wlocale.obj
 0003:00002110       ?id@?$moneypunct@G$0A@@std@@2V0locale@2@A 0000000140088110     libcpmtd:wlocale.obj
 0003:00002118       ?id@?$moneypunct@G$00@std@@2V0locale@2@A 0000000140088118     libcpmtd:wlocale.obj
 0003:00002120       ?id@?$time_get@GV?$istreambuf_iterator@GU?$char_traits@G@std@@@std@@@std@@2V0locale@2@A 0000000140088120     libcpmtd:wlocale.obj
 0003:00002128       ?id@?$time_put@GV?$ostreambuf_iterator@GU?$char_traits@G@std@@@std@@@std@@2V0locale@2@A 0000000140088128     libcpmtd:wlocale.obj
 0003:00002130       ?id@?$collate@D@std@@2V0locale@2@A 0000000140088130     libcpmtd:xlocale.obj
 0003:00002138       ?id@?$messages@D@std@@2V0locale@2@A 0000000140088138     libcpmtd:xlocale.obj
 0003:00002140       ?id@?$money_get@DV?$istreambuf_iterator@DU?$char_traits@D@std@@@std@@@std@@2V0locale@2@A 0000000140088140     libcpmtd:xlocale.obj
 0003:00002148       ?id@?$money_put@DV?$ostreambuf_iterator@DU?$char_traits@D@std@@@std@@@std@@2V0locale@2@A 0000000140088148     libcpmtd:xlocale.obj
 0003:00002150       ?id@?$moneypunct@D$0A@@std@@2V0locale@2@A 0000000140088150     libcpmtd:xlocale.obj
 0003:00002158       ?id@?$moneypunct@D$00@std@@2V0locale@2@A 0000000140088158     libcpmtd:xlocale.obj
 0003:00002160       ?id@?$time_get@DV?$istreambuf_iterator@DU?$char_traits@D@std@@@std@@@std@@2V0locale@2@A 0000000140088160     libcpmtd:xlocale.obj
 0003:00002168       ?id@?$time_put@DV?$ostreambuf_iterator@DU?$char_traits@D@std@@@std@@@std@@2V0locale@2@A 0000000140088168     libcpmtd:xlocale.obj
 0003:00002170       __scrt_current_native_startup_state 0000000140088170     LIBCMTD:utility.obj
 0003:00002178       __scrt_native_startup_lock 0000000140088178     LIBCMTD:utility.obj
 0003:000021b8       __castguard_check_failure_os_handled_fptr 00000001400881b8     LIBCMTD:guard_support.obj
 0003:00002730       ?__type_info_root_node@@3U__type_info_node@@A 0000000140088730     LIBCMTD:tncleanup.obj
 0003:00002740       ?_OptionsStorage@?1??__local_stdio_scanf_options@@9@4_KA 0000000140088740     LIBCMTD:default_local_stdio_options.obj
 0003:00002748       __scrt_debugger_hook_flag  0000000140088748     LIBCMTD:utility_desktop.obj
 0003:0000274c       __favor                    000000014008874c     LIBCMTD:cpu_disp.obj
 0003:00002750       ?__WinRTOutOfMemoryExceptionCallback@@3P6APEAXXZEA 0000000140088750     libvcruntimed:ehhelpers.obj
 0003:00002758       __pPurecall                0000000140088758     libvcruntimed:purevirt_data.obj
 0003:00002810       ?pArgList@UnDecorator@@0PEAVReplicator@@EA 0000000140088810     libvcruntimed:undname.obj
 0003:00002818       ?pZNameList@UnDecorator@@0PEAVReplicator@@EA 0000000140088818     libvcruntimed:undname.obj
 0003:00002820       ?pTemplateArgList@UnDecorator@@0PEAVReplicator@@EA 0000000140088820     libvcruntimed:undname.obj
 0003:00002828       ?gName@UnDecorator@@0PEBDEB 0000000140088828     libvcruntimed:undname.obj
 0003:00002830       ?name@UnDecorator@@0PEBDEB 0000000140088830     libvcruntimed:undname.obj
 0003:00002838       ?disableFlags@UnDecorator@@0KA 0000000140088838     libvcruntimed:undname.obj
 0003:0000283c       ?fExplicitTemplateParams@UnDecorator@@0_NA 000000014008883c     libvcruntimed:undname.obj
 0003:0000283d       ?fGetTemplateArgumentList@UnDecorator@@0_NA 000000014008883d     libvcruntimed:undname.obj
 0003:00002840       ?m_pGetParameter@UnDecorator@@0P6APEADJ@ZEA 0000000140088840     libvcruntimed:undname.obj
 0003:00002848       ?m_CHPENameOffset@UnDecorator@@0KA 0000000140088848     libvcruntimed:undname.obj
 0003:0000284c       ?m_recursionLevel@UnDecorator@@0KA 000000014008884c     libvcruntimed:undname.obj
 0003:000028f0       _pfnDumpClient             00000001400888f0     libucrtd:debug_heap.obj
 0003:00002b38       _nstream                   0000000140088b38     libucrtd:_file.obj
 0003:00002b40       __piob                     0000000140088b40     libucrtd:_file.obj
 0003:00002b48       _cflush                    0000000140088b48     libucrtd:_file.obj
 0003:00002b4c       __acrt_lconv_static_null   0000000140088b4c     libucrtd:localeconv.obj
 0003:00002b50       __acrt_lconv_static_W_null 0000000140088b50     libucrtd:localeconv.obj
 0003:000032a8       _environ_table             00000001400892a8     libucrtd:environment_initialization.obj
 0003:000032b0       _wenviron_table            00000001400892b0     libucrtd:environment_initialization.obj
 0003:000032b8       __dcrt_initial_wide_environment 00000001400892b8     libucrtd:environment_initialization.obj
 0003:000032c0       __dcrt_initial_narrow_environment 00000001400892c0     libucrtd:environment_initialization.obj
 0003:000032d8       ?c_exit_complete@?1???R<lambda_6e4b09c48022b2350581041d5f6b0c4c>@@QEBA@XZ@4_NA 00000001400892d8     libucrtd:exit.obj
 0003:000032e0       _pgmptr                    00000001400892e0     libucrtd:argv_data.obj
 0003:000032e8       __argc                     00000001400892e8     libucrtd:argv_data.obj
 0003:000032f0       __argv                     00000001400892f0     libucrtd:argv_data.obj
 0003:000032f8       __wargv                    00000001400892f8     libucrtd:argv_data.obj
 0003:00003300       _acmdln                    0000000140089300     libucrtd:argv_data.obj
 0003:00003308       _wcmdln                    0000000140089308     libucrtd:argv_data.obj
 0003:00003310       __acrt_locale_changed_data 0000000140089310     libucrtd:wsetlocale.obj
 0003:00003318       _commode                   0000000140089318     libucrtd:ncommode.obj
 0003:00003320       __acrt_atexit_table        0000000140089320     libucrtd:onexit.obj
 0003:00003338       __acrt_at_quick_exit_table 0000000140089338     libucrtd:onexit.obj
 0003:00003350       __acrt_current_locale_data 0000000140089350     libucrtd:nlsdata.obj
 0003:00003358       __acrt_heap                0000000140089358     libucrtd:heap_handle.obj
 0003:00003360       _pfnReportHook             0000000140089360     libucrtd:dbgrptt.obj
 0003:00003368       _pReportHookList           0000000140089368     libucrtd:dbgrptt.obj
 0003:00003370       _pReportHookListW          0000000140089370     libucrtd:dbgrptt.obj
 0003:000033a0       __pioinfo                  00000001400893a0     libucrtd:ioinit.obj
 0003:000037a0       _nhandle                   00000001400897a0     libucrtd:ioinit.obj
 0003:00003968       __acrt_stdout_buffer       0000000140089968     libucrtd:_sftbuf.obj
 0003:00003970       __acrt_stderr_buffer       0000000140089970     libucrtd:_sftbuf.obj
 0003:00003978       __fma3_is_available        0000000140089978     libucrtd:fma3_available.obj
 0003:0000397c       __use_fma3_lib             000000014008997c     libucrtd:fma3_available.obj
 0003:00003990       ?_timezone@@3V?$dual_state_global@J@__crt_state_management@@A 0000000140089990     libucrtd:timeset.obj
 0003:00003994       ?_daylight@@3V?$dual_state_global@H@__crt_state_management@@A 0000000140089994     libucrtd:timeset.obj
 0003:00003998       ?_dstbias@@3V?$dual_state_global@J@__crt_state_management@@A 0000000140089998     libucrtd:timeset.obj
 0003:00003a70       _mbctype                   0000000140089a70     libucrtd:mbctype.obj
 0003:00003a78       _mbcasemap                 0000000140089a78     libucrtd:mbctype.obj
 0003:00003a80       __acrt_current_multibyte_data 0000000140089a80     libucrtd:mbctype.obj
 0003:00003a98       _fmode                     0000000140089a98     libucrtd:txtmode.obj
 0003:00003a9c       _umaskval                  0000000140089a9c     libucrtd:umask.obj
 0003:00003ab0       __scrt_ucrt_dll_is_in_use  0000000140089ab0     <common>
 0003:00003ab8       __dyn_tls_dtor_callback    0000000140089ab8     <common>
 0003:00003ac0       __dyn_tls_init_callback    0000000140089ac0     <common>

 entry point at        0001:0000f0d0

 Static symbols

 0000:fff6e000       .debug$S                   0000000140000000     kernel32:KERNEL32.dll
 0000:fff6e000       .debug$S                   0000000140000000     kernel32:KERNEL32.dll
 0000:fff6e000       .debug$S                   0000000140000000     kernel32:KERNEL32.dll
 0000:fff6e000       .debug$S                   0000000140000000     kernel32:KERNEL32.dll
 0000:fff6e000       .debug$S                   0000000140000000     kernel32:KERNEL32.dll
 0000:fff6e000       .debug$S                   0000000140000000     kernel32:KERNEL32.dll
 0000:fff6e000       .debug$S                   0000000140000000     kernel32:KERNEL32.dll
 0000:fff6e000       .debug$S                   0000000140000000     kernel32:KERNEL32.dll
 0000:fff6e000       .debug$S                   0000000140000000     kernel32:KERNEL32.dll
 0000:fff6e000       .debug$S                   0000000140000000     kernel32:KERNEL32.dll
 0000:fff6e000       .debug$S                   0000000140000000     kernel32:KERNEL32.dll
 0000:fff6e000       .debug$S                   0000000140000000     kernel32:KERNEL32.dll
 0000:fff6e000       .debug$S                   0000000140000000     kernel32:KERNEL32.dll
 0000:fff6e000       .debug$S                   0000000140000000     kernel32:KERNEL32.dll
 0000:fff6e000       .debug$S                   0000000140000000     kernel32:KERNEL32.dll
 0000:fff6e000       .debug$S                   0000000140000000     kernel32:KERNEL32.dll
 0000:fff6e000       .debug$S                   0000000140000000     kernel32:KERNEL32.dll
 0000:fff6e000       .debug$S                   0000000140000000     kernel32:KERNEL32.dll
 0000:fff6e000       .debug$S                   0000000140000000     kernel32:KERNEL32.dll
 0000:fff6e000       .debug$S                   0000000140000000     kernel32:KERNEL32.dll
 0000:fff6e000       .debug$S                   0000000140000000     kernel32:KERNEL32.dll
 0000:fff6e000       .debug$S                   0000000140000000     kernel32:KERNEL32.dll
 0000:fff6e000       .debug$S                   0000000140000000     kernel32:KERNEL32.dll
 0000:fff6e000       .debug$S                   0000000140000000     kernel32:KERNEL32.dll
 0000:fff6e000       .debug$S                   0000000140000000     kernel32:KERNEL32.dll
 0000:fff6e000       .debug$S                   0000000140000000     kernel32:KERNEL32.dll
 0000:fff6e000       .debug$S                   0000000140000000     kernel32:KERNEL32.dll
 0000:fff6e000       .debug$S                   0000000140000000     kernel32:KERNEL32.dll
 0000:fff6e000       .debug$S                   0000000140000000     kernel32:KERNEL32.dll
 0000:fff6e000       .debug$S                   0000000140000000     kernel32:KERNEL32.dll
 0000:fff6e000       .debug$S                   0000000140000000     kernel32:KERNEL32.dll
 0000:fff6e000       .debug$S                   0000000140000000     kernel32:KERNEL32.dll
 0000:fff6e000       .debug$S                   0000000140000000     kernel32:KERNEL32.dll
 0000:fff6e000       .debug$S                   0000000140000000     kernel32:KERNEL32.dll
 0000:fff6e000       .debug$S                   0000000140000000     kernel32:KERNEL32.dll
 0000:fff6e000       .debug$S                   0000000140000000     kernel32:KERNEL32.dll
 0000:fff6e000       .debug$S                   0000000140000000     kernel32:KERNEL32.dll
 0000:fff6e000       .debug$S                   0000000140000000     kernel32:KERNEL32.dll
 0000:fff6e000       .debug$S                   0000000140000000     kernel32:KERNEL32.dll
 0000:fff6e000       .debug$S                   0000000140000000     kernel32:KERNEL32.dll
 0000:fff6e000       .debug$S                   0000000140000000     kernel32:KERNEL32.dll
 0000:fff6e000       .debug$S                   0000000140000000     kernel32:KERNEL32.dll
 0000:fff6e000       .debug$S                   0000000140000000     kernel32:KERNEL32.dll
 0000:fff6e000       .debug$S                   0000000140000000     kernel32:KERNEL32.dll
 0000:fff6e000       .debug$S                   0000000140000000     kernel32:KERNEL32.dll
 0000:fff6e000       .debug$S                   0000000140000000     kernel32:KERNEL32.dll
 0000:fff6e000       .debug$S                   0000000140000000     kernel32:KERNEL32.dll
 0000:fff6e000       .debug$S                   0000000140000000     kernel32:KERNEL32.dll
 0000:fff6e000       .debug$S                   0000000140000000     kernel32:KERNEL32.dll
 0000:fff6e000       .debug$S                   0000000140000000     kernel32:KERNEL32.dll
 0000:fff6e000       .debug$S                   0000000140000000     kernel32:KERNEL32.dll
 0000:fff6e000       .debug$S                   0000000140000000     kernel32:KERNEL32.dll
 0000:fff6e000       .debug$S                   0000000140000000     kernel32:KERNEL32.dll
 0000:fff6e000       .debug$S                   0000000140000000     kernel32:KERNEL32.dll
 0000:fff6e000       .debug$S                   0000000140000000     kernel32:KERNEL32.dll
 0000:fff6e000       .debug$S                   0000000140000000     kernel32:KERNEL32.dll
 0000:fff6e000       .debug$S                   0000000140000000     kernel32:KERNEL32.dll
 0000:fff6e000       .debug$S                   0000000140000000     kernel32:KERNEL32.dll
 0000:fff6e000       .debug$S                   0000000140000000     kernel32:KERNEL32.dll
 0000:fff6e000       .debug$S                   0000000140000000     kernel32:KERNEL32.dll
 0000:fff6e000       .debug$S                   0000000140000000     kernel32:KERNEL32.dll
 0000:fff6e000       .debug$S                   0000000140000000     kernel32:KERNEL32.dll
 0000:fff6e000       .debug$S                   0000000140000000     kernel32:KERNEL32.dll
 0000:fff6e000       .debug$S                   0000000140000000     kernel32:KERNEL32.dll
 0000:fff6e000       .debug$S                   0000000140000000     kernel32:KERNEL32.dll
 0000:fff6e000       .debug$S                   0000000140000000     kernel32:KERNEL32.dll
 0000:fff6e000       .debug$S                   0000000140000000     kernel32:KERNEL32.dll
 0000:fff6e000       .debug$S                   0000000140000000     kernel32:KERNEL32.dll
 0000:fff6e000       .debug$S                   0000000140000000     kernel32:KERNEL32.dll
 0000:fff6e000       .debug$S                   0000000140000000     kernel32:KERNEL32.dll
 0000:fff6e000       .debug$S                   0000000140000000     kernel32:KERNEL32.dll
 0000:fff6e000       .debug$S                   0000000140000000     kernel32:KERNEL32.dll
 0000:fff6e000       .debug$S                   0000000140000000     kernel32:KERNEL32.dll
 0000:fff6e000       .debug$S                   0000000140000000     kernel32:KERNEL32.dll
 0000:fff6e000       .debug$S                   0000000140000000     kernel32:KERNEL32.dll
 0000:fff6e000       .debug$S                   0000000140000000     kernel32:KERNEL32.dll
 0000:fff6e000       .debug$S                   0000000140000000     kernel32:KERNEL32.dll
 0000:fff6e000       .debug$S                   0000000140000000     kernel32:KERNEL32.dll
 0000:fff6e000       .debug$S                   0000000140000000     kernel32:KERNEL32.dll
 0000:fff6e000       .debug$S                   0000000140000000     kernel32:KERNEL32.dll
 0000:fff6e000       .debug$S                   0000000140000000     kernel32:KERNEL32.dll
 0000:fff6e000       .debug$S                   0000000140000000     kernel32:KERNEL32.dll
 0000:fff6e000       .debug$S                   0000000140000000     kernel32:KERNEL32.dll
 0000:fff6e000       .debug$S                   0000000140000000     kernel32:KERNEL32.dll
 0000:fff6e000       .debug$S                   0000000140000000     kernel32:KERNEL32.dll
 0000:fff6e000       .debug$S                   0000000140000000     kernel32:KERNEL32.dll
 0000:fff6e000       .debug$S                   0000000140000000     kernel32:KERNEL32.dll
 0000:fff6e000       .debug$S                   0000000140000000     kernel32:KERNEL32.dll
 0000:fff6e000       .debug$S                   0000000140000000     kernel32:KERNEL32.dll
 0000:fff6e000       .debug$S                   0000000140000000     kernel32:KERNEL32.dll
 0000:fff6e000       .debug$S                   0000000140000000     kernel32:KERNEL32.dll
 0000:fff6e000       .debug$S                   0000000140000000     kernel32:KERNEL32.dll
 0000:fff6e000       .debug$S                   0000000140000000     kernel32:KERNEL32.dll
 0000:fff6e000       .debug$S                   0000000140000000     kernel32:KERNEL32.dll
 0000:fff6e000       .debug$S                   0000000140000000     kernel32:KERNEL32.dll
 0000:fff6e000       .debug$S                   0000000140000000     kernel32:KERNEL32.dll
 0000:fff6e000       .debug$S                   0000000140000000     kernel32:KERNEL32.dll
 0001:00000000       ??__E?id@?$num_put@DV?$ostreambuf_iterator@DU?$char_traits@D@std@@@std@@@std@@2V0locale@2@A@@YAXXZ 0000000140001000 f   main.obj
 0001:00000020       ??__E?id@?$numpunct@D@std@@2V0locale@2@A@@YAXXZ 0000000140001020 f   main.obj
 0001:00000040       ??__Einitlocks@std@@YAXXZ  0000000140001040 f   libcpmtd:xlock.obj
 0001:00000070       ??__E?id@?$codecvt@GDU_Mbstatet@@@std@@2V0locale@2@A@@YAXXZ 0000000140001070 f   libcpmtd:locale0.obj
 0001:00000090       ??__E?id@?$codecvt@_WDU_Mbstatet@@@std@@2V0locale@2@A@@YAXXZ 0000000140001090 f   libcpmtd:locale0.obj
 0001:000000b0       ??__E?id@?$ctype@D@std@@2V0locale@2@A@@YAXXZ 00000001400010b0 f   libcpmtd:locale0.obj
 0001:000000d0       ??__E?id@?$ctype@G@std@@2V0locale@2@A@@YAXXZ 00000001400010d0 f   libcpmtd:locale0.obj
 0001:000000f0       ??__E?id@?$ctype@_W@std@@2V0locale@2@A@@YAXXZ 00000001400010f0 f   libcpmtd:locale0.obj
 0001:00000110       ??__Eclassic_locale@std@@YAXXZ 0000000140001110 f   libcpmtd:locale0.obj
 0001:00000140       ??__F_Fac_tidy_reg@std@@YAXXZ 0000000140001140 f   libcpmtd:locale0.obj
 0001:00000160       ??__E?id@?$codecvt@DDU_Mbstatet@@@std@@2V0locale@2@A@@YAXXZ 0000000140001160 f   libcpmtd:cin.obj
 0001:00000180       ??__Ecin@std@@YAXXZ        0000000140001180 f   libcpmtd:cin.obj
 0001:000001c0       ??__Efin@std@@YAXXZ        00000001400011c0 f   libcpmtd:cin.obj
 0001:000001f0       ??__Einit_cin@std@@YAXXZ   00000001400011f0 f   libcpmtd:cin.obj
 0001:00000210       ??__Einitlocks@@YAXXZ      0000000140001210 f   libcpmtd:cin.obj
 0001:00000240       ??__Ecout@std@@YAXXZ       0000000140001240 f   libcpmtd:cout.obj
 0001:00000280       ??__Efout@std@@YAXXZ       0000000140001280 f   libcpmtd:cout.obj
 0001:000002b0       ??__Einit_cout@std@@YAXXZ  00000001400012b0 f   libcpmtd:cout.obj
 0001:000002d0       ??__Einitlocks@@YAXXZ      00000001400012d0 f   libcpmtd:cout.obj
 0001:00000300       ??__E?id@?$num_get@DV?$istreambuf_iterator@DU?$char_traits@D@std@@@std@@@std@@2V0locale@2@A@@YAXXZ 0000000140001300 f   libcpmtd:locale.obj
 0001:00000320       ??__Einitlocks@std@@YAXXZ  0000000140001320 f   libcpmtd:iosptrs.obj
 0001:00000350       ??__Finit_atexit@@YAXXZ    0000000140001350 f   libcpmtd:iosptrs.obj
 0001:00000370       ??__E?id@?$collate@G@std@@2V0locale@2@A@@YAXXZ 0000000140001370 f   libcpmtd:wlocale.obj
 0001:00000390       ??__E?id@?$collate@_W@std@@2V0locale@2@A@@YAXXZ 0000000140001390 f   libcpmtd:wlocale.obj
 0001:000003b0       ??__E?id@?$messages@G@std@@2V0locale@2@A@@YAXXZ 00000001400013b0 f   libcpmtd:wlocale.obj
 0001:000003d0       ??__E?id@?$messages@_W@std@@2V0locale@2@A@@YAXXZ 00000001400013d0 f   libcpmtd:wlocale.obj
 0001:000003f0       ??__E?id@?$money_get@GV?$istreambuf_iterator@GU?$char_traits@G@std@@@std@@@std@@2V0locale@2@A@@YAXXZ 00000001400013f0 f   libcpmtd:wlocale.obj
 0001:00000410       ??__E?id@?$money_get@_WV?$istreambuf_iterator@_WU?$char_traits@_W@std@@@std@@@std@@2V0locale@2@A@@YAXXZ 0000000140001410 f   libcpmtd:wlocale.obj
 0001:00000430       ??__E?id@?$money_put@GV?$ostreambuf_iterator@GU?$char_traits@G@std@@@std@@@std@@2V0locale@2@A@@YAXXZ 0000000140001430 f   libcpmtd:wlocale.obj
 0001:00000450       ??__E?id@?$money_put@_WV?$ostreambuf_iterator@_WU?$char_traits@_W@std@@@std@@@std@@2V0locale@2@A@@YAXXZ 0000000140001450 f   libcpmtd:wlocale.obj
 0001:00000470       ??__E?id@?$moneypunct@G$00@std@@2V0locale@2@A@@YAXXZ 0000000140001470 f   libcpmtd:wlocale.obj
 0001:00000490       ??__E?id@?$moneypunct@G$0A@@std@@2V0locale@2@A@@YAXXZ 0000000140001490 f   libcpmtd:wlocale.obj
 0001:000004b0       ??__E?id@?$moneypunct@_W$00@std@@2V0locale@2@A@@YAXXZ 00000001400014b0 f   libcpmtd:wlocale.obj
 0001:000004d0       ??__E?id@?$moneypunct@_W$0A@@std@@2V0locale@2@A@@YAXXZ 00000001400014d0 f   libcpmtd:wlocale.obj
 0001:000004f0       ??__E?id@?$num_get@GV?$istreambuf_iterator@GU?$char_traits@G@std@@@std@@@std@@2V0locale@2@A@@YAXXZ 00000001400014f0 f   libcpmtd:wlocale.obj
 0001:00000510       ??__E?id@?$num_get@_WV?$istreambuf_iterator@_WU?$char_traits@_W@std@@@std@@@std@@2V0locale@2@A@@YAXXZ 0000000140001510 f   libcpmtd:wlocale.obj
 0001:00000530       ??__E?id@?$num_put@GV?$ostreambuf_iterator@GU?$char_traits@G@std@@@std@@@std@@2V0locale@2@A@@YAXXZ 0000000140001530 f   libcpmtd:wlocale.obj
 0001:00000550       ??__E?id@?$num_put@_WV?$ostreambuf_iterator@_WU?$char_traits@_W@std@@@std@@@std@@2V0locale@2@A@@YAXXZ 0000000140001550 f   libcpmtd:wlocale.obj
 0001:00000570       ??__E?id@?$numpunct@G@std@@2V0locale@2@A@@YAXXZ 0000000140001570 f   libcpmtd:wlocale.obj
 0001:00000590       ??__E?id@?$numpunct@_W@std@@2V0locale@2@A@@YAXXZ 0000000140001590 f   libcpmtd:wlocale.obj
 0001:000005b0       ??__E?id@?$time_get@GV?$istreambuf_iterator@GU?$char_traits@G@std@@@std@@@std@@2V0locale@2@A@@YAXXZ 00000001400015b0 f   libcpmtd:wlocale.obj
 0001:000005d0       ??__E?id@?$time_get@_WV?$istreambuf_iterator@_WU?$char_traits@_W@std@@@std@@@std@@2V0locale@2@A@@YAXXZ 00000001400015d0 f   libcpmtd:wlocale.obj
 0001:000005f0       ??__E?id@?$time_put@GV?$ostreambuf_iterator@GU?$char_traits@G@std@@@std@@@std@@2V0locale@2@A@@YAXXZ 00000001400015f0 f   libcpmtd:wlocale.obj
 0001:00000610       ??__E?id@?$time_put@_WV?$ostreambuf_iterator@_WU?$char_traits@_W@std@@@std@@@std@@2V0locale@2@A@@YAXXZ 0000000140001610 f   libcpmtd:wlocale.obj
 0001:00000630       ??__E?id@?$collate@D@std@@2V0locale@2@A@@YAXXZ 0000000140001630 f   libcpmtd:xlocale.obj
 0001:00000650       ??__E?id@?$messages@D@std@@2V0locale@2@A@@YAXXZ 0000000140001650 f   libcpmtd:xlocale.obj
 0001:00000670       ??__E?id@?$money_get@DV?$istreambuf_iterator@DU?$char_traits@D@std@@@std@@@std@@2V0locale@2@A@@YAXXZ 0000000140001670 f   libcpmtd:xlocale.obj
 0001:00000690       ??__E?id@?$money_put@DV?$ostreambuf_iterator@DU?$char_traits@D@std@@@std@@@std@@2V0locale@2@A@@YAXXZ 0000000140001690 f   libcpmtd:xlocale.obj
 0001:000006b0       ??__E?id@?$moneypunct@D$00@std@@2V0locale@2@A@@YAXXZ 00000001400016b0 f   libcpmtd:xlocale.obj
 0001:000006d0       ??__E?id@?$moneypunct@D$0A@@std@@2V0locale@2@A@@YAXXZ 00000001400016d0 f   libcpmtd:xlocale.obj
 0001:000006f0       ??__E?id@?$time_get@DV?$istreambuf_iterator@DU?$char_traits@D@std@@@std@@@std@@2V0locale@2@A@@YAXXZ 00000001400016f0 f   libcpmtd:xlocale.obj
 0001:00000710       ??__E?id@?$time_put@DV?$ostreambuf_iterator@DU?$char_traits@D@std@@@std@@@std@@2V0locale@2@A@@YAXXZ 0000000140001710 f   libcpmtd:xlocale.obj
 0001:00000730       ?ReadData@@YA_NPEAD0AEAUimage_data@@@Z 0000000140001730 f   main.obj
 0001:00000a40       ?VulkanLoadGlobalFunctions@@YA_NXZ 0000000140001a40 f   main.obj
 0001:00000ad0       ?VulkanLoadInstanceFunctions@@YA_NXZ 0000000140001ad0 f   main.obj
 0001:00000cd0       ?VulkanLoadDeviceFunctions@@YA_NXZ 0000000140001cd0 f   main.obj
 0001:00001500       ?LoadDLL@Vulkan@@YA_NXZ    0000000140002500 f   main.obj
 0001:00001570       ?Initialize@Vulkan@@YA_NXZ 0000000140002570 f   main.obj
 0001:00001e30       ?CreatePipeline@Vulkan@@YA_NW4pipeline_type@@@Z 0000000140002e30 f   main.obj
 0001:00002b50       ?CreateBuffer@Vulkan@@YA_NI_KIAEAUvulkan_buffer@@_N@Z 0000000140003b50 f   main.obj
 0001:00002d60       ?AllocateNeuralNetMemory@Vulkan@@YA_NPEAIIPEAPEAM1111@Z 0000000140003d60 f   main.obj
 0001:00003030       ?GetGroupCountAndBatches@Vulkan@@YAXIIAEAI0@Z 0000000140004030 f   main.obj
 0001:00003190       ?FeedForwardCompute@Vulkan@@YA_NIIIIIII@Z 0000000140004190 f   main.obj
 0001:00003420       ?BackPropagateCompute@Vulkan@@YA_NIIIIIII@Z 0000000140004420 f   main.obj
 0001:000036b0       ?LoadShader@Vulkan@@YA_NPEADPEAPEAUVkShaderModule_T@@@Z 00000001400046b0 f   main.obj
 0001:000038d0       ?FindMemoryProperties@Vulkan@@YA_NIIAEAI@Z 00000001400048d0 f   main.obj
 0001:000039d0       ?DebugCallback@Vulkan@@YAIW4VkDebugUtilsMessageSeverityFlagBitsEXT@@IPEBUVkDebugUtilsMessengerCallbackDataEXT@@PEAX@Z 00000001400049d0 f   main.obj
 0001:00003bf0       ?CreateNeuralNet@@YA_NPEAIIAEAUneural_net@@Uimage_data@@2@Z 0000000140004bf0 f   main.obj
 0001:00004040       ?FeedForward@@YAXAEAUneural_net@@I@Z 0000000140005040 f   main.obj
 0001:000041b0       ?BackPropagate@@YAXAEAUneural_net@@@Z 00000001400051b0 f   main.obj
 0001:000042e0       ?TrainNeuralNet@@YAXAEAUneural_net@@AEAUimage_data@@@Z 00000001400052e0 f   main.obj
 0001:00005220       ??R<lambda_eacf905e26ee9b3ecaf8c83fb6d01ccf>@@QEBAXXZ 0000000140006220 f i libucrtd:wsetlocale.obj
 0001:000062b0       ??0<lambda_8d0ee55de4b1038c4002e0adecdf1839>@@QEAA@AEBQEAU__acrt_ptd@@@Z 00000001400072b0 f i libucrtd:per_thread_data.obj
 0001:000062b0       ??0<lambda_8f455de75cd7d7f24b4096f044d8b9e6>@@QEAA@AEBQEAU__acrt_ptd@@@Z 00000001400072b0 f i libucrtd:per_thread_data.obj
 0001:000062b0       ??0<lambda_e157831efee4ea0afb0a2ace5dd5fd0d>@@QEAA@AEBQEAU__acrt_ptd@@@Z 00000001400072b0 f i libucrtd:per_thread_data.obj
 0001:000062b0       ??0<lambda_6c3dac0a4f3f9cefca9bb494422f9b77>@@QEAA@AEBQ6AHPEA_WK_J@Z@Z 00000001400072b0 f i libucrtd:winapi_thunks.obj
 0001:000062b0       ??0<lambda_02db5278e8aef8b5e4976579d73f5304>@@QEAA@AEBQEAU__acrt_ptd@@@Z 00000001400072b0 f i libucrtd:wsetlocale.obj
 0001:000062b0       ??0<lambda_4e7105787b7b0e0227fbf2b2d883fa65>@@QEAA@AEBH@Z 00000001400072b0 f i libucrtd:close.obj
 0001:000062b0       ??0<lambda_5533cddd4bda0037814beee657757329>@@QEAA@AEBH@Z 00000001400072b0 f i libucrtd:commit.obj
 0001:000062b0       ??0<lambda_df1553121bfa390f1154bd84936f2730>@@QEAA@AEAV?$__crt_unique_heap_ptr@PEADU__crt_internal_free_policy@@@@@Z 00000001400072b0 f i libucrtd:argv_parsing.obj
 0001:000062b0       ??0<lambda_d121dba8a4adeaf3a9819e48611155df>@@QEAA@AEBQEAU_onexit_table_t@@@Z 00000001400072b0 f i libucrtd:onexit.obj
 0001:000062b0       ??0<lambda_9a32fed5bf61b6b509b2d3f6003082a1>@@QEAA@AEBV__crt_stdio_stream@@@Z 00000001400072b0 f i libucrtd:fflush.obj
 0001:00006a30       ?adjustIp@@YA_KPEAU_xDISPATCHER_CONTEXT@@_K@Z 0000000140007a30 f i libvcruntimed:ehstate.obj
 0001:00008700       ?end@?$argument_list@D@?A0x5f5c8891@@QEBAPEAPEADXZ 0000000140009700 f i libucrtd:argv_wildcards.obj
 0001:00009960       ??0<lambda_92619d2358a28f41a33ba319515a20b9>@@QEAA@AEBQEAU__acrt_ptd@@AEBQEAPEAU__crt_locale_data@@@Z 000000014000a960 f i libucrtd:per_thread_data.obj
 0001:00009960       ??0<lambda_996e5bbe595b6575b96cd8ed43795d0b>@@QEAA@AEAHAEAPEBD@Z 000000014000a960 f i libucrtd:setlocale.obj
 0001:00009960       ??0<lambda_bd5a608237428601b7e45fbdc72b1ae8>@@QEAA@AEBQEAU__acrt_ptd@@AEBQEAPEAU__crt_multibyte_data@@@Z 000000014000a960 f i libucrtd:mbctype.obj
 0001:00009960       ??0<lambda_3b83eb014488ad801d84acef5aaf14d3>@@QEAA@AEBQEAU_onexit_table_t@@AEBQ6AHXZ@Z 000000014000a960 f i libucrtd:onexit.obj
 0001:0000a2a0       tidy_global                000000014000b2a0 f   libcpmtd:locale0.obj
 0001:0000d020       no_op_initialize           000000014000e020 f i libucrtd:wsetlocale.obj
 0001:0000e230       ?begin@?$argument_list@D@?A0x5f5c8891@@QEBAPEAPEADXZ 000000014000f230 f i libucrtd:argv_wildcards.obj
 0001:0000ec90       $$000000                   000000014000fc90     LIBCMTD:chkstk.obj
 0001:0000ed50       ?pre_c_initialization@@YAHXZ 000000014000fd50 f   LIBCMTD:exe_main.obj
 0001:0000ee10       ?post_pgo_initialization@@YAHXZ 000000014000fe10 f   LIBCMTD:exe_main.obj
 0001:0000ee20       ?pre_cpp_initialization@@YAXXZ 000000014000fe20 f   LIBCMTD:exe_main.obj
 0001:0000ee40       ?__scrt_common_main@@YAHXZ 000000014000fe40 f   LIBCMTD:exe_main.obj
 0001:0000ee60       ?__scrt_common_main_seh@@YAHXZ 000000014000fe60 f   LIBCMTD:exe_main.obj
 0001:0000f030       ?invoke_main@@YAHXZ        0000000140010030 f   LIBCMTD:exe_main.obj
 0001:0000f0f0       ?find_pe_section@@YAPEAU_IMAGE_SECTION_HEADER@@QEAE_K@Z 00000001400100f0 f   LIBCMTD:utility.obj
 0001:0000f1c0       ?is_potentially_valid_image_base@@YA_NQEAX@Z 00000001400101c0 f   LIBCMTD:utility.obj
 0001:0000f850       ?capture_current_context@@YAXQEAU_CONTEXT@@@Z 0000000140010850 f   libucrtd:invalid_parameter.obj
 0001:0000f850       capture_current_context    0000000140010850 f   LIBCMTD:gs_report.obj
 0001:0000f8f0       capture_previous_context   00000001400108f0 f   LIBCMTD:gs_report.obj
 0001:0000fbc0       $$000000                   0000000140010bc0     LIBCMTD:amdsecgs.obj
 0001:0000fbf0       __get_entropy              0000000140010bf0 f   LIBCMTD:gs_support.obj
 0001:0000fd80       initialize_environment     0000000140010d80 f   libucrtd:initialization.obj
 0001:0000fd80       initialize_global_state_isolation 0000000140010d80 f   libucrtd:initialization.obj
 0001:0000fd90       init_memcpy_functions      0000000140010d90 f   libvcruntimed:initialization.obj
 0001:00010a40       ??$SehTransFilter@V__FrameHandler3@@@@YAHPEAU_EXCEPTION_POINTERS@@PEAUEHExceptionRecord@@PEA_KPEAU_CONTEXT@@PEAU_xDISPATCHER_CONTEXT@@PEBU_s_FuncInfo@@HPEAH@Z 0000000140011a40 f   libvcruntimed:risctrnsctrl.obj
 0001:00010af0       ??$SehTransFilter@V__FrameHandler4@@@@YAHPEAU_EXCEPTION_POINTERS@@PEAUEHExceptionRecord@@PEA_KPEAU_CONTEXT@@PEAU_xDISPATCHER_CONTEXT@@PEAUFuncInfo4@FH4@@HPEAH@Z 0000000140011af0 f   libvcruntimed:risctrnsctrl.obj
 0001:00012130       $$000000                   0000000140013130     libvcruntimed:memcpy.obj
 0001:00012830       $$000000                   0000000140013830     libvcruntimed:memset.obj
 0001:000129f0       $$000000                   00000001400139f0     libvcruntimed:memchr.obj
 0001:00012a70       $$000000                   0000000140013a70     libvcruntimed:memcmp.obj
 0001:00013190       ?_FilterSetCurrentException@@YAKPEAU_EXCEPTION_POINTERS@@E@Z 0000000140014190 f   libvcruntimed:ehhelpers.obj
 0001:000133f0       ??0scoped_get_last_error_reset@?A0x3f7050a2@@QEAA@XZ 00000001400143f0 f   libvcruntimed:per_thread_data.obj
 0001:00013410       ??1scoped_get_last_error_reset@?A0x3f7050a2@@QEAA@XZ 0000000140014410 f   libvcruntimed:per_thread_data.obj
 0001:00013430       ?store_and_initialize_ptd@@YA_NQEAU__vcrt_ptd@@@Z 0000000140014430 f   libvcruntimed:per_thread_data.obj
 0001:00013b60       ??$BuildCatchObjectHelperInternal@V__FrameHandler3@@@@YAHPEAUEHExceptionRecord@@PEAXPEBU_s_HandlerType@@PEBU_s_CatchableType@@@Z 0000000140014b60 f   libvcruntimed:frame.obj
 0001:00013f40       ??$BuildCatchObjectHelperInternal@V__FrameHandler4@@@@YAHPEAUEHExceptionRecord@@PEAXPEAUHandlerType4@FH4@@PEBU_s_CatchableType@@@Z 0000000140014f40 f   libvcruntimed:frame.obj
 0001:00014330       ??$BuildCatchObjectInternal@V__FrameHandler3@@@@YAXPEAUEHExceptionRecord@@PEAXPEBU_s_HandlerType@@PEBU_s_CatchableType@@@Z 0000000140015330 f   libvcruntimed:frame.obj
 0001:00014480       ??$BuildCatchObjectInternal@V__FrameHandler4@@@@YAXPEAUEHExceptionRecord@@PEAXPEAUHandlerType4@FH4@@PEBU_s_CatchableType@@@Z 0000000140015480 f   libvcruntimed:frame.obj
 0001:000145d0       ??$CatchIt@V__FrameHandler3@@@@YAXPEAUEHExceptionRecord@@PEA_KPEAU_CONTEXT@@PEAU_xDISPATCHER_CONTEXT@@PEBU_s_FuncInfo@@PEBU_s_HandlerType@@PEBU_s_CatchableType@@PEBU_s_TryBlockMapEntry@@H1EE@Z 00000001400155d0 f   libvcruntimed:frame.obj
 0001:00014710       ??$CatchIt@V__FrameHandler4@@@@YAXPEAUEHExceptionRecord@@PEA_KPEAU_CONTEXT@@PEAU_xDISPATCHER_CONTEXT@@PEAUFuncInfo4@FH4@@PEAUHandlerType4@4@PEBU_s_CatchableType@@PEAUTryBlockMapEntry4@4@H1EE@Z 0000000140015710 f   libvcruntimed:frame.obj
 0001:00014850       ??$FindHandler@V__FrameHandler3@@@@YAXPEAUEHExceptionRecord@@PEA_KPEAU_CONTEXT@@PEAU_xDISPATCHER_CONTEXT@@PEBU_s_FuncInfo@@EH1@Z 0000000140015850 f   libvcruntimed:frame.obj
 0001:00015020       ??$FindHandler@V__FrameHandler4@@@@YAXPEAUEHExceptionRecord@@PEA_KPEAU_CONTEXT@@PEAU_xDISPATCHER_CONTEXT@@PEAUFuncInfo4@FH4@@EH1@Z 0000000140016020 f   libvcruntimed:frame.obj
 0001:000156d0       ??$FindHandlerForForeignException@V__FrameHandler3@@@@YAXPEAUEHExceptionRecord@@PEA_KPEAU_CONTEXT@@PEAU_xDISPATCHER_CONTEXT@@PEBU_s_FuncInfo@@HH1@Z 00000001400166d0 f   libvcruntimed:frame.obj
 0001:00015a30       ??$FindHandlerForForeignException@V__FrameHandler4@@@@YAXPEAUEHExceptionRecord@@PEA_KPEAU_CONTEXT@@PEAU_xDISPATCHER_CONTEXT@@PEAUFuncInfo4@FH4@@HH1@Z 0000000140016a30 f   libvcruntimed:frame.obj
 0001:000179c0       ?ExFilterRethrow@@YAHPEAU_EXCEPTION_POINTERS@@PEAUEHExceptionRecord@@PEAH@Z 00000001400189c0 f   libvcruntimed:frame.obj
 0001:00017ac0       ?ExFilterRethrowFH4@@YAHPEAU_EXCEPTION_POINTERS@@PEAUEHExceptionRecord@@HPEAH@Z 0000000140018ac0 f   libvcruntimed:frame.obj
 0001:00018210       ?IsInExceptionSpec@@YAEPEAUEHExceptionRecord@@PEBU_s_ESTypeList@@@Z 0000000140019210 f   libvcruntimed:frame.obj
 0001:00018330       ?Is_bad_exception_allowed@@YAEPEBU_s_ESTypeList@@@Z 0000000140019330 f   libvcruntimed:frame.obj
 0001:00018650       ?__RethrowException@@YAXPEAUEHExceptionRecord@@@Z 0000000140019650 f   libvcruntimed:frame.obj
 0001:00018bd0       $$000000                   0000000140019bd0     libvcruntimed:notify.obj
 0001:00018d70       ?invalid_function_sentinel@@YAPEAXXZ 0000000140019d70 f   libucrtd:winapi_thunks.obj
 0001:00018d70       ?invalid_function_sentinel@@YAPEAXXZ 0000000140019d70 f   libvcruntimed:winapi_downlevel.obj
 0001:00018d80       ?try_get_FlsAlloc@@YAP6AKP6AXPEAX@Z@ZXZ 0000000140019d80 f   libvcruntimed:winapi_downlevel.obj
 0001:00018db0       ?try_get_FlsFree@@YAP6AHK@ZXZ 0000000140019db0 f   libvcruntimed:winapi_downlevel.obj
 0001:00018de0       ?try_get_FlsGetValue@@YAP6APEAXK@ZXZ 0000000140019de0 f   libvcruntimed:winapi_downlevel.obj
 0001:00018e10       ?try_get_FlsSetValue@@YAP6AHKPEAX@ZXZ 0000000140019e10 f   libvcruntimed:winapi_downlevel.obj
 0001:00018e40       ?try_get_InitializeCriticalSectionEx@@YAP6AHPEAU_RTL_CRITICAL_SECTION@@KK@ZXZ 0000000140019e40 f   libvcruntimed:winapi_downlevel.obj
 0001:00018e70       ?try_get_first_available_module@@YAPEAUHINSTANCE__@@QEBW4module_id@?A0x3064ecbf@@0@Z 0000000140019e70 f   libvcruntimed:winapi_downlevel.obj
 0001:00018ed0       ?try_get_function@@YAPEAXW4function_id@?A0x3064ecbf@@QEBDQEBW4module_id@2@2@Z 0000000140019ed0 f   libvcruntimed:winapi_downlevel.obj
 0001:00019040       ?try_get_module@@YAPEAUHINSTANCE__@@W4module_id@?A0x3064ecbf@@@Z 000000014001a040 f   libvcruntimed:winapi_downlevel.obj
 0001:000191a0       ?try_get_proc_address_from_first_available_module@@YAPEAXQEBDQEBW4module_id@?A0x3064ecbf@@1@Z 000000014001a1a0 f   libvcruntimed:winapi_downlevel.obj
 0001:000191f0       ?try_load_library_from_system_directory@@YAPEAUHINSTANCE__@@QEB_W@Z 000000014001a1f0 f   libvcruntimed:winapi_downlevel.obj
 0001:00019420       $$000000                   000000014001a420     libvcruntimed:handlers.obj
 0001:00019a60       ?block_from_header@@YAPEAEQEAU_CrtMemBlockHeader@@@Z 000000014001aa60 f   libucrtd:debug_heap.obj
 0001:00019a70       ?check_block@@YA_NQEAU_CrtMemBlockHeader@@@Z 000000014001aa70 f   libucrtd:debug_heap.obj
 0001:00019e30       ?check_bytes@@YA_NQEBEE_K@Z 000000014001ae30 f   libucrtd:debug_heap.obj
 0001:00019ea0       ?dump_all_object_since_nolock@@YAXQEBU_CrtMemState@@@Z 000000014001aea0 f   libucrtd:debug_heap.obj
 0001:0001a260       ?free_dbg_nolock@@YAXQEAXH@Z 000000014001b260 f   libucrtd:debug_heap.obj
 0001:0001a8b0       ?header_from_block@@YAPEAU_CrtMemBlockHeader@@QEBX@Z 000000014001b8b0 f   libucrtd:debug_heap.obj
 0001:0001a8c0       ?heap_alloc_dbg@@YAPEAX_KHQEBDH@Z 000000014001b8c0 f   libucrtd:debug_heap.obj
 0001:0001a960       ?heap_alloc_dbg_internal@@YAPEAX_KHQEBDH@Z 000000014001b960 f   libucrtd:debug_heap.obj
 0001:0001ada0       ?is_bad_read_pointer@@YA_NQEBX_K@Z 000000014001bda0 f   libucrtd:debug_heap.obj
 0001:0001aeb0       ?is_block_an_aligned_allocation@@YA_NQEBX@Z 000000014001beb0 f   libucrtd:debug_heap.obj
 0001:0001aef0       ?is_block_type_valid@@YA_NH@Z 000000014001bef0 f   libucrtd:debug_heap.obj
 0001:0001af40       ?print_block_data@@YAXQEAU__crt_locale_pointers@@QEAU_CrtMemBlockHeader@@@Z 000000014001bf40 f   libucrtd:debug_heap.obj
 0001:0001b170       ?realloc_dbg_nolock@@YAPEAXQEAXQEA_KHQEBDH_N@Z 000000014001c170 f   libucrtd:debug_heap.obj
 0001:0001b990       ?validate_heap_if_required_nolock@@YAXXZ 000000014001c990 f   libucrtd:debug_heap.obj
 0001:0001c7a0       ??$common_message_window@D@@YAHHQEAXQEBD111@Z 000000014001d7a0 f   libucrtd:dbgrpt.obj
 0001:0001ce70       ??$common_message_window@_W@@YAHHQEAXQEB_W111@Z 000000014001de70 f   libucrtd:dbgrpt.obj
 0001:0001d6d0       ?get_output_message_format@@YAPEB_WD@Z 000000014001e6d0 f   libucrtd:dbgrpt.obj
 0001:0001d6e0       ?get_output_message_format@@YAPEB_W_W@Z 000000014001e6e0 f   libucrtd:dbgrpt.obj
 0001:0001d6f0       ?get_program_name_unknown_text@@YAPEBDD@Z 000000014001e6f0 f   libucrtd:dbgrpt.obj
 0001:0001d700       ?get_program_name_unknown_text@@YAPEB_W_W@Z 000000014001e700 f   libucrtd:dbgrpt.obj
 0001:0001de50       ??$common_fsopen@D@@YAPEAU_iobuf@@QEBD0H@Z 000000014001ee50 f   libucrtd:fopen.obj
 0001:0001ee10       memcpy_s                   000000014001fe10 f   libucrtd:strtod.obj
 0001:0001ee10       memcpy_s                   000000014001fe10 f   libucrtd:mbctype.obj
 0001:0001ee10       memcpy_s                   000000014001fe10 f   libucrtd:fread.obj
 0001:0001f030       ?common_fseek@@YAHV__crt_stdio_stream@@_JH@Z 0000000140020030 f   libucrtd:fseek.obj
 0001:0001f200       ?common_fseek_binary_mode_read_only_fast_track_nolock@@YA_NV__crt_stdio_stream@@_JH@Z 0000000140020200 f   libucrtd:fseek.obj
 0001:0001f430       ?common_fseek_nolock@@YAHV__crt_stdio_stream@@_JH@Z 0000000140020430 f   libucrtd:fseek.obj
 0001:0001f6e0       ??$common_ftell@J@@YAJV__crt_stdio_stream@@@Z 00000001400206e0 f   libucrtd:ftell.obj
 0001:0001f7e0       ??$common_ftell@_J@@YA_JV__crt_stdio_stream@@@Z 00000001400207e0 f   libucrtd:ftell.obj
 0001:0001f8e0       ??$common_ftell_nolock@J@@YAJV__crt_stdio_stream@@@Z 00000001400208e0 f   libucrtd:ftell.obj
 0001:0001f920       ??$common_ftell_nolock@_J@@YA_JV__crt_stdio_stream@@@Z 0000000140020920 f   libucrtd:ftell.obj
 0001:0001fc40       ??$count_newlines_of_type@D@@YA_JQEBD0@Z 0000000140020c40 f   libucrtd:ftell.obj
 0001:0001fd10       ??$count_newlines_of_type@_W@@YA_JQEBD0@Z 0000000140020d10 f   libucrtd:ftell.obj
 0001:0001fdf0       ?buffer_character_size@@YA_KW4__crt_lowio_text_mode@@@Z 0000000140020df0 f   libucrtd:ftell.obj
 0001:0001fe30       ?buffer_contains_wide_characters@@YA_NW4__crt_lowio_text_mode@@@Z 0000000140020e30 f   libucrtd:ftell.obj
 0001:0001fe60       ?common_ftell_read_mode_nolock@@YA_JV__crt_stdio_stream@@_J1@Z 0000000140020e60 f   libucrtd:ftell.obj
 0001:00020170       ?common_ftell_translated_utf8_nolock@@YA_JV__crt_stdio_stream@@_J@Z 0000000140021170 f   libucrtd:ftell.obj
 0001:00020420       ?count_newline_bytes@@YA_JQEBD0W4__crt_lowio_text_mode@@@Z 0000000140021420 f   libucrtd:ftell.obj
 0001:000208e0       ??$?RV<lambda_f4e517d552fa6983f9729d42bd01948c>@@AEAV<lambda_996e5bbe595b6575b96cd8ed43795d0b>@@V<lambda_3f7a415f9b2bf2b7e57bed21b4d14873>@@@?$__crt_seh_guarded_call@PEAD@@QEAAPEAD$$QEAV<lambda_f4e517d552fa6983f9729d42bd01948c>@@AEAV<lambda_996e5bbe595b6575b96cd8ed43795d0b>@@$$QEAV<lambda_3f7a415f9b2bf2b7e57bed21b4d14873>@@@Z 00000001400218e0 f   libucrtd:setlocale.obj
 0001:00020930       ??$__acrt_lock_and_call@V<lambda_996e5bbe595b6575b96cd8ed43795d0b>@@@@YAPEADW4__acrt_lock_id@@$$QEAV<lambda_996e5bbe595b6575b96cd8ed43795d0b>@@@Z 0000000140021930 f   libucrtd:setlocale.obj
 0001:00020980       ??0<lambda_04ddeca75b7c13fd67716e8dfcef87ee>@@QEAA@AEBW4__acrt_lock_id@@@Z 0000000140021980 f   libucrtd:per_thread_data.obj
 0001:00020980       ??0<lambda_0ae27a3a962d80f24befdcbee591983d>@@QEAA@AEBW4__acrt_lock_id@@@Z 0000000140021980 f   libucrtd:per_thread_data.obj
 0001:00020980       ??0<lambda_2d41944a1d46af3157314b8a01080d33>@@QEAA@AEBW4__acrt_lock_id@@@Z 0000000140021980 f   libucrtd:per_thread_data.obj
 0001:00020980       ??0<lambda_6992ecaafeb10aed2b74cb1fae11a551>@@QEAA@AEBW4__acrt_lock_id@@@Z 0000000140021980 f   libucrtd:per_thread_data.obj
 0001:00020980       ??0<lambda_74a0ef281e44d15e1136f792f539efb3>@@QEAA@AEBW4__acrt_lock_id@@@Z 0000000140021980 f   libucrtd:per_thread_data.obj
 0001:00020980       ??0<lambda_aa500f224e6afead328df44964fe2772>@@QEAA@AEBW4__acrt_lock_id@@@Z 0000000140021980 f   libucrtd:per_thread_data.obj
 0001:00020980       ??0<lambda_aa87e3671a710a21b5dc78c0bdf72e11>@@QEAA@AEBW4__acrt_lock_id@@@Z 0000000140021980 f   libucrtd:per_thread_data.obj
 0001:00020980       ??0<lambda_dc504788e8f1664fe9b84e20bfb512f2>@@QEAA@AEBW4__acrt_lock_id@@@Z 0000000140021980 f   libucrtd:per_thread_data.obj
 0001:00020980       ??0<lambda_0a2f2c9f9a56eb2b08bfa6ff61d331c5>@@QEAA@AEBW4__acrt_lock_id@@@Z 0000000140021980 f   libucrtd:winapi_thunks.obj
 0001:00020980       ??0<lambda_48fc4a32460bb0512d3b13f8499328be>@@QEAA@AEBW4__acrt_lock_id@@@Z 0000000140021980 f   libucrtd:winapi_thunks.obj
 0001:00020980       ??0<lambda_3f7a415f9b2bf2b7e57bed21b4d14873>@@QEAA@AEBW4__acrt_lock_id@@@Z 0000000140021980 f   libucrtd:setlocale.obj
 0001:00020980       ??0<lambda_f4e517d552fa6983f9729d42bd01948c>@@QEAA@AEBW4__acrt_lock_id@@@Z 0000000140021980 f   libucrtd:setlocale.obj
 0001:00020980       ??0<lambda_00affa51ad4f3ce188343710b49f0616>@@QEAA@AEBW4__acrt_lock_id@@@Z 0000000140021980 f   libucrtd:wsetlocale.obj
 0001:00020980       ??0<lambda_38119f0e861e05405d8a144b9b982f0a>@@QEAA@AEBW4__acrt_lock_id@@@Z 0000000140021980 f   libucrtd:wsetlocale.obj
 0001:00020980       ??0<lambda_410d79af7f07d98d83a3f525b3859a53>@@QEAA@AEBW4__acrt_lock_id@@@Z 0000000140021980 f   libucrtd:wsetlocale.obj
 0001:00020980       ??0<lambda_7f5f77d38a5522009713c5a813ff749e>@@QEAA@AEBW4__acrt_lock_id@@@Z 0000000140021980 f   libucrtd:wsetlocale.obj
 0001:00020980       ??0<lambda_53fc7fc888e23d815d7080162c0aeeb2>@@QEAA@AEBH@Z 0000000140021980 f   libucrtd:close.obj
 0001:00020980       ??0<lambda_8ddc48ad9d26c778cb15812d1d88fc8a>@@QEAA@AEBH@Z 0000000140021980 f   libucrtd:close.obj
 0001:00020980       ??0<lambda_47cffbaa968af5c721c38a4a6f8da44d>@@QEAA@AEBH@Z 0000000140021980 f   libucrtd:commit.obj
 0001:00020980       ??0<lambda_4e3dbe6921bc0b5a1a6bc6573fdc859e>@@QEAA@AEBH@Z 0000000140021980 f   libucrtd:commit.obj
 0001:00020980       ??0<lambda_728235dc0fc2b1f82d1fa5b3e7102d8f>@@QEAA@AEBW4__acrt_lock_id@@@Z 0000000140021980 f   libucrtd:mbctype.obj
 0001:00020980       ??0<lambda_efa02eb69bf647d2f7ff0dd6f1103f72>@@QEAA@AEBW4__acrt_lock_id@@@Z 0000000140021980 f   libucrtd:mbctype.obj
 0001:00020980       ??0<lambda_450d765d439847d4c735a33c368b5fc0>@@QEAA@AEBW4__acrt_lock_id@@@Z 0000000140021980 f   libucrtd:signal.obj
 0001:00020980       ??0<lambda_601a2a7da3b7a96e9554ac7215c4b07c>@@QEAA@AEBW4__acrt_lock_id@@@Z 0000000140021980 f   libucrtd:signal.obj
 0001:00020980       ??0<lambda_2358e3775559c9db80273638284d5e45>@@QEAA@AEBW4__acrt_lock_id@@@Z 0000000140021980 f   libucrtd:exit.obj
 0001:00020980       ??0<lambda_d80eeec6fff315bfe5c115232f3240e3>@@QEAA@AEBW4__acrt_lock_id@@@Z 0000000140021980 f   libucrtd:exit.obj
 0001:00020980       ??0<lambda_00e911965883f7966597d4c465c83ebc>@@QEAA@AEBW4__acrt_lock_id@@@Z 0000000140021980 f   libucrtd:onexit.obj
 0001:00020980       ??0<lambda_6a47f4c8fd0152770a780fc1d70204eb>@@QEAA@AEBW4__acrt_lock_id@@@Z 0000000140021980 f   libucrtd:onexit.obj
 0001:00020980       ??0<lambda_6aaa2265f5b6a89667e7d7630012e97a>@@QEAA@AEBW4__acrt_lock_id@@@Z 0000000140021980 f   libucrtd:onexit.obj
 0001:00020980       ??0<lambda_dce957679fd779aa27c4ca5c39e09098>@@QEAA@AEBW4__acrt_lock_id@@@Z 0000000140021980 f   libucrtd:onexit.obj
 0001:00020980       ??0<lambda_886d6c58226a84441f68b9f2b8217b83>@@QEAA@AEBW4__acrt_lock_id@@@Z 0000000140021980 f   libucrtd:fflush.obj
 0001:00020980       ??0<lambda_f7f22ab5edc0698d5f6905b0d3f44752>@@QEAA@AEBW4__acrt_lock_id@@@Z 0000000140021980 f   libucrtd:fflush.obj
 0001:000209a0       ??R<lambda_04ddeca75b7c13fd67716e8dfcef87ee>@@QEBAXXZ 00000001400219a0 f   libucrtd:per_thread_data.obj
 0001:000209a0       ??R<lambda_6992ecaafeb10aed2b74cb1fae11a551>@@QEBAXXZ 00000001400219a0 f   libucrtd:per_thread_data.obj
 0001:000209a0       ??R<lambda_aa500f224e6afead328df44964fe2772>@@QEBAXXZ 00000001400219a0 f   libucrtd:per_thread_data.obj
 0001:000209a0       ??R<lambda_dc504788e8f1664fe9b84e20bfb512f2>@@QEBAXXZ 00000001400219a0 f   libucrtd:per_thread_data.obj
 0001:000209a0       ??R<lambda_0a2f2c9f9a56eb2b08bfa6ff61d331c5>@@QEBAXXZ 00000001400219a0 f   libucrtd:winapi_thunks.obj
 0001:000209a0       ??R<lambda_3f7a415f9b2bf2b7e57bed21b4d14873>@@QEBAXXZ 00000001400219a0 f   libucrtd:setlocale.obj
 0001:000209a0       ??R<lambda_00affa51ad4f3ce188343710b49f0616>@@QEBAXXZ 00000001400219a0 f   libucrtd:wsetlocale.obj
 0001:000209a0       ??R<lambda_38119f0e861e05405d8a144b9b982f0a>@@QEBAXXZ 00000001400219a0 f   libucrtd:wsetlocale.obj
 0001:000209a0       ??R<lambda_728235dc0fc2b1f82d1fa5b3e7102d8f>@@QEBAXXZ 00000001400219a0 f   libucrtd:mbctype.obj
 0001:000209a0       ??R<lambda_601a2a7da3b7a96e9554ac7215c4b07c>@@QEBAXXZ 00000001400219a0 f   libucrtd:signal.obj
 0001:000209a0       ??R<lambda_2358e3775559c9db80273638284d5e45>@@QEBAXXZ 00000001400219a0 f   libucrtd:exit.obj
 0001:000209a0       ??R<lambda_00e911965883f7966597d4c465c83ebc>@@QEBAXXZ 00000001400219a0 f   libucrtd:onexit.obj
 0001:000209a0       ??R<lambda_6aaa2265f5b6a89667e7d7630012e97a>@@QEBAXXZ 00000001400219a0 f   libucrtd:onexit.obj
 0001:000209a0       ??R<lambda_f7f22ab5edc0698d5f6905b0d3f44752>@@QEBAXXZ 00000001400219a0 f   libucrtd:fflush.obj
 0001:000209c0       ??R<lambda_996e5bbe595b6575b96cd8ed43795d0b>@@QEBAPEADXZ 00000001400219c0 f   libucrtd:setlocale.obj
 0001:00020de0       ??R<lambda_0ae27a3a962d80f24befdcbee591983d>@@QEBAXXZ 0000000140021de0 f   libucrtd:per_thread_data.obj
 0001:00020de0       ??R<lambda_2d41944a1d46af3157314b8a01080d33>@@QEBAXXZ 0000000140021de0 f   libucrtd:per_thread_data.obj
 0001:00020de0       ??R<lambda_74a0ef281e44d15e1136f792f539efb3>@@QEBAXXZ 0000000140021de0 f   libucrtd:per_thread_data.obj
 0001:00020de0       ??R<lambda_aa87e3671a710a21b5dc78c0bdf72e11>@@QEBAXXZ 0000000140021de0 f   libucrtd:per_thread_data.obj
 0001:00020de0       ??R<lambda_48fc4a32460bb0512d3b13f8499328be>@@QEBAXXZ 0000000140021de0 f   libucrtd:winapi_thunks.obj
 0001:00020de0       ??R<lambda_f4e517d552fa6983f9729d42bd01948c>@@QEBAXXZ 0000000140021de0 f   libucrtd:setlocale.obj
 0001:00020de0       ??R<lambda_410d79af7f07d98d83a3f525b3859a53>@@QEBAXXZ 0000000140021de0 f   libucrtd:wsetlocale.obj
 0001:00020de0       ??R<lambda_7f5f77d38a5522009713c5a813ff749e>@@QEBAXXZ 0000000140021de0 f   libucrtd:wsetlocale.obj
 0001:00020de0       ??R<lambda_efa02eb69bf647d2f7ff0dd6f1103f72>@@QEBAXXZ 0000000140021de0 f   libucrtd:mbctype.obj
 0001:00020de0       ??R<lambda_450d765d439847d4c735a33c368b5fc0>@@QEBAXXZ 0000000140021de0 f   libucrtd:signal.obj
 0001:00020de0       ??R<lambda_d80eeec6fff315bfe5c115232f3240e3>@@QEBAXXZ 0000000140021de0 f   libucrtd:exit.obj
